	.file	"gtest-all.cc"
	.section	.text$_ZSt9uppercaseRSt8ios_base,"x"
	.linkonce discard
LCOLDB1:
LHOTB1:
	.globl	__ZSt9uppercaseRSt8ios_base
	.def	__ZSt9uppercaseRSt8ios_base;	.scl	2;	.type	32;	.endef
__ZSt9uppercaseRSt8ios_base:
LFB1272:
	.cfi_startproc
	pushl	%ebp
	.cfi_def_cfa_offset 8
	.cfi_offset 5, -8
	movl	%esp, %ebp
	.cfi_def_cfa_register 5
	movl	8(%ebp), %eax
	orl	$16384, 12(%eax)
	popl	%ebp
	.cfi_restore 5
	.cfi_def_cfa 4, 4
	ret
	.cfi_endproc
LFE1272:
LCOLDE1:
LHOTE1:
	.section	.text$_ZSt3hexRSt8ios_base,"x"
	.linkonce discard
LCOLDB2:
LHOTB2:
	.globl	__ZSt3hexRSt8ios_base
	.def	__ZSt3hexRSt8ios_base;	.scl	2;	.type	32;	.endef
__ZSt3hexRSt8ios_base:
LFB1280:
	.cfi_startproc
	pushl	%ebp
	.cfi_def_cfa_offset 8
	.cfi_offset 5, -8
	movl	%esp, %ebp
	.cfi_def_cfa_register 5
	movl	8(%ebp), %eax
	movl	12(%eax), %edx
	andl	$-75, %edx
	orl	$8, %edx
	movl	%edx, 12(%eax)
	popl	%ebp
	.cfi_restore 5
	.cfi_def_cfa 4, 4
	ret
	.cfi_endproc
LFE1280:
LCOLDE2:
LHOTE2:
	.section	.text$_ZN7testing4Test11DeleteSelf_Ev,"x"
	.linkonce discard
	.align 2
LCOLDB3:
LHOTB3:
	.align 2
	.globl	__ZN7testing4Test11DeleteSelf_Ev
	.def	__ZN7testing4Test11DeleteSelf_Ev;	.scl	2;	.type	32;	.endef
__ZN7testing4Test11DeleteSelf_Ev:
LFB3493:
	.cfi_startproc
	pushl	%ebp
	.cfi_def_cfa_offset 8
	.cfi_offset 5, -8
	testl	%ecx, %ecx
	movl	%esp, %ebp
	.cfi_def_cfa_register 5
	je	L5
	movl	(%ecx), %eax
	popl	%ebp
	.cfi_remember_state
	.cfi_restore 5
	.cfi_def_cfa 4, 4
	movl	4(%eax), %eax
	jmp	*%eax
L5:
	.cfi_restore_state
	popl	%ebp
	.cfi_restore 5
	.cfi_def_cfa 4, 4
	ret
	.cfi_endproc
LFE3493:
LCOLDE3:
LHOTE3:
	.section	.text$_ZN7testing4Test5SetupEv,"x"
	.linkonce discard
	.align 2
LCOLDB4:
LHOTB4:
	.align 2
	.globl	__ZN7testing4Test5SetupEv
	.def	__ZN7testing4Test5SetupEv;	.scl	2;	.type	32;	.endef
__ZN7testing4Test5SetupEv:
LFB3494:
	.cfi_startproc
	pushl	%ebp
	.cfi_def_cfa_offset 8
	.cfi_offset 5, -8
	xorl	%eax, %eax
	movl	%esp, %ebp
	.cfi_def_cfa_register 5
	popl	%ebp
	.cfi_restore 5
	.cfi_def_cfa 4, 4
	ret
	.cfi_endproc
LFE3494:
LCOLDE4:
LHOTE4:
	.section	.text$_ZN7testing8TestCase16RunSetUpTestCaseEv,"x"
	.linkonce discard
	.align 2
LCOLDB5:
LHOTB5:
	.align 2
	.globl	__ZN7testing8TestCase16RunSetUpTestCaseEv
	.def	__ZN7testing8TestCase16RunSetUpTestCaseEv;	.scl	2;	.type	32;	.endef
__ZN7testing8TestCase16RunSetUpTestCaseEv:
LFB3528:
	.cfi_startproc
	pushl	%ebp
	.cfi_def_cfa_offset 8
	.cfi_offset 5, -8
	movl	56(%ecx), %eax
	movl	%esp, %ebp
	.cfi_def_cfa_register 5
	popl	%ebp
	.cfi_restore 5
	.cfi_def_cfa 4, 4
	jmp	*%eax
	.cfi_endproc
LFE3528:
LCOLDE5:
LHOTE5:
	.section	.text$_ZN7testing8TestCase19RunTearDownTestCaseEv,"x"
	.linkonce discard
	.align 2
LCOLDB6:
LHOTB6:
	.align 2
	.globl	__ZN7testing8TestCase19RunTearDownTestCaseEv
	.def	__ZN7testing8TestCase19RunTearDownTestCaseEv;	.scl	2;	.type	32;	.endef
__ZN7testing8TestCase19RunTearDownTestCaseEv:
LFB3529:
	.cfi_startproc
	pushl	%ebp
	.cfi_def_cfa_offset 8
	.cfi_offset 5, -8
	movl	60(%ecx), %eax
	movl	%esp, %ebp
	.cfi_def_cfa_register 5
	popl	%ebp
	.cfi_restore 5
	.cfi_def_cfa 4, 4
	jmp	*%eax
	.cfi_endproc
LFE3529:
LCOLDE6:
LHOTE6:
	.section	.text$_ZN7testing8TestCase22TestReportableDisabledEPKNS_8TestInfoE,"x"
	.linkonce discard
LCOLDB7:
LHOTB7:
	.globl	__ZN7testing8TestCase22TestReportableDisabledEPKNS_8TestInfoE
	.def	__ZN7testing8TestCase22TestReportableDisabledEPKNS_8TestInfoE;	.scl	2;	.type	32;	.endef
__ZN7testing8TestCase22TestReportableDisabledEPKNS_8TestInfoE:
LFB3532:
	.cfi_startproc
	pushl	%ebp
	.cfi_def_cfa_offset 8
	.cfi_offset 5, -8
	xorl	%eax, %eax
	movl	%esp, %ebp
	.cfi_def_cfa_register 5
	movl	8(%ebp), %edx
	cmpb	$0, 62(%edx)
	je	L16
	movb	61(%edx), %al
L16:
	popl	%ebp
	.cfi_restore 5
	.cfi_def_cfa 4, 4
	ret
	.cfi_endproc
LFE3532:
LCOLDE7:
LHOTE7:
	.section	.text$_ZN7testing8TestCase12TestDisabledEPKNS_8TestInfoE,"x"
	.linkonce discard
LCOLDB8:
LHOTB8:
	.globl	__ZN7testing8TestCase12TestDisabledEPKNS_8TestInfoE
	.def	__ZN7testing8TestCase12TestDisabledEPKNS_8TestInfoE;	.scl	2;	.type	32;	.endef
__ZN7testing8TestCase12TestDisabledEPKNS_8TestInfoE:
LFB3533:
	.cfi_startproc
	pushl	%ebp
	.cfi_def_cfa_offset 8
	.cfi_offset 5, -8
	movl	%esp, %ebp
	.cfi_def_cfa_register 5
	movl	8(%ebp), %eax
	popl	%ebp
	.cfi_restore 5
	.cfi_def_cfa 4, 4
	movb	61(%eax), %al
	ret
	.cfi_endproc
LFE3533:
LCOLDE8:
LHOTE8:
	.section	.text$_ZN7testing8TestCase14TestReportableEPKNS_8TestInfoE,"x"
	.linkonce discard
LCOLDB9:
LHOTB9:
	.globl	__ZN7testing8TestCase14TestReportableEPKNS_8TestInfoE
	.def	__ZN7testing8TestCase14TestReportableEPKNS_8TestInfoE;	.scl	2;	.type	32;	.endef
__ZN7testing8TestCase14TestReportableEPKNS_8TestInfoE:
LFB3534:
	.cfi_startproc
	pushl	%ebp
	.cfi_def_cfa_offset 8
	.cfi_offset 5, -8
	movl	%esp, %ebp
	.cfi_def_cfa_register 5
	movl	8(%ebp), %eax
	popl	%ebp
	.cfi_restore 5
	.cfi_def_cfa 4, 4
	movb	62(%eax), %al
	ret
	.cfi_endproc
LFE3534:
LCOLDE9:
LHOTE9:
	.section	.text$_ZN7testing8TestCase13ShouldRunTestEPKNS_8TestInfoE,"x"
	.linkonce discard
LCOLDB10:
LHOTB10:
	.globl	__ZN7testing8TestCase13ShouldRunTestEPKNS_8TestInfoE
	.def	__ZN7testing8TestCase13ShouldRunTestEPKNS_8TestInfoE;	.scl	2;	.type	32;	.endef
__ZN7testing8TestCase13ShouldRunTestEPKNS_8TestInfoE:
LFB3535:
	.cfi_startproc
	pushl	%ebp
	.cfi_def_cfa_offset 8
	.cfi_offset 5, -8
	movl	%esp, %ebp
	.cfi_def_cfa_register 5
	movl	8(%ebp), %eax
	popl	%ebp
	.cfi_restore 5
	.cfi_def_cfa 4, 4
	movb	60(%eax), %al
	ret
	.cfi_endproc
LFE3535:
LCOLDE10:
LHOTE10:
	.section	.text$_ZN7testing22EmptyTestEventListener18OnTestProgramStartERKNS_8UnitTestE,"x"
	.linkonce discard
	.align 2
LCOLDB11:
LHOTB11:
	.align 2
	.globl	__ZN7testing22EmptyTestEventListener18OnTestProgramStartERKNS_8UnitTestE
	.def	__ZN7testing22EmptyTestEventListener18OnTestProgramStartERKNS_8UnitTestE;	.scl	2;	.type	32;	.endef
__ZN7testing22EmptyTestEventListener18OnTestProgramStartERKNS_8UnitTestE:
LFB3547:
	.cfi_startproc
	pushl	%ebp
	.cfi_def_cfa_offset 8
	.cfi_offset 5, -8
	movl	%esp, %ebp
	.cfi_def_cfa_register 5
	popl	%ebp
	.cfi_restore 5
	.cfi_def_cfa 4, 4
	ret	$4
	.cfi_endproc
LFE3547:
LCOLDE11:
LHOTE11:
	.section	.text$_ZN7testing22EmptyTestEventListener20OnTestIterationStartERKNS_8UnitTestEi,"x"
	.linkonce discard
	.align 2
LCOLDB12:
LHOTB12:
	.align 2
	.globl	__ZN7testing22EmptyTestEventListener20OnTestIterationStartERKNS_8UnitTestEi
	.def	__ZN7testing22EmptyTestEventListener20OnTestIterationStartERKNS_8UnitTestEi;	.scl	2;	.type	32;	.endef
__ZN7testing22EmptyTestEventListener20OnTestIterationStartERKNS_8UnitTestEi:
LFB3548:
	.cfi_startproc
	pushl	%ebp
	.cfi_def_cfa_offset 8
	.cfi_offset 5, -8
	movl	%esp, %ebp
	.cfi_def_cfa_register 5
	popl	%ebp
	.cfi_restore 5
	.cfi_def_cfa 4, 4
	ret	$8
	.cfi_endproc
LFE3548:
LCOLDE12:
LHOTE12:
	.section	.text$_ZN7testing22EmptyTestEventListener24OnEnvironmentsSetUpStartERKNS_8UnitTestE,"x"
	.linkonce discard
	.align 2
LCOLDB13:
LHOTB13:
	.align 2
	.globl	__ZN7testing22EmptyTestEventListener24OnEnvironmentsSetUpStartERKNS_8UnitTestE
	.def	__ZN7testing22EmptyTestEventListener24OnEnvironmentsSetUpStartERKNS_8UnitTestE;	.scl	2;	.type	32;	.endef
__ZN7testing22EmptyTestEventListener24OnEnvironmentsSetUpStartERKNS_8UnitTestE:
LFB3549:
	.cfi_startproc
	pushl	%ebp
	.cfi_def_cfa_offset 8
	.cfi_offset 5, -8
	movl	%esp, %ebp
	.cfi_def_cfa_register 5
	popl	%ebp
	.cfi_restore 5
	.cfi_def_cfa 4, 4
	ret	$4
	.cfi_endproc
LFE3549:
LCOLDE13:
LHOTE13:
	.section	.text$_ZN7testing22EmptyTestEventListener22OnEnvironmentsSetUpEndERKNS_8UnitTestE,"x"
	.linkonce discard
	.align 2
LCOLDB14:
LHOTB14:
	.align 2
	.globl	__ZN7testing22EmptyTestEventListener22OnEnvironmentsSetUpEndERKNS_8UnitTestE
	.def	__ZN7testing22EmptyTestEventListener22OnEnvironmentsSetUpEndERKNS_8UnitTestE;	.scl	2;	.type	32;	.endef
__ZN7testing22EmptyTestEventListener22OnEnvironmentsSetUpEndERKNS_8UnitTestE:
LFB3550:
	.cfi_startproc
	pushl	%ebp
	.cfi_def_cfa_offset 8
	.cfi_offset 5, -8
	movl	%esp, %ebp
	.cfi_def_cfa_register 5
	popl	%ebp
	.cfi_restore 5
	.cfi_def_cfa 4, 4
	ret	$4
	.cfi_endproc
LFE3550:
LCOLDE14:
LHOTE14:
	.section	.text$_ZN7testing22EmptyTestEventListener15OnTestCaseStartERKNS_8TestCaseE,"x"
	.linkonce discard
	.align 2
LCOLDB15:
LHOTB15:
	.align 2
	.globl	__ZN7testing22EmptyTestEventListener15OnTestCaseStartERKNS_8TestCaseE
	.def	__ZN7testing22EmptyTestEventListener15OnTestCaseStartERKNS_8TestCaseE;	.scl	2;	.type	32;	.endef
__ZN7testing22EmptyTestEventListener15OnTestCaseStartERKNS_8TestCaseE:
LFB3551:
	.cfi_startproc
	pushl	%ebp
	.cfi_def_cfa_offset 8
	.cfi_offset 5, -8
	movl	%esp, %ebp
	.cfi_def_cfa_register 5
	popl	%ebp
	.cfi_restore 5
	.cfi_def_cfa 4, 4
	ret	$4
	.cfi_endproc
LFE3551:
LCOLDE15:
LHOTE15:
	.section	.text$_ZN7testing22EmptyTestEventListener11OnTestStartERKNS_8TestInfoE,"x"
	.linkonce discard
	.align 2
LCOLDB16:
LHOTB16:
	.align 2
	.globl	__ZN7testing22EmptyTestEventListener11OnTestStartERKNS_8TestInfoE
	.def	__ZN7testing22EmptyTestEventListener11OnTestStartERKNS_8TestInfoE;	.scl	2;	.type	32;	.endef
__ZN7testing22EmptyTestEventListener11OnTestStartERKNS_8TestInfoE:
LFB3552:
	.cfi_startproc
	pushl	%ebp
	.cfi_def_cfa_offset 8
	.cfi_offset 5, -8
	movl	%esp, %ebp
	.cfi_def_cfa_register 5
	popl	%ebp
	.cfi_restore 5
	.cfi_def_cfa 4, 4
	ret	$4
	.cfi_endproc
LFE3552:
LCOLDE16:
LHOTE16:
	.section	.text$_ZN7testing22EmptyTestEventListener16OnTestPartResultERKNS_14TestPartResultE,"x"
	.linkonce discard
	.align 2
LCOLDB17:
LHOTB17:
	.align 2
	.globl	__ZN7testing22EmptyTestEventListener16OnTestPartResultERKNS_14TestPartResultE
	.def	__ZN7testing22EmptyTestEventListener16OnTestPartResultERKNS_14TestPartResultE;	.scl	2;	.type	32;	.endef
__ZN7testing22EmptyTestEventListener16OnTestPartResultERKNS_14TestPartResultE:
LFB3553:
	.cfi_startproc
	pushl	%ebp
	.cfi_def_cfa_offset 8
	.cfi_offset 5, -8
	movl	%esp, %ebp
	.cfi_def_cfa_register 5
	popl	%ebp
	.cfi_restore 5
	.cfi_def_cfa 4, 4
	ret	$4
	.cfi_endproc
LFE3553:
LCOLDE17:
LHOTE17:
	.section	.text$_ZN7testing22EmptyTestEventListener9OnTestEndERKNS_8TestInfoE,"x"
	.linkonce discard
	.align 2
LCOLDB18:
LHOTB18:
	.align 2
	.globl	__ZN7testing22EmptyTestEventListener9OnTestEndERKNS_8TestInfoE
	.def	__ZN7testing22EmptyTestEventListener9OnTestEndERKNS_8TestInfoE;	.scl	2;	.type	32;	.endef
__ZN7testing22EmptyTestEventListener9OnTestEndERKNS_8TestInfoE:
LFB3554:
	.cfi_startproc
	pushl	%ebp
	.cfi_def_cfa_offset 8
	.cfi_offset 5, -8
	movl	%esp, %ebp
	.cfi_def_cfa_register 5
	popl	%ebp
	.cfi_restore 5
	.cfi_def_cfa 4, 4
	ret	$4
	.cfi_endproc
LFE3554:
LCOLDE18:
LHOTE18:
	.section	.text$_ZN7testing22EmptyTestEventListener13OnTestCaseEndERKNS_8TestCaseE,"x"
	.linkonce discard
	.align 2
LCOLDB19:
LHOTB19:
	.align 2
	.globl	__ZN7testing22EmptyTestEventListener13OnTestCaseEndERKNS_8TestCaseE
	.def	__ZN7testing22EmptyTestEventListener13OnTestCaseEndERKNS_8TestCaseE;	.scl	2;	.type	32;	.endef
__ZN7testing22EmptyTestEventListener13OnTestCaseEndERKNS_8TestCaseE:
LFB3555:
	.cfi_startproc
	pushl	%ebp
	.cfi_def_cfa_offset 8
	.cfi_offset 5, -8
	movl	%esp, %ebp
	.cfi_def_cfa_register 5
	popl	%ebp
	.cfi_restore 5
	.cfi_def_cfa 4, 4
	ret	$4
	.cfi_endproc
LFE3555:
LCOLDE19:
LHOTE19:
	.section	.text$_ZN7testing22EmptyTestEventListener27OnEnvironmentsTearDownStartERKNS_8UnitTestE,"x"
	.linkonce discard
	.align 2
LCOLDB20:
LHOTB20:
	.align 2
	.globl	__ZN7testing22EmptyTestEventListener27OnEnvironmentsTearDownStartERKNS_8UnitTestE
	.def	__ZN7testing22EmptyTestEventListener27OnEnvironmentsTearDownStartERKNS_8UnitTestE;	.scl	2;	.type	32;	.endef
__ZN7testing22EmptyTestEventListener27OnEnvironmentsTearDownStartERKNS_8UnitTestE:
LFB3556:
	.cfi_startproc
	pushl	%ebp
	.cfi_def_cfa_offset 8
	.cfi_offset 5, -8
	movl	%esp, %ebp
	.cfi_def_cfa_register 5
	popl	%ebp
	.cfi_restore 5
	.cfi_def_cfa 4, 4
	ret	$4
	.cfi_endproc
LFE3556:
LCOLDE20:
LHOTE20:
	.section	.text$_ZN7testing22EmptyTestEventListener25OnEnvironmentsTearDownEndERKNS_8UnitTestE,"x"
	.linkonce discard
	.align 2
LCOLDB21:
LHOTB21:
	.align 2
	.globl	__ZN7testing22EmptyTestEventListener25OnEnvironmentsTearDownEndERKNS_8UnitTestE
	.def	__ZN7testing22EmptyTestEventListener25OnEnvironmentsTearDownEndERKNS_8UnitTestE;	.scl	2;	.type	32;	.endef
__ZN7testing22EmptyTestEventListener25OnEnvironmentsTearDownEndERKNS_8UnitTestE:
LFB3557:
	.cfi_startproc
	pushl	%ebp
	.cfi_def_cfa_offset 8
	.cfi_offset 5, -8
	movl	%esp, %ebp
	.cfi_def_cfa_register 5
	popl	%ebp
	.cfi_restore 5
	.cfi_def_cfa 4, 4
	ret	$4
	.cfi_endproc
LFE3557:
LCOLDE21:
LHOTE21:
	.section	.text$_ZN7testing22EmptyTestEventListener18OnTestIterationEndERKNS_8UnitTestEi,"x"
	.linkonce discard
	.align 2
LCOLDB22:
LHOTB22:
	.align 2
	.globl	__ZN7testing22EmptyTestEventListener18OnTestIterationEndERKNS_8UnitTestEi
	.def	__ZN7testing22EmptyTestEventListener18OnTestIterationEndERKNS_8UnitTestEi;	.scl	2;	.type	32;	.endef
__ZN7testing22EmptyTestEventListener18OnTestIterationEndERKNS_8UnitTestEi:
LFB3558:
	.cfi_startproc
	pushl	%ebp
	.cfi_def_cfa_offset 8
	.cfi_offset 5, -8
	movl	%esp, %ebp
	.cfi_def_cfa_register 5
	popl	%ebp
	.cfi_restore 5
	.cfi_def_cfa 4, 4
	ret	$8
	.cfi_endproc
LFE3558:
LCOLDE22:
LHOTE22:
	.section	.text$_ZN7testing22EmptyTestEventListener16OnTestProgramEndERKNS_8UnitTestE,"x"
	.linkonce discard
	.align 2
LCOLDB23:
LHOTB23:
	.align 2
	.globl	__ZN7testing22EmptyTestEventListener16OnTestProgramEndERKNS_8UnitTestE
	.def	__ZN7testing22EmptyTestEventListener16OnTestProgramEndERKNS_8UnitTestE;	.scl	2;	.type	32;	.endef
__ZN7testing22EmptyTestEventListener16OnTestProgramEndERKNS_8UnitTestE:
LFB3559:
	.cfi_startproc
	pushl	%ebp
	.cfi_def_cfa_offset 8
	.cfi_offset 5, -8
	movl	%esp, %ebp
	.cfi_def_cfa_register 5
	popl	%ebp
	.cfi_restore 5
	.cfi_def_cfa 4, 4
	ret	$4
	.cfi_endproc
LFE3559:
LCOLDE23:
LHOTE23:
	.section	.text.unlikely._ZN7testing8internalL17ShouldRunTestCaseEPKNS_8TestCaseE,"x"
LCOLDB24:
	.section	.text$_ZN7testing8internalL17ShouldRunTestCaseEPKNS_8TestCaseE,"x"
LHOTB24:
	.def	__ZN7testing8internalL17ShouldRunTestCaseEPKNS_8TestCaseE;	.scl	3;	.type	32;	.endef
__ZN7testing8internalL17ShouldRunTestCaseEPKNS_8TestCaseE:
LFB9939:
	.cfi_startproc
	pushl	%ebp
	.cfi_def_cfa_offset 8
	.cfi_offset 5, -8
	movl	%esp, %ebp
	.cfi_def_cfa_register 5
	movl	8(%ebp), %eax
	popl	%ebp
	.cfi_restore 5
	.cfi_def_cfa 4, 4
	movb	64(%eax), %al
	ret
	.cfi_endproc
LFE9939:
	.section	.text.unlikely._ZN7testing8internalL17ShouldRunTestCaseEPKNS_8TestCaseE,"x"
LCOLDE24:
	.section	.text$_ZN7testing8internalL17ShouldRunTestCaseEPKNS_8TestCaseE,"x"
LHOTE24:
	.section	.text.unlikely._ZN7testing8internal38DefaultPerThreadTestPartResultReporter20ReportTestPartResultERKNS_14TestPartResultE,"x"
	.align 2
LCOLDB25:
	.section	.text$_ZN7testing8internal38DefaultPerThreadTestPartResultReporter20ReportTestPartResultERKNS_14TestPartResultE,"x"
LHOTB25:
	.align 2
	.globl	__ZN7testing8internal38DefaultPerThreadTestPartResultReporter20ReportTestPartResultERKNS_14TestPartResultE
	.def	__ZN7testing8internal38DefaultPerThreadTestPartResultReporter20ReportTestPartResultERKNS_14TestPartResultE;	.scl	2;	.type	32;	.endef
__ZN7testing8internal38DefaultPerThreadTestPartResultReporter20ReportTestPartResultERKNS_14TestPartResultE:
LFB9989:
	.cfi_startproc
	pushl	%ebp
	.cfi_def_cfa_offset 8
	.cfi_offset 5, -8
	movl	4(%ecx), %eax
	movl	%esp, %ebp
	.cfi_def_cfa_register 5
	movl	48(%eax), %ecx
	movl	(%ecx), %eax
	movl	8(%eax), %eax
	leave
	.cfi_restore 5
	.cfi_def_cfa 4, 4
	jmp	*%eax
	.cfi_def_cfa_offset 0
	.cfi_endproc
LFE9989:
	.section	.text.unlikely._ZN7testing8internal38DefaultPerThreadTestPartResultReporter20ReportTestPartResultERKNS_14TestPartResultE,"x"
LCOLDE25:
	.section	.text$_ZN7testing8internal38DefaultPerThreadTestPartResultReporter20ReportTestPartResultERKNS_14TestPartResultE,"x"
LHOTE25:
	.section	.text.unlikely._ZNK7testing8TestCase16total_test_countEv,"x"
	.align 2
LCOLDB26:
	.section	.text$_ZNK7testing8TestCase16total_test_countEv,"x"
LHOTB26:
	.align 2
	.globl	__ZNK7testing8TestCase16total_test_countEv
	.def	__ZNK7testing8TestCase16total_test_countEv;	.scl	2;	.type	32;	.endef
__ZNK7testing8TestCase16total_test_countEv:
LFB10139:
	.cfi_startproc
	movl	36(%ecx), %eax
	subl	32(%ecx), %eax
	pushl	%ebp
	.cfi_def_cfa_offset 8
	.cfi_offset 5, -8
	movl	%esp, %ebp
	.cfi_def_cfa_register 5
	sarl	$2, %eax
	popl	%ebp
	.cfi_restore 5
	.cfi_def_cfa 4, 4
	ret
	.cfi_endproc
LFE10139:
	.section	.text.unlikely._ZNK7testing8TestCase16total_test_countEv,"x"
LCOLDE26:
	.section	.text$_ZNK7testing8TestCase16total_test_countEv,"x"
LHOTE26:
	.section	.text$_ZN7testing8internal27PrettyUnitTestResultPrinter18OnTestProgramStartERKNS_8UnitTestE,"x"
	.linkonce discard
	.align 2
LCOLDB27:
LHOTB27:
	.align 2
	.globl	__ZN7testing8internal27PrettyUnitTestResultPrinter18OnTestProgramStartERKNS_8UnitTestE
	.def	__ZN7testing8internal27PrettyUnitTestResultPrinter18OnTestProgramStartERKNS_8UnitTestE;	.scl	2;	.type	32;	.endef
__ZN7testing8internal27PrettyUnitTestResultPrinter18OnTestProgramStartERKNS_8UnitTestE:
LFB10171:
	.cfi_startproc
	pushl	%ebp
	.cfi_def_cfa_offset 8
	.cfi_offset 5, -8
	movl	%esp, %ebp
	.cfi_def_cfa_register 5
	popl	%ebp
	.cfi_restore 5
	.cfi_def_cfa 4, 4
	ret	$4
	.cfi_endproc
LFE10171:
LCOLDE27:
LHOTE27:
	.section	.text$_ZN7testing8internal27PrettyUnitTestResultPrinter22OnEnvironmentsSetUpEndERKNS_8UnitTestE,"x"
	.linkonce discard
	.align 2
LCOLDB28:
LHOTB28:
	.align 2
	.globl	__ZN7testing8internal27PrettyUnitTestResultPrinter22OnEnvironmentsSetUpEndERKNS_8UnitTestE
	.def	__ZN7testing8internal27PrettyUnitTestResultPrinter22OnEnvironmentsSetUpEndERKNS_8UnitTestE;	.scl	2;	.type	32;	.endef
__ZN7testing8internal27PrettyUnitTestResultPrinter22OnEnvironmentsSetUpEndERKNS_8UnitTestE:
LFB10172:
	.cfi_startproc
	pushl	%ebp
	.cfi_def_cfa_offset 8
	.cfi_offset 5, -8
	movl	%esp, %ebp
	.cfi_def_cfa_register 5
	popl	%ebp
	.cfi_restore 5
	.cfi_def_cfa 4, 4
	ret	$4
	.cfi_endproc
LFE10172:
LCOLDE28:
LHOTE28:
	.section	.text$_ZN7testing8internal27PrettyUnitTestResultPrinter25OnEnvironmentsTearDownEndERKNS_8UnitTestE,"x"
	.linkonce discard
	.align 2
LCOLDB29:
LHOTB29:
	.align 2
	.globl	__ZN7testing8internal27PrettyUnitTestResultPrinter25OnEnvironmentsTearDownEndERKNS_8UnitTestE
	.def	__ZN7testing8internal27PrettyUnitTestResultPrinter25OnEnvironmentsTearDownEndERKNS_8UnitTestE;	.scl	2;	.type	32;	.endef
__ZN7testing8internal27PrettyUnitTestResultPrinter25OnEnvironmentsTearDownEndERKNS_8UnitTestE:
LFB10173:
	.cfi_startproc
	pushl	%ebp
	.cfi_def_cfa_offset 8
	.cfi_offset 5, -8
	movl	%esp, %ebp
	.cfi_def_cfa_register 5
	popl	%ebp
	.cfi_restore 5
	.cfi_def_cfa 4, 4
	ret	$4
	.cfi_endproc
LFE10173:
LCOLDE29:
LHOTE29:
	.section	.text$_ZN7testing8internal27PrettyUnitTestResultPrinter16OnTestProgramEndERKNS_8UnitTestE,"x"
	.linkonce discard
	.align 2
LCOLDB30:
LHOTB30:
	.align 2
	.globl	__ZN7testing8internal27PrettyUnitTestResultPrinter16OnTestProgramEndERKNS_8UnitTestE
	.def	__ZN7testing8internal27PrettyUnitTestResultPrinter16OnTestProgramEndERKNS_8UnitTestE;	.scl	2;	.type	32;	.endef
__ZN7testing8internal27PrettyUnitTestResultPrinter16OnTestProgramEndERKNS_8UnitTestE:
LFB10174:
	.cfi_startproc
	pushl	%ebp
	.cfi_def_cfa_offset 8
	.cfi_offset 5, -8
	movl	%esp, %ebp
	.cfi_def_cfa_register 5
	popl	%ebp
	.cfi_restore 5
	.cfi_def_cfa 4, 4
	ret	$4
	.cfi_endproc
LFE10174:
LCOLDE30:
LHOTE30:
	.section	.text$_ZN7testing22EmptyTestEventListenerD1Ev,"x"
	.linkonce discard
	.align 2
LCOLDB31:
LHOTB31:
	.align 2
	.globl	__ZN7testing22EmptyTestEventListenerD1Ev
	.def	__ZN7testing22EmptyTestEventListenerD1Ev;	.scl	2;	.type	32;	.endef
__ZN7testing22EmptyTestEventListenerD1Ev:
LFB10219:
	.cfi_startproc
	pushl	%ebp
	.cfi_def_cfa_offset 8
	.cfi_offset 5, -8
	movl	%esp, %ebp
	.cfi_def_cfa_register 5
	popl	%ebp
	.cfi_restore 5
	.cfi_def_cfa 4, 4
	ret
	.cfi_endproc
LFE10219:
LCOLDE31:
LHOTE31:
	.section	.text.unlikely._ZN7testing8internal18OsStackTraceGetter16UponLeavingGTestEv,"x"
	.align 2
LCOLDB32:
	.section	.text$_ZN7testing8internal18OsStackTraceGetter16UponLeavingGTestEv,"x"
LHOTB32:
	.align 2
	.globl	__ZN7testing8internal18OsStackTraceGetter16UponLeavingGTestEv
	.def	__ZN7testing8internal18OsStackTraceGetter16UponLeavingGTestEv;	.scl	2;	.type	32;	.endef
__ZN7testing8internal18OsStackTraceGetter16UponLeavingGTestEv:
LFB10247:
	.cfi_startproc
	pushl	%ebp
	.cfi_def_cfa_offset 8
	.cfi_offset 5, -8
	movl	%esp, %ebp
	.cfi_def_cfa_register 5
	popl	%ebp
	.cfi_restore 5
	.cfi_def_cfa 4, 4
	ret
	.cfi_endproc
LFE10247:
	.section	.text.unlikely._ZN7testing8internal18OsStackTraceGetter16UponLeavingGTestEv,"x"
LCOLDE32:
	.section	.text$_ZN7testing8internal18OsStackTraceGetter16UponLeavingGTestEv,"x"
LHOTE32:
	.globl	__ZN7testing4Test5SetUpEv
	.def	__ZN7testing4Test5SetUpEv;	.scl	2;	.type	32;	.endef
	.set	__ZN7testing4Test5SetUpEv,__ZN7testing8internal18OsStackTraceGetter16UponLeavingGTestEv
	.globl	__ZN7testing4Test8TearDownEv
	.def	__ZN7testing4Test8TearDownEv;	.scl	2;	.type	32;	.endef
	.set	__ZN7testing4Test8TearDownEv,__ZN7testing8internal18OsStackTraceGetter16UponLeavingGTestEv
	.section	.text.unlikely._ZN7testing8UnitTestD2Ev,"x"
	.align 2
LCOLDB33:
	.section	.text$_ZN7testing8UnitTestD2Ev,"x"
LHOTB33:
	.align 2
	.globl	__ZN7testing8UnitTestD2Ev
	.def	__ZN7testing8UnitTestD2Ev;	.scl	2;	.type	32;	.endef
__ZN7testing8UnitTestD2Ev:
LFB10310:
	.cfi_startproc
	pushl	%ebp
	.cfi_def_cfa_offset 8
	.cfi_offset 5, -8
	movl	$__ZTVN7testing8UnitTestE+8, (%ecx)
	movl	8(%ecx), %ecx
	movl	%esp, %ebp
	.cfi_def_cfa_register 5
	testl	%ecx, %ecx
	je	L70
	movl	(%ecx), %eax
	popl	%ebp
	.cfi_remember_state
	.cfi_restore 5
	.cfi_def_cfa 4, 4
	movl	4(%eax), %eax
	jmp	*%eax
L70:
	.cfi_restore_state
	popl	%ebp
	.cfi_restore 5
	.cfi_def_cfa 4, 4
	ret
	.cfi_endproc
LFE10310:
	.section	.text.unlikely._ZN7testing8UnitTestD2Ev,"x"
LCOLDE33:
	.section	.text$_ZN7testing8UnitTestD2Ev,"x"
LHOTE33:
	.globl	__ZN7testing8UnitTestD1Ev
	.def	__ZN7testing8UnitTestD1Ev;	.scl	2;	.type	32;	.endef
	.set	__ZN7testing8UnitTestD1Ev,__ZN7testing8UnitTestD2Ev
	.section	.text.unlikely.__tcf_0,"x"
LCOLDB34:
	.section	.text$__tcf_0,"x"
LHOTB34:
	.def	___tcf_0;	.scl	3;	.type	32;	.endef
___tcf_0:
LFB10268:
	.cfi_startproc
	pushl	%ebp
	.cfi_def_cfa_offset 8
	.cfi_offset 5, -8
	movl	$__ZZN7testing8UnitTest11GetInstanceEvE8instance, %ecx
	movl	%esp, %ebp
	.cfi_def_cfa_register 5
	popl	%ebp
	.cfi_restore 5
	.cfi_def_cfa 4, 4
	jmp	__ZN7testing8UnitTestD1Ev
	.cfi_endproc
LFE10268:
	.section	.text.unlikely.__tcf_0,"x"
LCOLDE34:
	.section	.text$__tcf_0,"x"
LHOTE34:
	.section	.text.unlikely._ZN7testing8internalL16SetUpEnvironmentEPNS_11EnvironmentE,"x"
LCOLDB35:
	.section	.text$_ZN7testing8internalL16SetUpEnvironmentEPNS_11EnvironmentE,"x"
LHOTB35:
	.def	__ZN7testing8internalL16SetUpEnvironmentEPNS_11EnvironmentE;	.scl	3;	.type	32;	.endef
__ZN7testing8internalL16SetUpEnvironmentEPNS_11EnvironmentE:
LFB10346:
	.cfi_startproc
	pushl	%ebp
	.cfi_def_cfa_offset 8
	.cfi_offset 5, -8
	movl	%esp, %ebp
	.cfi_def_cfa_register 5
	movl	8(%ebp), %ecx
	popl	%ebp
	.cfi_restore 5
	.cfi_def_cfa 4, 4
	movl	(%ecx), %eax
	movl	8(%eax), %eax
	jmp	*%eax
	.cfi_endproc
LFE10346:
	.section	.text.unlikely._ZN7testing8internalL16SetUpEnvironmentEPNS_11EnvironmentE,"x"
LCOLDE35:
	.section	.text$_ZN7testing8internalL16SetUpEnvironmentEPNS_11EnvironmentE,"x"
LHOTE35:
	.section	.text.unlikely._ZN7testing8internalL19TearDownEnvironmentEPNS_11EnvironmentE,"x"
LCOLDB36:
	.section	.text$_ZN7testing8internalL19TearDownEnvironmentEPNS_11EnvironmentE,"x"
LHOTB36:
	.def	__ZN7testing8internalL19TearDownEnvironmentEPNS_11EnvironmentE;	.scl	3;	.type	32;	.endef
__ZN7testing8internalL19TearDownEnvironmentEPNS_11EnvironmentE:
LFB10347:
	.cfi_startproc
	pushl	%ebp
	.cfi_def_cfa_offset 8
	.cfi_offset 5, -8
	movl	%esp, %ebp
	.cfi_def_cfa_register 5
	movl	8(%ebp), %ecx
	popl	%ebp
	.cfi_restore 5
	.cfi_def_cfa 4, 4
	movl	(%ecx), %eax
	movl	12(%eax), %eax
	jmp	*%eax
	.cfi_endproc
LFE10347:
	.section	.text.unlikely._ZN7testing8internalL19TearDownEnvironmentEPNS_11EnvironmentE,"x"
LCOLDE36:
	.section	.text$_ZN7testing8internalL19TearDownEnvironmentEPNS_11EnvironmentE,"x"
LHOTE36:
	.section	.text.unlikely._ZN7testing8internal24HasNewFatalFailureHelper20ReportTestPartResultERKNS_14TestPartResultE,"x"
	.align 2
LCOLDB37:
	.section	.text$_ZN7testing8internal24HasNewFatalFailureHelper20ReportTestPartResultERKNS_14TestPartResultE,"x"
LHOTB37:
	.align 2
	.globl	__ZN7testing8internal24HasNewFatalFailureHelper20ReportTestPartResultERKNS_14TestPartResultE
	.def	__ZN7testing8internal24HasNewFatalFailureHelper20ReportTestPartResultERKNS_14TestPartResultE;	.scl	2;	.type	32;	.endef
__ZN7testing8internal24HasNewFatalFailureHelper20ReportTestPartResultERKNS_14TestPartResultE:
LFB10526:
	.cfi_startproc
	pushl	%ebp
	.cfi_def_cfa_offset 8
	.cfi_offset 5, -8
	movl	%esp, %ebp
	.cfi_def_cfa_register 5
	movl	8(%ebp), %eax
	cmpl	$2, (%eax)
	jne	L80
	movb	$1, 4(%ecx)
L80:
	movl	8(%ecx), %ecx
	movl	(%ecx), %edx
	movl	%eax, 8(%ebp)
	movl	8(%edx), %eax
	leave
	.cfi_restore 5
	.cfi_def_cfa 4, 4
	jmp	*%eax
	.cfi_def_cfa_offset 0
	.cfi_endproc
LFE10526:
	.section	.text.unlikely._ZN7testing8internal24HasNewFatalFailureHelper20ReportTestPartResultERKNS_14TestPartResultE,"x"
LCOLDE37:
	.section	.text$_ZN7testing8internal24HasNewFatalFailureHelper20ReportTestPartResultERKNS_14TestPartResultE,"x"
LHOTE37:
	.section	.text.unlikely._ZN7testing8internalL6DeleteINS_17TestEventListenerEEEvPT_,"x"
LCOLDB38:
	.section	.text$_ZN7testing8internalL6DeleteINS_17TestEventListenerEEEvPT_,"x"
LHOTB38:
	.def	__ZN7testing8internalL6DeleteINS_17TestEventListenerEEEvPT_;	.scl	3;	.type	32;	.endef
__ZN7testing8internalL6DeleteINS_17TestEventListenerEEEvPT_:
LFB10903:
	.cfi_startproc
	pushl	%ebp
	.cfi_def_cfa_offset 8
	.cfi_offset 5, -8
	movl	%esp, %ebp
	.cfi_def_cfa_register 5
	movl	8(%ebp), %ecx
	testl	%ecx, %ecx
	je	L82
	movl	(%ecx), %eax
	popl	%ebp
	.cfi_remember_state
	.cfi_restore 5
	.cfi_def_cfa 4, 4
	movl	4(%eax), %eax
	jmp	*%eax
L82:
	.cfi_restore_state
	popl	%ebp
	.cfi_restore 5
	.cfi_def_cfa 4, 4
	ret
	.cfi_endproc
LFE10903:
	.section	.text.unlikely._ZN7testing8internalL6DeleteINS_17TestEventListenerEEEvPT_,"x"
LCOLDE38:
	.section	.text$_ZN7testing8internalL6DeleteINS_17TestEventListenerEEEvPT_,"x"
LHOTE38:
	.section	.text.unlikely._ZN7testing8internalL6DeleteINS_8TestCaseEEEvPT_,"x"
LCOLDB39:
	.section	.text$_ZN7testing8internalL6DeleteINS_8TestCaseEEEvPT_,"x"
LHOTB39:
	.def	__ZN7testing8internalL6DeleteINS_8TestCaseEEEvPT_;	.scl	3;	.type	32;	.endef
__ZN7testing8internalL6DeleteINS_8TestCaseEEEvPT_:
LFB10966:
	.cfi_startproc
	pushl	%ebp
	.cfi_def_cfa_offset 8
	.cfi_offset 5, -8
	movl	%esp, %ebp
	.cfi_def_cfa_register 5
	movl	8(%ebp), %ecx
	testl	%ecx, %ecx
	je	L85
	movl	(%ecx), %eax
	popl	%ebp
	.cfi_remember_state
	.cfi_restore 5
	.cfi_def_cfa 4, 4
	movl	4(%eax), %eax
	jmp	*%eax
L85:
	.cfi_restore_state
	popl	%ebp
	.cfi_restore 5
	.cfi_def_cfa 4, 4
	ret
	.cfi_endproc
LFE10966:
	.section	.text.unlikely._ZN7testing8internalL6DeleteINS_8TestCaseEEEvPT_,"x"
LCOLDE39:
	.section	.text$_ZN7testing8internalL6DeleteINS_8TestCaseEEEvPT_,"x"
LHOTE39:
	.section	.text.unlikely._ZN7testing8internalL6DeleteINS_11EnvironmentEEEvPT_,"x"
LCOLDB40:
	.section	.text$_ZN7testing8internalL6DeleteINS_11EnvironmentEEEvPT_,"x"
LHOTB40:
	.def	__ZN7testing8internalL6DeleteINS_11EnvironmentEEEvPT_;	.scl	3;	.type	32;	.endef
__ZN7testing8internalL6DeleteINS_11EnvironmentEEEvPT_:
LFB10967:
	.cfi_startproc
	pushl	%ebp
	.cfi_def_cfa_offset 8
	.cfi_offset 5, -8
	movl	%esp, %ebp
	.cfi_def_cfa_register 5
	movl	8(%ebp), %ecx
	testl	%ecx, %ecx
	je	L88
	movl	(%ecx), %eax
	popl	%ebp
	.cfi_remember_state
	.cfi_restore 5
	.cfi_def_cfa 4, 4
	movl	4(%eax), %eax
	jmp	*%eax
L88:
	.cfi_restore_state
	popl	%ebp
	.cfi_restore 5
	.cfi_def_cfa 4, 4
	ret
	.cfi_endproc
LFE10967:
	.section	.text.unlikely._ZN7testing8internalL6DeleteINS_11EnvironmentEEEvPT_,"x"
LCOLDE40:
	.section	.text$_ZN7testing8internalL6DeleteINS_11EnvironmentEEEvPT_,"x"
LHOTE40:
	.section	.text$_ZN7testing8internal23DefaultDeathTestFactoryD1Ev,"x"
	.linkonce discard
	.align 2
LCOLDB41:
LHOTB41:
	.align 2
	.globl	__ZN7testing8internal23DefaultDeathTestFactoryD1Ev
	.def	__ZN7testing8internal23DefaultDeathTestFactoryD1Ev;	.scl	2;	.type	32;	.endef
__ZN7testing8internal23DefaultDeathTestFactoryD1Ev:
LFB12485:
	.cfi_startproc
	pushl	%ebp
	.cfi_def_cfa_offset 8
	.cfi_offset 5, -8
	movl	%esp, %ebp
	.cfi_def_cfa_register 5
	popl	%ebp
	.cfi_restore 5
	.cfi_def_cfa 4, 4
	ret
	.cfi_endproc
LFE12485:
LCOLDE41:
LHOTE41:
	.section	.text$_ZN7testing8internal18OsStackTraceGetterD1Ev,"x"
	.linkonce discard
	.align 2
LCOLDB42:
LHOTB42:
	.align 2
	.globl	__ZN7testing8internal18OsStackTraceGetterD1Ev
	.def	__ZN7testing8internal18OsStackTraceGetterD1Ev;	.scl	2;	.type	32;	.endef
__ZN7testing8internal18OsStackTraceGetterD1Ev:
LFB12493:
	.cfi_startproc
	pushl	%ebp
	.cfi_def_cfa_offset 8
	.cfi_offset 5, -8
	movl	%esp, %ebp
	.cfi_def_cfa_register 5
	popl	%ebp
	.cfi_restore 5
	.cfi_def_cfa 4, 4
	ret
	.cfi_endproc
LFE12493:
LCOLDE42:
LHOTE42:
	.section	.text$_ZN7testing8internal27PrettyUnitTestResultPrinterD1Ev,"x"
	.linkonce discard
	.align 2
LCOLDB43:
LHOTB43:
	.align 2
	.globl	__ZN7testing8internal27PrettyUnitTestResultPrinterD1Ev
	.def	__ZN7testing8internal27PrettyUnitTestResultPrinterD1Ev;	.scl	2;	.type	32;	.endef
__ZN7testing8internal27PrettyUnitTestResultPrinterD1Ev:
LFB12501:
	.cfi_startproc
	pushl	%ebp
	.cfi_def_cfa_offset 8
	.cfi_offset 5, -8
	movl	%esp, %ebp
	.cfi_def_cfa_register 5
	popl	%ebp
	.cfi_restore 5
	.cfi_def_cfa 4, 4
	ret
	.cfi_endproc
LFE12501:
LCOLDE43:
LHOTE43:
	.section	.text$_ZN7testing8internal38DefaultPerThreadTestPartResultReporterD1Ev,"x"
	.linkonce discard
	.align 2
LCOLDB44:
LHOTB44:
	.align 2
	.globl	__ZN7testing8internal38DefaultPerThreadTestPartResultReporterD1Ev
	.def	__ZN7testing8internal38DefaultPerThreadTestPartResultReporterD1Ev;	.scl	2;	.type	32;	.endef
__ZN7testing8internal38DefaultPerThreadTestPartResultReporterD1Ev:
LFB12505:
	.cfi_startproc
	pushl	%ebp
	.cfi_def_cfa_offset 8
	.cfi_offset 5, -8
	movl	%esp, %ebp
	.cfi_def_cfa_register 5
	popl	%ebp
	.cfi_restore 5
	.cfi_def_cfa 4, 4
	ret
	.cfi_endproc
LFE12505:
LCOLDE44:
LHOTE44:
	.section	.text$_ZN7testing8internal35DefaultGlobalTestPartResultReporterD1Ev,"x"
	.linkonce discard
	.align 2
LCOLDB45:
LHOTB45:
	.align 2
	.globl	__ZN7testing8internal35DefaultGlobalTestPartResultReporterD1Ev
	.def	__ZN7testing8internal35DefaultGlobalTestPartResultReporterD1Ev;	.scl	2;	.type	32;	.endef
__ZN7testing8internal35DefaultGlobalTestPartResultReporterD1Ev:
LFB12509:
	.cfi_startproc
	pushl	%ebp
	.cfi_def_cfa_offset 8
	.cfi_offset 5, -8
	movl	%esp, %ebp
	.cfi_def_cfa_register 5
	popl	%ebp
	.cfi_restore 5
	.cfi_def_cfa 4, 4
	ret
	.cfi_endproc
LFE12509:
LCOLDE45:
LHOTE45:
	.section	.text.unlikely.__tcf_2,"x"
LCOLDB46:
	.section	.text$__tcf_2,"x"
LHOTB46:
	.def	___tcf_2;	.scl	3;	.type	32;	.endef
___tcf_2:
LFB12513:
	.cfi_startproc
	pushl	%ebp
	.cfi_def_cfa_offset 8
	.cfi_offset 5, -8
	movl	$__ZN7testing17FLAGS_gtest_colorB5cxx11E, %ecx
	movl	%esp, %ebp
	.cfi_def_cfa_register 5
	popl	%ebp
	.cfi_restore 5
	.cfi_def_cfa 4, 4
	jmp	__ZNSt7__cxx1112basic_stringIcSt11char_traitsIcESaIcEE10_M_disposeEv
	.cfi_endproc
LFE12513:
	.section	.text.unlikely.__tcf_2,"x"
LCOLDE46:
	.section	.text$__tcf_2,"x"
LHOTE46:
	.section	.text.unlikely.__tcf_3,"x"
LCOLDB47:
	.section	.text$__tcf_3,"x"
LHOTB47:
	.def	___tcf_3;	.scl	3;	.type	32;	.endef
___tcf_3:
LFB12514:
	.cfi_startproc
	pushl	%ebp
	.cfi_def_cfa_offset 8
	.cfi_offset 5, -8
	movl	$__ZN7testing18FLAGS_gtest_filterB5cxx11E, %ecx
	movl	%esp, %ebp
	.cfi_def_cfa_register 5
	popl	%ebp
	.cfi_restore 5
	.cfi_def_cfa 4, 4
	jmp	__ZNSt7__cxx1112basic_stringIcSt11char_traitsIcESaIcEE10_M_disposeEv
	.cfi_endproc
LFE12514:
	.section	.text.unlikely.__tcf_3,"x"
LCOLDE47:
	.section	.text$__tcf_3,"x"
LHOTE47:
	.section	.text.unlikely.__tcf_4,"x"
LCOLDB48:
	.section	.text$__tcf_4,"x"
LHOTB48:
	.def	___tcf_4;	.scl	3;	.type	32;	.endef
___tcf_4:
LFB12515:
	.cfi_startproc
	pushl	%ebp
	.cfi_def_cfa_offset 8
	.cfi_offset 5, -8
	movl	$__ZN7testing18FLAGS_gtest_outputB5cxx11E, %ecx
	movl	%esp, %ebp
	.cfi_def_cfa_register 5
	popl	%ebp
	.cfi_restore 5
	.cfi_def_cfa 4, 4
	jmp	__ZNSt7__cxx1112basic_stringIcSt11char_traitsIcESaIcEE10_M_disposeEv
	.cfi_endproc
LFE12515:
	.section	.text.unlikely.__tcf_4,"x"
LCOLDE48:
	.section	.text$__tcf_4,"x"
LHOTE48:
	.section	.text.unlikely.__tcf_5,"x"
LCOLDB49:
	.section	.text$__tcf_5,"x"
LHOTB49:
	.def	___tcf_5;	.scl	3;	.type	32;	.endef
___tcf_5:
LFB12516:
	.cfi_startproc
	pushl	%ebp
	.cfi_def_cfa_offset 8
	.cfi_offset 5, -8
	movl	$__ZN7testing28FLAGS_gtest_stream_result_toB5cxx11E, %ecx
	movl	%esp, %ebp
	.cfi_def_cfa_register 5
	popl	%ebp
	.cfi_restore 5
	.cfi_def_cfa 4, 4
	jmp	__ZNSt7__cxx1112basic_stringIcSt11char_traitsIcESaIcEE10_M_disposeEv
	.cfi_endproc
LFE12516:
	.section	.text.unlikely.__tcf_5,"x"
LCOLDE49:
	.section	.text$__tcf_5,"x"
LHOTE49:
	.section	.text.unlikely.__tcf_6,"x"
LCOLDB50:
	.section	.text$__tcf_6,"x"
LHOTB50:
	.def	___tcf_6;	.scl	3;	.type	32;	.endef
___tcf_6:
LFB12517:
	.cfi_startproc
	pushl	%ebp
	.cfi_def_cfa_offset 8
	.cfi_offset 5, -8
	movl	$__ZN7testing8internal17g_executable_pathB5cxx11E, %ecx
	movl	%esp, %ebp
	.cfi_def_cfa_register 5
	popl	%ebp
	.cfi_restore 5
	.cfi_def_cfa 4, 4
	jmp	__ZNSt7__cxx1112basic_stringIcSt11char_traitsIcESaIcEE10_M_disposeEv
	.cfi_endproc
LFE12517:
	.section	.text.unlikely.__tcf_6,"x"
LCOLDE50:
	.section	.text$__tcf_6,"x"
LHOTE50:
	.section	.text.unlikely.__tcf_7,"x"
LCOLDB51:
	.section	.text$__tcf_7,"x"
LHOTB51:
	.def	___tcf_7;	.scl	3;	.type	32;	.endef
___tcf_7:
LFB12518:
	.cfi_startproc
	pushl	%ebp
	.cfi_def_cfa_offset 8
	.cfi_offset 5, -8
	movl	$__ZN7testing28FLAGS_gtest_death_test_styleB5cxx11E, %ecx
	movl	%esp, %ebp
	.cfi_def_cfa_register 5
	popl	%ebp
	.cfi_restore 5
	.cfi_def_cfa 4, 4
	jmp	__ZNSt7__cxx1112basic_stringIcSt11char_traitsIcESaIcEE10_M_disposeEv
	.cfi_endproc
LFE12518:
	.section	.text.unlikely.__tcf_7,"x"
LCOLDE51:
	.section	.text$__tcf_7,"x"
LHOTE51:
	.section	.text.unlikely.__tcf_8,"x"
LCOLDB52:
	.section	.text$__tcf_8,"x"
LHOTB52:
	.def	___tcf_8;	.scl	3;	.type	32;	.endef
___tcf_8:
LFB12519:
	.cfi_startproc
	pushl	%ebp
	.cfi_def_cfa_offset 8
	.cfi_offset 5, -8
	movl	$__ZN7testing8internal35FLAGS_gtest_internal_run_death_testB5cxx11E, %ecx
	movl	%esp, %ebp
	.cfi_def_cfa_register 5
	popl	%ebp
	.cfi_restore 5
	.cfi_def_cfa 4, 4
	jmp	__ZNSt7__cxx1112basic_stringIcSt11char_traitsIcESaIcEE10_M_disposeEv
	.cfi_endproc
LFE12519:
	.section	.text.unlikely.__tcf_8,"x"
LCOLDE52:
	.section	.text$__tcf_8,"x"
LHOTE52:
	.section	.text.unlikely.__tcf_9,"x"
LCOLDB53:
	.section	.text$__tcf_9,"x"
LHOTB53:
	.def	___tcf_9;	.scl	3;	.type	32;	.endef
___tcf_9:
LFB12520:
	.cfi_startproc
	pushl	%ebp
	.cfi_def_cfa_offset 8
	.cfi_offset 5, -8
	movl	$__ZN7testing8internal9DeathTest24last_death_test_message_B5cxx11E, %ecx
	movl	%esp, %ebp
	.cfi_def_cfa_register 5
	popl	%ebp
	.cfi_restore 5
	.cfi_def_cfa 4, 4
	jmp	__ZNSt7__cxx1112basic_stringIcSt11char_traitsIcESaIcEE10_M_disposeEv
	.cfi_endproc
LFE12520:
	.section	.text.unlikely.__tcf_9,"x"
LCOLDE53:
	.section	.text$__tcf_9,"x"
LHOTE53:
	.section	.text.unlikely._ZN7testing8UnitTestD0Ev,"x"
	.align 2
LCOLDB54:
	.section	.text$_ZN7testing8UnitTestD0Ev,"x"
LHOTB54:
	.align 2
	.globl	__ZN7testing8UnitTestD0Ev
	.def	__ZN7testing8UnitTestD0Ev;	.scl	2;	.type	32;	.endef
__ZN7testing8UnitTestD0Ev:
LFB10312:
	.cfi_startproc
	pushl	%ebp
	.cfi_def_cfa_offset 8
	.cfi_offset 5, -8
	movl	%esp, %ebp
	.cfi_def_cfa_register 5
	pushl	%ebx
	.cfi_offset 3, -12
	movl	%ecx, %ebx
	subl	$20, %esp
	call	__ZN7testing8UnitTestD1Ev
	movl	%ebx, (%esp)
	call	__ZdlPv
	addl	$20, %esp
	popl	%ebx
	.cfi_restore 3
	popl	%ebp
	.cfi_restore 5
	.cfi_def_cfa 4, 4
	ret
	.cfi_endproc
LFE10312:
	.section	.text.unlikely._ZN7testing8UnitTestD0Ev,"x"
LCOLDE54:
	.section	.text$_ZN7testing8UnitTestD0Ev,"x"
LHOTE54:
	.section	.text$_ZN7testing22EmptyTestEventListenerD0Ev,"x"
	.linkonce discard
	.align 2
LCOLDB55:
LHOTB55:
	.align 2
	.globl	__ZN7testing22EmptyTestEventListenerD0Ev
	.def	__ZN7testing22EmptyTestEventListenerD0Ev;	.scl	2;	.type	32;	.endef
__ZN7testing22EmptyTestEventListenerD0Ev:
LFB10220:
	.cfi_startproc
	pushl	%ebp
	.cfi_def_cfa_offset 8
	.cfi_offset 5, -8
	movl	%esp, %ebp
	.cfi_def_cfa_register 5
	subl	$24, %esp
	movl	%ecx, (%esp)
	call	__ZdlPv
	leave
	.cfi_restore 5
	.cfi_def_cfa 4, 4
	ret
	.cfi_endproc
LFE10220:
LCOLDE55:
LHOTE55:
	.section	.text$_ZN7testing8internal23DefaultDeathTestFactoryD0Ev,"x"
	.linkonce discard
	.align 2
LCOLDB56:
LHOTB56:
	.align 2
	.globl	__ZN7testing8internal23DefaultDeathTestFactoryD0Ev
	.def	__ZN7testing8internal23DefaultDeathTestFactoryD0Ev;	.scl	2;	.type	32;	.endef
__ZN7testing8internal23DefaultDeathTestFactoryD0Ev:
LFB12486:
	.cfi_startproc
	pushl	%ebp
	.cfi_def_cfa_offset 8
	.cfi_offset 5, -8
	movl	%esp, %ebp
	.cfi_def_cfa_register 5
	subl	$24, %esp
	movl	%ecx, (%esp)
	call	__ZdlPv
	leave
	.cfi_restore 5
	.cfi_def_cfa 4, 4
	ret
	.cfi_endproc
LFE12486:
LCOLDE56:
LHOTE56:
	.section	.text$_ZN7testing8internal18OsStackTraceGetterD0Ev,"x"
	.linkonce discard
	.align 2
LCOLDB57:
LHOTB57:
	.align 2
	.globl	__ZN7testing8internal18OsStackTraceGetterD0Ev
	.def	__ZN7testing8internal18OsStackTraceGetterD0Ev;	.scl	2;	.type	32;	.endef
__ZN7testing8internal18OsStackTraceGetterD0Ev:
LFB12494:
	.cfi_startproc
	pushl	%ebp
	.cfi_def_cfa_offset 8
	.cfi_offset 5, -8
	movl	%esp, %ebp
	.cfi_def_cfa_register 5
	subl	$24, %esp
	movl	%ecx, (%esp)
	call	__ZdlPv
	leave
	.cfi_restore 5
	.cfi_def_cfa 4, 4
	ret
	.cfi_endproc
LFE12494:
LCOLDE57:
LHOTE57:
	.section	.text$_ZN7testing8internal27PrettyUnitTestResultPrinterD0Ev,"x"
	.linkonce discard
	.align 2
LCOLDB58:
LHOTB58:
	.align 2
	.globl	__ZN7testing8internal27PrettyUnitTestResultPrinterD0Ev
	.def	__ZN7testing8internal27PrettyUnitTestResultPrinterD0Ev;	.scl	2;	.type	32;	.endef
__ZN7testing8internal27PrettyUnitTestResultPrinterD0Ev:
LFB12502:
	.cfi_startproc
	pushl	%ebp
	.cfi_def_cfa_offset 8
	.cfi_offset 5, -8
	movl	%esp, %ebp
	.cfi_def_cfa_register 5
	subl	$24, %esp
	movl	%ecx, (%esp)
	call	__ZdlPv
	leave
	.cfi_restore 5
	.cfi_def_cfa 4, 4
	ret
	.cfi_endproc
LFE12502:
LCOLDE58:
LHOTE58:
	.section	.text$_ZN7testing8internal38DefaultPerThreadTestPartResultReporterD0Ev,"x"
	.linkonce discard
	.align 2
LCOLDB59:
LHOTB59:
	.align 2
	.globl	__ZN7testing8internal38DefaultPerThreadTestPartResultReporterD0Ev
	.def	__ZN7testing8internal38DefaultPerThreadTestPartResultReporterD0Ev;	.scl	2;	.type	32;	.endef
__ZN7testing8internal38DefaultPerThreadTestPartResultReporterD0Ev:
LFB12506:
	.cfi_startproc
	pushl	%ebp
	.cfi_def_cfa_offset 8
	.cfi_offset 5, -8
	movl	%esp, %ebp
	.cfi_def_cfa_register 5
	subl	$24, %esp
	movl	%ecx, (%esp)
	call	__ZdlPv
	leave
	.cfi_restore 5
	.cfi_def_cfa 4, 4
	ret
	.cfi_endproc
LFE12506:
LCOLDE59:
LHOTE59:
	.section	.text$_ZN7testing8internal35DefaultGlobalTestPartResultReporterD0Ev,"x"
	.linkonce discard
	.align 2
LCOLDB60:
LHOTB60:
	.align 2
	.globl	__ZN7testing8internal35DefaultGlobalTestPartResultReporterD0Ev
	.def	__ZN7testing8internal35DefaultGlobalTestPartResultReporterD0Ev;	.scl	2;	.type	32;	.endef
__ZN7testing8internal35DefaultGlobalTestPartResultReporterD0Ev:
LFB12510:
	.cfi_startproc
	pushl	%ebp
	.cfi_def_cfa_offset 8
	.cfi_offset 5, -8
	movl	%esp, %ebp
	.cfi_def_cfa_register 5
	subl	$24, %esp
	movl	%ecx, (%esp)
	call	__ZdlPv
	leave
	.cfi_restore 5
	.cfi_def_cfa 4, 4
	ret
	.cfi_endproc
LFE12510:
LCOLDE60:
LHOTE60:
	.section	.text.unlikely._ZL7fprintfP6_iobufPKcz,"x"
LCOLDB61:
	.section	.text$_ZL7fprintfP6_iobufPKcz,"x"
LHOTB61:
	.def	__ZL7fprintfP6_iobufPKcz;	.scl	3;	.type	32;	.endef
__ZL7fprintfP6_iobufPKcz:
LFB604:
	.cfi_startproc
	pushl	%ebp
	.cfi_def_cfa_offset 8
	.cfi_offset 5, -8
	movl	%esp, %ebp
	.cfi_def_cfa_register 5
	subl	$24, %esp
	leal	16(%ebp), %eax
	movl	%eax, 8(%esp)
	movl	12(%ebp), %eax
	movl	%eax, 4(%esp)
	movl	8(%ebp), %eax
	movl	%eax, (%esp)
	call	___mingw_vfprintf
	leave
	.cfi_restore 5
	.cfi_def_cfa 4, 4
	ret
	.cfi_endproc
LFE604:
	.section	.text.unlikely._ZL7fprintfP6_iobufPKcz,"x"
LCOLDE61:
	.section	.text$_ZL7fprintfP6_iobufPKcz,"x"
LHOTE61:
	.section	.text.unlikely._ZL6printfPKcz,"x"
LCOLDB62:
	.section	.text$_ZL6printfPKcz,"x"
LHOTB62:
	.def	__ZL6printfPKcz;	.scl	3;	.type	32;	.endef
__ZL6printfPKcz:
LFB605:
	.cfi_startproc
	pushl	%ebp
	.cfi_def_cfa_offset 8
	.cfi_offset 5, -8
	movl	%esp, %ebp
	.cfi_def_cfa_register 5
	subl	$24, %esp
	leal	12(%ebp), %eax
	movl	%eax, 4(%esp)
	movl	8(%ebp), %eax
	movl	%eax, (%esp)
	call	___mingw_vprintf
	leave
	.cfi_restore 5
	.cfi_def_cfa 4, 4
	ret
	.cfi_endproc
LFE605:
	.section	.text.unlikely._ZL6printfPKcz,"x"
LCOLDE62:
	.section	.text$_ZL6printfPKcz,"x"
LHOTE62:
	.section .rdata,"dr"
LC63:
	.ascii "[  DEATH   ] \0"
	.section	.text.unlikely._ZN7testing8internalL21FormatDeathTestOutputERKNSt7__cxx1112basic_stringIcSt11char_traitsIcESaIcEEE,"x"
LCOLDB64:
	.section	.text$_ZN7testing8internalL21FormatDeathTestOutputERKNSt7__cxx1112basic_stringIcSt11char_traitsIcESaIcEEE,"x"
LHOTB64:
	.def	__ZN7testing8internalL21FormatDeathTestOutputERKNSt7__cxx1112basic_stringIcSt11char_traitsIcESaIcEEE;	.scl	3;	.type	32;	.endef
__ZN7testing8internalL21FormatDeathTestOutputERKNSt7__cxx1112basic_stringIcSt11char_traitsIcESaIcEEE:
LFB10414:
	.cfi_startproc
	pushl	%ebp
	.cfi_def_cfa_offset 8
	.cfi_offset 5, -8
	movl	%esp, %ebp
	.cfi_def_cfa_register 5
	pushl	%edi
	pushl	%esi
	pushl	%ebx
	.cfi_offset 7, -12
	.cfi_offset 6, -16
	.cfi_offset 3, -20
	movl	%eax, %ebx
	leal	8(%eax), %eax
	leal	-48(%ebp), %esi
	xorl	%edi, %edi
	subl	$76, %esp
	movl	%eax, (%ebx)
	movl	$0, 4(%ebx)
	movb	$0, 8(%ebx)
L137:
	movl	%edx, %ecx
	movl	%edi, 4(%esp)
	movl	$10, (%esp)
	movl	%edx, -64(%ebp)
	call	__ZNKSt7__cxx1112basic_stringIcSt11char_traitsIcESaIcEE4findEcj
	pushl	%ecx
	pushl	%ecx
	movl	%ebx, %ecx
	movl	%eax, -60(%ebp)
	movl	$LC63, (%esp)
	call	__ZNSt7__cxx1112basic_stringIcSt11char_traitsIcESaIcEEpLEPKc
	cmpl	$-1, -60(%ebp)
	pushl	%eax
	movl	-64(%ebp), %edx
	je	L139
	movl	-60(%ebp), %eax
	movl	%edx, (%esp)
	movl	%esi, %ecx
	movl	%edi, 4(%esp)
	incl	%eax
	movl	%eax, -60(%ebp)
	subl	%edi, %eax
	movl	%eax, 8(%esp)
	call	__ZNKSt7__cxx1112basic_stringIcSt11char_traitsIcESaIcEE6substrEjj
	subl	$12, %esp
	movl	%ebx, %ecx
	movl	%esi, (%esp)
	call	__ZNSt7__cxx1112basic_stringIcSt11char_traitsIcESaIcEEpLERKS4_
	pushl	%edx
	movl	%esi, %ecx
	call	__ZNSt7__cxx1112basic_stringIcSt11char_traitsIcESaIcEE10_M_disposeEv
	movl	-60(%ebp), %edi
	movl	-64(%ebp), %edx
	jmp	L137
L139:
	movl	%edx, (%esp)
	movl	%esi, %ecx
	movl	%edi, 4(%esp)
	movl	$-1, 8(%esp)
	call	__ZNKSt7__cxx1112basic_stringIcSt11char_traitsIcESaIcEE6substrEjj
	subl	$12, %esp
	movl	%ebx, %ecx
	movl	%esi, (%esp)
	call	__ZNSt7__cxx1112basic_stringIcSt11char_traitsIcESaIcEEpLERKS4_
	pushl	%eax
	movl	%esi, %ecx
	call	__ZNSt7__cxx1112basic_stringIcSt11char_traitsIcESaIcEE10_M_disposeEv
	leal	-12(%ebp), %esp
	movl	%ebx, %eax
	popl	%ebx
	.cfi_restore 3
	popl	%esi
	.cfi_restore 6
	popl	%edi
	.cfi_restore 7
	popl	%ebp
	.cfi_restore 5
	.cfi_def_cfa 4, 4
	ret
	.cfi_endproc
LFE10414:
	.section	.text.unlikely._ZN7testing8internalL21FormatDeathTestOutputERKNSt7__cxx1112basic_stringIcSt11char_traitsIcESaIcEEE,"x"
LCOLDE64:
	.section	.text$_ZN7testing8internalL21FormatDeathTestOutputERKNSt7__cxx1112basic_stringIcSt11char_traitsIcESaIcEEE,"x"
LHOTE64:
	.section	.text.unlikely.__tcf_1,"x"
LCOLDB65:
	.section	.text$__tcf_1,"x"
LHOTB65:
	.def	___tcf_1;	.scl	3;	.type	32;	.endef
___tcf_1:
LFB12512:
	.cfi_startproc
	pushl	%ebp
	.cfi_def_cfa_offset 8
	.cfi_offset 5, -8
	movl	$__ZStL8__ioinit, %ecx
	movl	%esp, %ebp
	.cfi_def_cfa_register 5
	popl	%ebp
	.cfi_restore 5
	.cfi_def_cfa 4, 4
	jmp	__ZNSt8ios_base4InitD1Ev
	.cfi_endproc
LFE12512:
	.section	.text.unlikely.__tcf_1,"x"
LCOLDE65:
	.section	.text$__tcf_1,"x"
LHOTE65:
	.section .rdata,"dr"
LC66:
	.ascii "(null)\0"
	.section	.text.unlikely._ZN7testing7MessagelsIKcEERS0_RKPT_.isra.120,"x"
	.align 2
LCOLDB67:
	.section	.text$_ZN7testing7MessagelsIKcEERS0_RKPT_.isra.120,"x"
LHOTB67:
	.align 2
	.def	__ZN7testing7MessagelsIKcEERS0_RKPT_.isra.120;	.scl	3;	.type	32;	.endef
__ZN7testing7MessagelsIKcEERS0_RKPT_.isra.120:
LFB12682:
	.cfi_startproc
	pushl	%ebp
	.cfi_def_cfa_offset 8
	.cfi_offset 5, -8
	movl	%esp, %ebp
	.cfi_def_cfa_register 5
	pushl	%ebx
	.cfi_offset 3, -12
	movl	%ecx, %ebx
	subl	$20, %esp
	movl	8(%ebp), %edx
	movl	(%ecx), %eax
	testl	%edx, %edx
	jne	L144
	movl	$LC66, 4(%esp)
	jmp	L147
L144:
	movl	%edx, 4(%esp)
L147:
	addl	$8, %eax
	movl	%eax, (%esp)
	call	__ZStlsISt11char_traitsIcEERSt13basic_ostreamIcT_ES5_PKc
	addl	$20, %esp
	movl	%ebx, %eax
	popl	%ebx
	.cfi_restore 3
	popl	%ebp
	.cfi_restore 5
	.cfi_def_cfa 4, 4
	ret	$4
	.cfi_endproc
LFE12682:
	.section	.text.unlikely._ZN7testing7MessagelsIKcEERS0_RKPT_.isra.120,"x"
LCOLDE67:
	.section	.text$_ZN7testing7MessagelsIKcEERS0_RKPT_.isra.120,"x"
LHOTE67:
	.section	.text.unlikely._ZNSt12_Vector_baseIPN7testing8TestCaseESaIS2_EE13_M_deallocateEPS2_j.isra.361,"x"
	.align 2
LCOLDB68:
	.section	.text$_ZNSt12_Vector_baseIPN7testing8TestCaseESaIS2_EE13_M_deallocateEPS2_j.isra.361,"x"
LHOTB68:
	.align 2
	.def	__ZNSt12_Vector_baseIPN7testing8TestCaseESaIS2_EE13_M_deallocateEPS2_j.isra.361;	.scl	3;	.type	32;	.endef
__ZNSt12_Vector_baseIPN7testing8TestCaseESaIS2_EE13_M_deallocateEPS2_j.isra.361:
LFB12923:
	.cfi_startproc
	testl	%eax, %eax
	je	L155
	pushl	%ebp
	.cfi_def_cfa_offset 8
	.cfi_offset 5, -8
	movl	%esp, %ebp
	.cfi_def_cfa_register 5
	subl	$24, %esp
	movl	%eax, (%esp)
	call	__ZdlPv
	leave
	.cfi_restore 5
	.cfi_def_cfa 4, 4
L155:
	ret
	.cfi_endproc
LFE12923:
	.section	.text.unlikely._ZNSt12_Vector_baseIPN7testing8TestCaseESaIS2_EE13_M_deallocateEPS2_j.isra.361,"x"
LCOLDE68:
	.section	.text$_ZNSt12_Vector_baseIPN7testing8TestCaseESaIS2_EE13_M_deallocateEPS2_j.isra.361,"x"
LHOTE68:
	.def	__ZNSt12_Vector_baseIPN7testing8internal29ParameterizedTestCaseInfoBaseESaIS3_EE13_M_deallocateEPS3_j.isra.289;	.scl	3;	.type	32;	.endef
	.set	__ZNSt12_Vector_baseIPN7testing8internal29ParameterizedTestCaseInfoBaseESaIS3_EE13_M_deallocateEPS3_j.isra.289,__ZNSt12_Vector_baseIPN7testing8TestCaseESaIS2_EE13_M_deallocateEPS2_j.isra.361
	.def	__ZNSt12_Vector_baseIN7testing14TestPartResultESaIS1_EE13_M_deallocateEPS1_j.isra.298;	.scl	3;	.type	32;	.endef
	.set	__ZNSt12_Vector_baseIN7testing14TestPartResultESaIS1_EE13_M_deallocateEPS1_j.isra.298,__ZNSt12_Vector_baseIPN7testing8TestCaseESaIS2_EE13_M_deallocateEPS2_j.isra.361
	.def	__ZNSt12_Vector_baseIN7testing12TestPropertyESaIS1_EE13_M_deallocateEPS1_j.isra.305;	.scl	3;	.type	32;	.endef
	.set	__ZNSt12_Vector_baseIN7testing12TestPropertyESaIS1_EE13_M_deallocateEPS1_j.isra.305,__ZNSt12_Vector_baseIPN7testing8TestCaseESaIS2_EE13_M_deallocateEPS2_j.isra.361
	.def	__ZNSt12_Vector_baseINSt7__cxx1112basic_stringIcSt11char_traitsIcESaIcEEESaIS5_EE13_M_deallocateEPS5_j.isra.309;	.scl	3;	.type	32;	.endef
	.set	__ZNSt12_Vector_baseINSt7__cxx1112basic_stringIcSt11char_traitsIcESaIcEEESaIS5_EE13_M_deallocateEPS5_j.isra.309,__ZNSt12_Vector_baseIPN7testing8TestCaseESaIS2_EE13_M_deallocateEPS2_j.isra.361
	.def	__ZNSt12_Vector_baseIPN7testing8TestInfoESaIS2_EE13_M_deallocateEPS2_j.isra.323;	.scl	3;	.type	32;	.endef
	.set	__ZNSt12_Vector_baseIPN7testing8TestInfoESaIS2_EE13_M_deallocateEPS2_j.isra.323,__ZNSt12_Vector_baseIPN7testing8TestCaseESaIS2_EE13_M_deallocateEPS2_j.isra.361
	.def	__ZNSt12_Vector_baseIiSaIiEE13_M_deallocateEPij.isra.331;	.scl	3;	.type	32;	.endef
	.set	__ZNSt12_Vector_baseIiSaIiEE13_M_deallocateEPij.isra.331,__ZNSt12_Vector_baseIPN7testing8TestCaseESaIS2_EE13_M_deallocateEPS2_j.isra.361
	.def	__ZNSt12_Vector_baseIPN7testing17TestEventListenerESaIS2_EE13_M_deallocateEPS2_j.isra.339;	.scl	3;	.type	32;	.endef
	.set	__ZNSt12_Vector_baseIPN7testing17TestEventListenerESaIS2_EE13_M_deallocateEPS2_j.isra.339,__ZNSt12_Vector_baseIPN7testing8TestCaseESaIS2_EE13_M_deallocateEPS2_j.isra.361
	.def	__ZNSt12_Vector_baseIPN7testing11EnvironmentESaIS2_EE13_M_deallocateEPS2_j.isra.346;	.scl	3;	.type	32;	.endef
	.set	__ZNSt12_Vector_baseIPN7testing11EnvironmentESaIS2_EE13_M_deallocateEPS2_j.isra.346,__ZNSt12_Vector_baseIPN7testing8TestCaseESaIS2_EE13_M_deallocateEPS2_j.isra.361
	.def	__ZNSt12_Vector_baseIN7testing8internal9TraceInfoESaIS2_EE13_M_deallocateEPS2_j.isra.351;	.scl	3;	.type	32;	.endef
	.set	__ZNSt12_Vector_baseIN7testing8internal9TraceInfoESaIS2_EE13_M_deallocateEPS2_j.isra.351,__ZNSt12_Vector_baseIPN7testing8TestCaseESaIS2_EE13_M_deallocateEPS2_j.isra.361
	.section .rdata,"dr"
LC69:
	.ascii "basic_string::_M_construct null not valid\0"
	.section	.text.unlikely._ZNSt7__cxx1112basic_stringIcSt11char_traitsIcESaIcEE12_M_constructIPcEEvT_S7_St20forward_iterator_tag.isra.409,"x"
	.align 2
LCOLDB70:
	.section	.text$_ZNSt7__cxx1112basic_stringIcSt11char_traitsIcESaIcEE12_M_constructIPcEEvT_S7_St20forward_iterator_tag.isra.409,"x"
LHOTB70:
	.align 2
	.def	__ZNSt7__cxx1112basic_stringIcSt11char_traitsIcESaIcEE12_M_constructIPcEEvT_S7_St20forward_iterator_tag.isra.409;	.scl	3;	.type	32;	.endef
__ZNSt7__cxx1112basic_stringIcSt11char_traitsIcESaIcEE12_M_constructIPcEEvT_S7_St20forward_iterator_tag.isra.409:
LFB12971:
	.cfi_startproc
	pushl	%ebp
	.cfi_def_cfa_offset 8
	.cfi_offset 5, -8
	movl	%esp, %ebp
	.cfi_def_cfa_register 5
	pushl	%edi
	pushl	%esi
	pushl	%ebx
	.cfi_offset 7, -12
	.cfi_offset 6, -16
	.cfi_offset 3, -20
	movl	%ecx, %ebx
	subl	$44, %esp
	movl	8(%ebp), %esi
	movl	12(%ebp), %edi
	testl	%esi, %esi
	jne	L159
	testl	%edi, %edi
	jne	L157
L159:
	movl	%edi, %eax
	subl	%esi, %eax
	cmpl	$15, %eax
	movl	%eax, -28(%ebp)
	jbe	L161
	leal	-28(%ebp), %eax
	movl	$0, 4(%esp)
	movl	%ebx, %ecx
	movl	%eax, (%esp)
	call	__ZNSt7__cxx1112basic_stringIcSt11char_traitsIcESaIcEE9_M_createERjj
	movl	%eax, (%ebx)
	movl	-28(%ebp), %eax
	pushl	%edx
	pushl	%edx
	movl	%eax, 8(%ebx)
L161:
	movl	(%ebx), %eax
	movl	%edi, 8(%esp)
	movl	%esi, 4(%esp)
	movl	%eax, (%esp)
	call	__ZNSt7__cxx1112basic_stringIcSt11char_traitsIcESaIcEE13_S_copy_charsEPcS5_S5_
	movl	-28(%ebp), %eax
	movl	(%ebx), %edx
	movl	%eax, 4(%ebx)
	movb	$0, (%edx,%eax)
	leal	-12(%ebp), %esp
	popl	%ebx
	.cfi_remember_state
	.cfi_restore 3
	popl	%esi
	.cfi_restore 6
	popl	%edi
	.cfi_restore 7
	popl	%ebp
	.cfi_restore 5
	.cfi_def_cfa 4, 4
	ret	$8
L157:
	.cfi_restore_state
	movl	$LC69, (%esp)
	call	__ZSt19__throw_logic_errorPKc
	.cfi_endproc
LFE12971:
	.section	.text.unlikely._ZNSt7__cxx1112basic_stringIcSt11char_traitsIcESaIcEE12_M_constructIPcEEvT_S7_St20forward_iterator_tag.isra.409,"x"
LCOLDE70:
	.section	.text$_ZNSt7__cxx1112basic_stringIcSt11char_traitsIcESaIcEE12_M_constructIPcEEvT_S7_St20forward_iterator_tag.isra.409,"x"
LHOTE70:
	.def	__ZNSt7__cxx1112basic_stringIcSt11char_traitsIcESaIcEE12_M_constructIPKcEEvT_S8_St20forward_iterator_tag.isra.400;	.scl	3;	.type	32;	.endef
	.set	__ZNSt7__cxx1112basic_stringIcSt11char_traitsIcESaIcEE12_M_constructIPKcEEvT_S8_St20forward_iterator_tag.isra.400,__ZNSt7__cxx1112basic_stringIcSt11char_traitsIcESaIcEE12_M_constructIPcEEvT_S7_St20forward_iterator_tag.isra.409
	.section	.text.unlikely._ZNSt7__cxx1112basic_stringIcSt11char_traitsIcESaIcEEC2EPKcRKS3_.isra.402,"x"
	.align 2
LCOLDB71:
	.section	.text$_ZNSt7__cxx1112basic_stringIcSt11char_traitsIcESaIcEEC2EPKcRKS3_.isra.402,"x"
LHOTB71:
	.align 2
	.def	__ZNSt7__cxx1112basic_stringIcSt11char_traitsIcESaIcEEC2EPKcRKS3_.isra.402;	.scl	3;	.type	32;	.endef
__ZNSt7__cxx1112basic_stringIcSt11char_traitsIcESaIcEEC2EPKcRKS3_.isra.402:
LFB12964:
	.cfi_startproc
	pushl	%ebp
	.cfi_def_cfa_offset 8
	.cfi_offset 5, -8
	leal	8(%ecx), %eax
	movl	%esp, %ebp
	.cfi_def_cfa_register 5
	pushl	%edi
	pushl	%ebx
	.cfi_offset 7, -12
	.cfi_offset 3, -16
	movl	%ecx, %ebx
	subl	$16, %esp
	movl	8(%ebp), %edx
	movl	%eax, (%ecx)
	orl	$-1, %eax
	testl	%edx, %edx
	je	L168
	xorl	%eax, %eax
	orl	$-1, %ecx
	movl	%edx, %edi
	repnz scasb
	notl	%ecx
	leal	-1(%edx,%ecx), %eax
L168:
	movl	%eax, 4(%esp)
	movl	%ebx, %ecx
	movl	%edx, (%esp)
	call	__ZNSt7__cxx1112basic_stringIcSt11char_traitsIcESaIcEE12_M_constructIPKcEEvT_S8_St20forward_iterator_tag.isra.400
	pushl	%eax
	pushl	%eax
	leal	-8(%ebp), %esp
	popl	%ebx
	.cfi_restore 3
	popl	%edi
	.cfi_restore 7
	popl	%ebp
	.cfi_restore 5
	.cfi_def_cfa 4, 4
	ret	$4
	.cfi_endproc
LFE12964:
	.section	.text.unlikely._ZNSt7__cxx1112basic_stringIcSt11char_traitsIcESaIcEEC2EPKcRKS3_.isra.402,"x"
LCOLDE71:
	.section	.text$_ZNSt7__cxx1112basic_stringIcSt11char_traitsIcESaIcEEC2EPKcRKS3_.isra.402,"x"
LHOTE71:
	.section .rdata,"dr"
LC72:
	.ascii "\0"
	.section	.text.unlikely._ZN7testing8internal18OsStackTraceGetter17CurrentStackTraceB5cxx11Eii,"x"
	.align 2
LCOLDB73:
	.section	.text$_ZN7testing8internal18OsStackTraceGetter17CurrentStackTraceB5cxx11Eii,"x"
LHOTB73:
	.align 2
	.globl	__ZN7testing8internal18OsStackTraceGetter17CurrentStackTraceB5cxx11Eii
	.def	__ZN7testing8internal18OsStackTraceGetter17CurrentStackTraceB5cxx11Eii;	.scl	2;	.type	32;	.endef
__ZN7testing8internal18OsStackTraceGetter17CurrentStackTraceB5cxx11Eii:
LFB10246:
	.cfi_startproc
	pushl	%ebp
	.cfi_def_cfa_offset 8
	.cfi_offset 5, -8
	movl	%esp, %ebp
	.cfi_def_cfa_register 5
	pushl	%ebx
	.cfi_offset 3, -12
	movl	%ecx, %ebx
	subl	$20, %esp
	movl	$LC72, (%esp)
	call	__ZNSt7__cxx1112basic_stringIcSt11char_traitsIcESaIcEEC2EPKcRKS3_.isra.402
	pushl	%eax
	movl	%ebx, %eax
	movl	-4(%ebp), %ebx
	leave
	.cfi_restore 5
	.cfi_restore 3
	.cfi_def_cfa 4, 4
	ret	$12
	.cfi_endproc
LFE10246:
	.section	.text.unlikely._ZN7testing8internal18OsStackTraceGetter17CurrentStackTraceB5cxx11Eii,"x"
LCOLDE73:
	.section	.text$_ZN7testing8internal18OsStackTraceGetter17CurrentStackTraceB5cxx11Eii,"x"
LHOTE73:
	.section	.text.unlikely._ZNSt12_Vector_baseIiSaIiEE11_M_allocateEj.isra.499,"x"
	.align 2
LCOLDB74:
	.section	.text$_ZNSt12_Vector_baseIiSaIiEE11_M_allocateEj.isra.499,"x"
LHOTB74:
	.align 2
	.def	__ZNSt12_Vector_baseIiSaIiEE11_M_allocateEj.isra.499;	.scl	3;	.type	32;	.endef
__ZNSt12_Vector_baseIiSaIiEE11_M_allocateEj.isra.499:
LFB13061:
	.cfi_startproc
	testl	%eax, %eax
	je	L177
	pushl	%ebp
	.cfi_def_cfa_offset 8
	.cfi_offset 5, -8
	movl	%esp, %ebp
	.cfi_def_cfa_register 5
	subl	$24, %esp
	cmpl	$1073741823, %eax
	jbe	L176
	call	__ZSt17__throw_bad_allocv
L176:
	sall	$2, %eax
	movl	%eax, (%esp)
	call	__Znwj
	leave
	.cfi_restore 5
	.cfi_def_cfa 4, 4
	ret
L177:
	xorl	%eax, %eax
	ret
	.cfi_endproc
LFE13061:
	.section	.text.unlikely._ZNSt12_Vector_baseIiSaIiEE11_M_allocateEj.isra.499,"x"
LCOLDE74:
	.section	.text$_ZNSt12_Vector_baseIiSaIiEE11_M_allocateEj.isra.499,"x"
LHOTE74:
	.def	__ZNSt12_Vector_baseIPN7testing8TestInfoESaIS2_EE11_M_allocateEj.isra.454;	.scl	3;	.type	32;	.endef
	.set	__ZNSt12_Vector_baseIPN7testing8TestInfoESaIS2_EE11_M_allocateEj.isra.454,__ZNSt12_Vector_baseIiSaIiEE11_M_allocateEj.isra.499
	.def	__ZNSt12_Vector_baseIPN7testing17TestEventListenerESaIS2_EE11_M_allocateEj.isra.461;	.scl	3;	.type	32;	.endef
	.set	__ZNSt12_Vector_baseIPN7testing17TestEventListenerESaIS2_EE11_M_allocateEj.isra.461,__ZNSt12_Vector_baseIiSaIiEE11_M_allocateEj.isra.499
	.def	__ZNSt12_Vector_baseIPN7testing11EnvironmentESaIS2_EE11_M_allocateEj.isra.468;	.scl	3;	.type	32;	.endef
	.set	__ZNSt12_Vector_baseIPN7testing11EnvironmentESaIS2_EE11_M_allocateEj.isra.468,__ZNSt12_Vector_baseIiSaIiEE11_M_allocateEj.isra.499
	.def	__ZNSt12_Vector_baseIPN7testing8TestCaseESaIS2_EE11_M_allocateEj.isra.485;	.scl	3;	.type	32;	.endef
	.set	__ZNSt12_Vector_baseIPN7testing8TestCaseESaIS2_EE11_M_allocateEj.isra.485,__ZNSt12_Vector_baseIiSaIiEE11_M_allocateEj.isra.499
	.section .rdata,"dr"
LC75:
	.ascii "...\0"
LC76:
	.ascii "\\n\0"
LC77:
	.ascii "%c\0"
	.section	.text.unlikely._ZN7testing8internalL14PrintOnOneLineEPKci.constprop.577,"x"
LCOLDB78:
	.section	.text$_ZN7testing8internalL14PrintOnOneLineEPKci.constprop.577,"x"
LHOTB78:
	.def	__ZN7testing8internalL14PrintOnOneLineEPKci.constprop.577;	.scl	3;	.type	32;	.endef
__ZN7testing8internalL14PrintOnOneLineEPKci.constprop.577:
LFB13183:
	.cfi_startproc
	testl	%eax, %eax
	je	L195
	pushl	%ebp
	.cfi_def_cfa_offset 8
	.cfi_offset 5, -8
	movl	%esp, %ebp
	.cfi_def_cfa_register 5
	pushl	%esi
	pushl	%ebx
	.cfi_offset 6, -12
	.cfi_offset 3, -16
	movl	%eax, %esi
	xorl	%ebx, %ebx
	subl	$16, %esp
L186:
	movsbl	(%esi), %eax
	testb	%al, %al
	je	L180
	cmpl	$249, %ebx
	jle	L182
	movl	$LC75, (%esp)
	call	__ZL6printfPKcz
	jmp	L180
L182:
	cmpb	$10, %al
	jne	L184
	movl	$LC76, (%esp)
	addl	$2, %ebx
	call	__ZL6printfPKcz
	jmp	L185
L184:
	movl	%eax, 4(%esp)
	movl	$LC77, (%esp)
	incl	%ebx
	call	__ZL6printfPKcz
L185:
	incl	%esi
	jmp	L186
L180:
	addl	$16, %esp
	popl	%ebx
	.cfi_restore 3
	popl	%esi
	.cfi_restore 6
	popl	%ebp
	.cfi_restore 5
	.cfi_def_cfa 4, 4
L195:
	ret
	.cfi_endproc
LFE13183:
	.section	.text.unlikely._ZN7testing8internalL14PrintOnOneLineEPKci.constprop.577,"x"
LCOLDE78:
	.section	.text$_ZN7testing8internalL14PrintOnOneLineEPKci.constprop.577,"x"
LHOTE78:
	.section	.text.unlikely._ZN7testing8internal17TestEventRepeaterD2Ev,"x"
	.align 2
LCOLDB79:
	.section	.text$_ZN7testing8internal17TestEventRepeaterD2Ev,"x"
LHOTB79:
	.align 2
	.globl	__ZN7testing8internal17TestEventRepeaterD2Ev
	.def	__ZN7testing8internal17TestEventRepeaterD2Ev;	.scl	2;	.type	32;	.endef
__ZN7testing8internal17TestEventRepeaterD2Ev:
LFB10191:
	.cfi_startproc
	pushl	%ebp
	.cfi_def_cfa_offset 8
	.cfi_offset 5, -8
	movl	%esp, %ebp
	.cfi_def_cfa_register 5
	pushl	%edi
	pushl	%esi
	pushl	%ebx
	.cfi_offset 7, -12
	.cfi_offset 6, -16
	.cfi_offset 3, -20
	movl	%ecx, %ebx
	subl	$28, %esp
	movl	12(%ecx), %edi
	movl	8(%ecx), %esi
	movl	$__ZTVN7testing8internal17TestEventRepeaterE+8, (%ecx)
L198:
	cmpl	%esi, %edi
	je	L197
	movl	(%esi), %eax
	addl	$4, %esi
	movl	%eax, (%esp)
	call	__ZN7testing8internalL6DeleteINS_17TestEventListenerEEEvPT_
	jmp	L198
L197:
	movl	8(%ebx), %eax
	addl	$28, %esp
	popl	%ebx
	.cfi_restore 3
	popl	%esi
	.cfi_restore 6
	popl	%edi
	.cfi_restore 7
	popl	%ebp
	.cfi_restore 5
	.cfi_def_cfa 4, 4
	jmp	__ZNSt12_Vector_baseIPN7testing17TestEventListenerESaIS2_EE13_M_deallocateEPS2_j.isra.339
	.cfi_endproc
LFE10191:
	.section	.text.unlikely._ZN7testing8internal17TestEventRepeaterD2Ev,"x"
LCOLDE79:
	.section	.text$_ZN7testing8internal17TestEventRepeaterD2Ev,"x"
LHOTE79:
	.globl	__ZN7testing8internal17TestEventRepeaterD1Ev
	.def	__ZN7testing8internal17TestEventRepeaterD1Ev;	.scl	2;	.type	32;	.endef
	.set	__ZN7testing8internal17TestEventRepeaterD1Ev,__ZN7testing8internal17TestEventRepeaterD2Ev
	.section	.text.unlikely._ZN7testing8internal17TestEventRepeaterD0Ev,"x"
	.align 2
LCOLDB80:
	.section	.text$_ZN7testing8internal17TestEventRepeaterD0Ev,"x"
LHOTB80:
	.align 2
	.globl	__ZN7testing8internal17TestEventRepeaterD0Ev
	.def	__ZN7testing8internal17TestEventRepeaterD0Ev;	.scl	2;	.type	32;	.endef
__ZN7testing8internal17TestEventRepeaterD0Ev:
LFB10193:
	.cfi_startproc
	pushl	%ebp
	.cfi_def_cfa_offset 8
	.cfi_offset 5, -8
	movl	%esp, %ebp
	.cfi_def_cfa_register 5
	pushl	%ebx
	.cfi_offset 3, -12
	movl	%ecx, %ebx
	subl	$20, %esp
	call	__ZN7testing8internal17TestEventRepeaterD1Ev
	movl	%ebx, (%esp)
	call	__ZdlPv
	addl	$20, %esp
	popl	%ebx
	.cfi_restore 3
	popl	%ebp
	.cfi_restore 5
	.cfi_def_cfa 4, 4
	ret
	.cfi_endproc
LFE10193:
	.section	.text.unlikely._ZN7testing8internal17TestEventRepeaterD0Ev,"x"
LCOLDE80:
	.section	.text$_ZN7testing8internal17TestEventRepeaterD0Ev,"x"
LHOTE80:
	.section	.text.unlikely._ZN7testing8internalL19SumOverTestCaseListERKSt6vectorIPNS_8TestCaseESaIS3_EEMS2_KFivE.constprop.592,"x"
LCOLDB81:
	.section	.text$_ZN7testing8internalL19SumOverTestCaseListERKSt6vectorIPNS_8TestCaseESaIS3_EEMS2_KFivE.constprop.592,"x"
LHOTB81:
	.def	__ZN7testing8internalL19SumOverTestCaseListERKSt6vectorIPNS_8TestCaseESaIS3_EEMS2_KFivE.constprop.592;	.scl	3;	.type	32;	.endef
__ZN7testing8internalL19SumOverTestCaseListERKSt6vectorIPNS_8TestCaseESaIS3_EEMS2_KFivE.constprop.592:
LFB13168:
	.cfi_startproc
	pushl	%ebp
	.cfi_def_cfa_offset 8
	.cfi_offset 5, -8
	movl	%esp, %ebp
	.cfi_def_cfa_register 5
	pushl	%edi
	.cfi_offset 7, -12
	movl	%eax, %edi
	pushl	%esi
	movl	%edx, %eax
	pushl	%ebx
	andl	$1, %eax
	.cfi_offset 6, -16
	.cfi_offset 3, -20
	xorl	%ebx, %ebx
	xorl	%esi, %esi
	subl	$28, %esp
	movl	%eax, -28(%ebp)
L205:
	movl	(%edi), %ecx
	movl	4(%edi), %eax
	subl	%ecx, %eax
	sarl	$2, %eax
	cmpl	%ebx, %eax
	jbe	L203
	cmpl	$0, -28(%ebp)
	movl	(%ecx,%ebx,4), %ecx
	movl	%edx, %eax
	je	L204
	movl	(%ecx), %eax
	movl	-1(%eax,%edx), %eax
L204:
	movl	%edx, -32(%ebp)
	incl	%ebx
	call	*%eax
	movl	-32(%ebp), %edx
	addl	%eax, %esi
	jmp	L205
L203:
	addl	$28, %esp
	movl	%esi, %eax
	popl	%ebx
	.cfi_restore 3
	popl	%esi
	.cfi_restore 6
	popl	%edi
	.cfi_restore 7
	popl	%ebp
	.cfi_restore 5
	.cfi_def_cfa 4, 4
	ret
	.cfi_endproc
LFE13168:
	.section	.text.unlikely._ZN7testing8internalL19SumOverTestCaseListERKSt6vectorIPNS_8TestCaseESaIS3_EEMS2_KFivE.constprop.592,"x"
LCOLDE81:
	.section	.text$_ZN7testing8internalL19SumOverTestCaseListERKSt6vectorIPNS_8TestCaseESaIS3_EEMS2_KFivE.constprop.592,"x"
LHOTE81:
	.section	.text.unlikely._ZN7testing8internal17TestEventRepeater15OnTestCaseStartERKNS_8TestCaseE,"x"
	.align 2
LCOLDB82:
	.section	.text$_ZN7testing8internal17TestEventRepeater15OnTestCaseStartERKNS_8TestCaseE,"x"
LHOTB82:
	.align 2
	.globl	__ZN7testing8internal17TestEventRepeater15OnTestCaseStartERKNS_8TestCaseE
	.def	__ZN7testing8internal17TestEventRepeater15OnTestCaseStartERKNS_8TestCaseE;	.scl	2;	.type	32;	.endef
__ZN7testing8internal17TestEventRepeater15OnTestCaseStartERKNS_8TestCaseE:
LFB10198:
	.cfi_startproc
	cmpb	$0, 4(%ecx)
	je	L214
	pushl	%ebp
	.cfi_def_cfa_offset 8
	.cfi_offset 5, -8
	movl	%esp, %ebp
	.cfi_def_cfa_register 5
	pushl	%esi
	pushl	%ebx
	.cfi_offset 6, -12
	.cfi_offset 3, -16
	xorl	%esi, %esi
	movl	%ecx, %ebx
	subl	$16, %esp
L211:
	movl	8(%ebx), %edx
	movl	12(%ebx), %eax
	subl	%edx, %eax
	sarl	$2, %eax
	cmpl	%esi, %eax
	jbe	L209
	movl	(%edx,%esi,4), %ecx
	movl	8(%ebp), %edx
	incl	%esi
	movl	(%ecx), %eax
	movl	%edx, (%esp)
	call	*24(%eax)
	pushl	%eax
	jmp	L211
L209:
	leal	-8(%ebp), %esp
	popl	%ebx
	.cfi_restore 3
	popl	%esi
	.cfi_restore 6
	popl	%ebp
	.cfi_restore 5
	.cfi_def_cfa 4, 4
L214:
	ret	$4
	.cfi_endproc
LFE10198:
	.section	.text.unlikely._ZN7testing8internal17TestEventRepeater15OnTestCaseStartERKNS_8TestCaseE,"x"
LCOLDE82:
	.section	.text$_ZN7testing8internal17TestEventRepeater15OnTestCaseStartERKNS_8TestCaseE,"x"
LHOTE82:
	.section	.text.unlikely._ZN7testing8internal17TestEventRepeater18OnTestProgramStartERKNS_8UnitTestE,"x"
	.align 2
LCOLDB83:
	.section	.text$_ZN7testing8internal17TestEventRepeater18OnTestProgramStartERKNS_8UnitTestE,"x"
LHOTB83:
	.align 2
	.globl	__ZN7testing8internal17TestEventRepeater18OnTestProgramStartERKNS_8UnitTestE
	.def	__ZN7testing8internal17TestEventRepeater18OnTestProgramStartERKNS_8UnitTestE;	.scl	2;	.type	32;	.endef
__ZN7testing8internal17TestEventRepeater18OnTestProgramStartERKNS_8UnitTestE:
LFB10196:
	.cfi_startproc
	cmpb	$0, 4(%ecx)
	je	L220
	pushl	%ebp
	.cfi_def_cfa_offset 8
	.cfi_offset 5, -8
	movl	%esp, %ebp
	.cfi_def_cfa_register 5
	pushl	%esi
	pushl	%ebx
	.cfi_offset 6, -12
	.cfi_offset 3, -16
	xorl	%esi, %esi
	movl	%ecx, %ebx
	subl	$16, %esp
L217:
	movl	8(%ebx), %edx
	movl	12(%ebx), %eax
	subl	%edx, %eax
	sarl	$2, %eax
	cmpl	%esi, %eax
	jbe	L215
	movl	(%edx,%esi,4), %ecx
	movl	8(%ebp), %edx
	incl	%esi
	movl	(%ecx), %eax
	movl	%edx, (%esp)
	call	*8(%eax)
	pushl	%eax
	jmp	L217
L215:
	leal	-8(%ebp), %esp
	popl	%ebx
	.cfi_restore 3
	popl	%esi
	.cfi_restore 6
	popl	%ebp
	.cfi_restore 5
	.cfi_def_cfa 4, 4
L220:
	ret	$4
	.cfi_endproc
LFE10196:
	.section	.text.unlikely._ZN7testing8internal17TestEventRepeater18OnTestProgramStartERKNS_8UnitTestE,"x"
LCOLDE83:
	.section	.text$_ZN7testing8internal17TestEventRepeater18OnTestProgramStartERKNS_8UnitTestE,"x"
LHOTE83:
	.section .rdata,"dr"
LC84:
	.ascii "%02X\0"
	.section	.text.unlikely._ZL8snprintfPcjPKcz.constprop.610,"x"
LCOLDB85:
	.section	.text$_ZL8snprintfPcjPKcz.constprop.610,"x"
LHOTB85:
	.def	__ZL8snprintfPcjPKcz.constprop.610;	.scl	3;	.type	32;	.endef
__ZL8snprintfPcjPKcz.constprop.610:
LFB13151:
	.cfi_startproc
	pushl	%ebp
	.cfi_def_cfa_offset 8
	.cfi_offset 5, -8
	movl	%esp, %ebp
	.cfi_def_cfa_register 5
	subl	$24, %esp
	leal	20(%ebp), %eax
	movl	$LC84, 8(%esp)
	movl	$5, 4(%esp)
	movl	%eax, 12(%esp)
	movl	8(%ebp), %eax
	movl	%eax, (%esp)
	call	___mingw_vsnprintf
	leave
	.cfi_restore 5
	.cfi_def_cfa 4, 4
	ret
	.cfi_endproc
LFE13151:
	.section	.text.unlikely._ZL8snprintfPcjPKcz.constprop.610,"x"
LCOLDE85:
	.section	.text$_ZL8snprintfPcjPKcz.constprop.610,"x"
LHOTE85:
	.section	.text.unlikely._ZN7testing12_GLOBAL__N_126PrintByteSegmentInObjectToEPKhjjPSo.constprop.573,"x"
LCOLDB86:
	.section	.text$_ZN7testing12_GLOBAL__N_126PrintByteSegmentInObjectToEPKhjjPSo.constprop.573,"x"
LHOTB86:
	.def	__ZN7testing12_GLOBAL__N_126PrintByteSegmentInObjectToEPKhjjPSo.constprop.573;	.scl	3;	.type	32;	.endef
__ZN7testing12_GLOBAL__N_126PrintByteSegmentInObjectToEPKhjjPSo.constprop.573:
LFB13187:
	.cfi_startproc
	pushl	%ebp
	.cfi_def_cfa_offset 8
	.cfi_offset 5, -8
	addl	%edx, %eax
	movl	%esp, %ebp
	.cfi_def_cfa_register 5
	pushl	%edi
	pushl	%esi
	pushl	%ebx
	.cfi_offset 7, -12
	.cfi_offset 6, -16
	.cfi_offset 3, -20
	leal	-29(%ebp), %esi
	movl	%edx, %edi
	xorl	%ebx, %ebx
	subl	$60, %esp
	movl	%ecx, -44(%ebp)
	movl	$0, -29(%ebp)
	movb	$0, -25(%ebp)
	movl	%eax, -48(%ebp)
L227:
	cmpl	-44(%ebp), %ebx
	je	L223
	testl	%ebx, %ebx
	leal	(%ebx,%edi), %eax
	je	L225
	testb	$1, %al
	jne	L226
	movl	$32, 4(%esp)
	jmp	L232
L226:
	movl	$45, 4(%esp)
L232:
	movl	8(%ebp), %eax
	movl	%eax, (%esp)
	call	__ZStlsISt11char_traitsIcEERSt13basic_ostreamIcT_ES5_c
L225:
	movl	-48(%ebp), %eax
	movzbl	(%eax,%ebx), %eax
	movl	$LC84, 8(%esp)
	incl	%ebx
	movl	$5, 4(%esp)
	movl	%esi, (%esp)
	movl	%eax, 12(%esp)
	call	__ZL8snprintfPcjPKcz.constprop.610
	movl	8(%ebp), %eax
	movl	%esi, 4(%esp)
	movl	%eax, (%esp)
	call	__ZStlsISt11char_traitsIcEERSt13basic_ostreamIcT_ES5_PKc
	jmp	L227
L223:
	addl	$60, %esp
	popl	%ebx
	.cfi_restore 3
	popl	%esi
	.cfi_restore 6
	popl	%edi
	.cfi_restore 7
	popl	%ebp
	.cfi_restore 5
	.cfi_def_cfa 4, 4
	ret
	.cfi_endproc
LFE13187:
	.section	.text.unlikely._ZN7testing12_GLOBAL__N_126PrintByteSegmentInObjectToEPKhjjPSo.constprop.573,"x"
LCOLDE86:
	.section	.text$_ZN7testing12_GLOBAL__N_126PrintByteSegmentInObjectToEPKhjjPSo.constprop.573,"x"
LHOTE86:
	.section	.text.unlikely._ZN7testing8internal17TestEventRepeater18OnTestIterationEndERKNS_8UnitTestEi,"x"
	.align 2
LCOLDB87:
	.section	.text$_ZN7testing8internal17TestEventRepeater18OnTestIterationEndERKNS_8UnitTestEi,"x"
LHOTB87:
	.align 2
	.globl	__ZN7testing8internal17TestEventRepeater18OnTestIterationEndERKNS_8UnitTestEi
	.def	__ZN7testing8internal17TestEventRepeater18OnTestIterationEndERKNS_8UnitTestEi;	.scl	2;	.type	32;	.endef
__ZN7testing8internal17TestEventRepeater18OnTestIterationEndERKNS_8UnitTestEi:
LFB10208:
	.cfi_startproc
	cmpb	$0, 4(%ecx)
	je	L238
	pushl	%ebp
	.cfi_def_cfa_offset 8
	.cfi_offset 5, -8
	movl	%esp, %ebp
	.cfi_def_cfa_register 5
	pushl	%edi
	pushl	%esi
	pushl	%ebx
	.cfi_offset 7, -12
	.cfi_offset 6, -16
	.cfi_offset 3, -20
	movl	%ecx, %esi
	subl	$28, %esp
	movl	12(%ecx), %ebx
	subl	8(%ecx), %ebx
	movl	%ebx, %edi
	sarl	$2, %edi
L239:
	decl	%edi
	subl	$4, %ebx
	testl	%edi, %edi
	js	L233
	movl	8(%esi), %eax
	movl	12(%ebp), %edx
	movl	(%eax,%ebx), %ecx
	movl	(%ecx), %eax
	movl	%edx, 4(%esp)
	movl	8(%ebp), %edx
	movl	%edx, (%esp)
	call	*52(%eax)
	pushl	%eax
	pushl	%eax
	jmp	L239
L233:
	leal	-12(%ebp), %esp
	popl	%ebx
	.cfi_restore 3
	popl	%esi
	.cfi_restore 6
	popl	%edi
	.cfi_restore 7
	popl	%ebp
	.cfi_restore 5
	.cfi_def_cfa 4, 4
L238:
	ret	$8
	.cfi_endproc
LFE10208:
	.section	.text.unlikely._ZN7testing8internal17TestEventRepeater18OnTestIterationEndERKNS_8UnitTestEi,"x"
LCOLDE87:
	.section	.text$_ZN7testing8internal17TestEventRepeater18OnTestIterationEndERKNS_8UnitTestEi,"x"
LHOTE87:
	.section	.text.unlikely._ZN7testing8internal17TestEventRepeater20OnTestIterationStartERKNS_8UnitTestEi,"x"
	.align 2
LCOLDB88:
	.section	.text$_ZN7testing8internal17TestEventRepeater20OnTestIterationStartERKNS_8UnitTestEi,"x"
LHOTB88:
	.align 2
	.globl	__ZN7testing8internal17TestEventRepeater20OnTestIterationStartERKNS_8UnitTestEi
	.def	__ZN7testing8internal17TestEventRepeater20OnTestIterationStartERKNS_8UnitTestEi;	.scl	2;	.type	32;	.endef
__ZN7testing8internal17TestEventRepeater20OnTestIterationStartERKNS_8UnitTestEi:
LFB10207:
	.cfi_startproc
	cmpb	$0, 4(%ecx)
	je	L245
	pushl	%ebp
	.cfi_def_cfa_offset 8
	.cfi_offset 5, -8
	movl	%esp, %ebp
	.cfi_def_cfa_register 5
	pushl	%esi
	pushl	%ebx
	.cfi_offset 6, -12
	.cfi_offset 3, -16
	xorl	%esi, %esi
	movl	%ecx, %ebx
	subl	$16, %esp
L242:
	movl	8(%ebx), %edx
	movl	12(%ebx), %eax
	subl	%edx, %eax
	sarl	$2, %eax
	cmpl	%esi, %eax
	jbe	L240
	movl	(%edx,%esi,4), %ecx
	movl	12(%ebp), %edx
	incl	%esi
	movl	(%ecx), %eax
	movl	%edx, 4(%esp)
	movl	8(%ebp), %edx
	movl	%edx, (%esp)
	call	*12(%eax)
	pushl	%eax
	pushl	%eax
	jmp	L242
L240:
	leal	-8(%ebp), %esp
	popl	%ebx
	.cfi_restore 3
	popl	%esi
	.cfi_restore 6
	popl	%ebp
	.cfi_restore 5
	.cfi_def_cfa 4, 4
L245:
	ret	$8
	.cfi_endproc
LFE10207:
	.section	.text.unlikely._ZN7testing8internal17TestEventRepeater20OnTestIterationStartERKNS_8UnitTestEi,"x"
LCOLDE88:
	.section	.text$_ZN7testing8internal17TestEventRepeater20OnTestIterationStartERKNS_8UnitTestEi,"x"
LHOTE88:
	.section	.text.unlikely._ZN7testing8internal17TestEventRepeater16OnTestProgramEndERKNS_8UnitTestE,"x"
	.align 2
LCOLDB89:
	.section	.text$_ZN7testing8internal17TestEventRepeater16OnTestProgramEndERKNS_8UnitTestE,"x"
LHOTB89:
	.align 2
	.globl	__ZN7testing8internal17TestEventRepeater16OnTestProgramEndERKNS_8UnitTestE
	.def	__ZN7testing8internal17TestEventRepeater16OnTestProgramEndERKNS_8UnitTestE;	.scl	2;	.type	32;	.endef
__ZN7testing8internal17TestEventRepeater16OnTestProgramEndERKNS_8UnitTestE:
LFB10206:
	.cfi_startproc
	cmpb	$0, 4(%ecx)
	je	L251
	pushl	%ebp
	.cfi_def_cfa_offset 8
	.cfi_offset 5, -8
	movl	%esp, %ebp
	.cfi_def_cfa_register 5
	pushl	%edi
	pushl	%esi
	pushl	%ebx
	.cfi_offset 7, -12
	.cfi_offset 6, -16
	.cfi_offset 3, -20
	movl	%ecx, %esi
	subl	$28, %esp
	movl	12(%ecx), %ebx
	subl	8(%ecx), %ebx
	movl	%ebx, %edi
	sarl	$2, %edi
L252:
	decl	%edi
	subl	$4, %ebx
	testl	%edi, %edi
	js	L246
	movl	8(%esi), %eax
	movl	8(%ebp), %edx
	movl	(%eax,%ebx), %ecx
	movl	(%ecx), %eax
	movl	%edx, (%esp)
	call	*56(%eax)
	pushl	%eax
	jmp	L252
L246:
	leal	-12(%ebp), %esp
	popl	%ebx
	.cfi_restore 3
	popl	%esi
	.cfi_restore 6
	popl	%edi
	.cfi_restore 7
	popl	%ebp
	.cfi_restore 5
	.cfi_def_cfa 4, 4
L251:
	ret	$4
	.cfi_endproc
LFE10206:
	.section	.text.unlikely._ZN7testing8internal17TestEventRepeater16OnTestProgramEndERKNS_8UnitTestE,"x"
LCOLDE89:
	.section	.text$_ZN7testing8internal17TestEventRepeater16OnTestProgramEndERKNS_8UnitTestE,"x"
LHOTE89:
	.section	.text.unlikely._ZN7testing8internal17TestEventRepeater13OnTestCaseEndERKNS_8TestCaseE,"x"
	.align 2
LCOLDB90:
	.section	.text$_ZN7testing8internal17TestEventRepeater13OnTestCaseEndERKNS_8TestCaseE,"x"
LHOTB90:
	.align 2
	.globl	__ZN7testing8internal17TestEventRepeater13OnTestCaseEndERKNS_8TestCaseE
	.def	__ZN7testing8internal17TestEventRepeater13OnTestCaseEndERKNS_8TestCaseE;	.scl	2;	.type	32;	.endef
__ZN7testing8internal17TestEventRepeater13OnTestCaseEndERKNS_8TestCaseE:
LFB10205:
	.cfi_startproc
	cmpb	$0, 4(%ecx)
	je	L258
	pushl	%ebp
	.cfi_def_cfa_offset 8
	.cfi_offset 5, -8
	movl	%esp, %ebp
	.cfi_def_cfa_register 5
	pushl	%edi
	pushl	%esi
	pushl	%ebx
	.cfi_offset 7, -12
	.cfi_offset 6, -16
	.cfi_offset 3, -20
	movl	%ecx, %esi
	subl	$28, %esp
	movl	12(%ecx), %ebx
	subl	8(%ecx), %ebx
	movl	%ebx, %edi
	sarl	$2, %edi
L259:
	decl	%edi
	subl	$4, %ebx
	testl	%edi, %edi
	js	L253
	movl	8(%esi), %eax
	movl	8(%ebp), %edx
	movl	(%eax,%ebx), %ecx
	movl	(%ecx), %eax
	movl	%edx, (%esp)
	call	*40(%eax)
	pushl	%eax
	jmp	L259
L253:
	leal	-12(%ebp), %esp
	popl	%ebx
	.cfi_restore 3
	popl	%esi
	.cfi_restore 6
	popl	%edi
	.cfi_restore 7
	popl	%ebp
	.cfi_restore 5
	.cfi_def_cfa 4, 4
L258:
	ret	$4
	.cfi_endproc
LFE10205:
	.section	.text.unlikely._ZN7testing8internal17TestEventRepeater13OnTestCaseEndERKNS_8TestCaseE,"x"
LCOLDE90:
	.section	.text$_ZN7testing8internal17TestEventRepeater13OnTestCaseEndERKNS_8TestCaseE,"x"
LHOTE90:
	.section	.text.unlikely._ZN7testing8internal17TestEventRepeater9OnTestEndERKNS_8TestInfoE,"x"
	.align 2
LCOLDB91:
	.section	.text$_ZN7testing8internal17TestEventRepeater9OnTestEndERKNS_8TestInfoE,"x"
LHOTB91:
	.align 2
	.globl	__ZN7testing8internal17TestEventRepeater9OnTestEndERKNS_8TestInfoE
	.def	__ZN7testing8internal17TestEventRepeater9OnTestEndERKNS_8TestInfoE;	.scl	2;	.type	32;	.endef
__ZN7testing8internal17TestEventRepeater9OnTestEndERKNS_8TestInfoE:
LFB10204:
	.cfi_startproc
	cmpb	$0, 4(%ecx)
	je	L265
	pushl	%ebp
	.cfi_def_cfa_offset 8
	.cfi_offset 5, -8
	movl	%esp, %ebp
	.cfi_def_cfa_register 5
	pushl	%edi
	pushl	%esi
	pushl	%ebx
	.cfi_offset 7, -12
	.cfi_offset 6, -16
	.cfi_offset 3, -20
	movl	%ecx, %esi
	subl	$28, %esp
	movl	12(%ecx), %ebx
	subl	8(%ecx), %ebx
	movl	%ebx, %edi
	sarl	$2, %edi
L266:
	decl	%edi
	subl	$4, %ebx
	testl	%edi, %edi
	js	L260
	movl	8(%esi), %eax
	movl	8(%ebp), %edx
	movl	(%eax,%ebx), %ecx
	movl	(%ecx), %eax
	movl	%edx, (%esp)
	call	*36(%eax)
	pushl	%eax
	jmp	L266
L260:
	leal	-12(%ebp), %esp
	popl	%ebx
	.cfi_restore 3
	popl	%esi
	.cfi_restore 6
	popl	%edi
	.cfi_restore 7
	popl	%ebp
	.cfi_restore 5
	.cfi_def_cfa 4, 4
L265:
	ret	$4
	.cfi_endproc
LFE10204:
	.section	.text.unlikely._ZN7testing8internal17TestEventRepeater9OnTestEndERKNS_8TestInfoE,"x"
LCOLDE91:
	.section	.text$_ZN7testing8internal17TestEventRepeater9OnTestEndERKNS_8TestInfoE,"x"
LHOTE91:
	.section	.text.unlikely._ZN7testing8internal17TestEventRepeater25OnEnvironmentsTearDownEndERKNS_8UnitTestE,"x"
	.align 2
LCOLDB92:
	.section	.text$_ZN7testing8internal17TestEventRepeater25OnEnvironmentsTearDownEndERKNS_8UnitTestE,"x"
LHOTB92:
	.align 2
	.globl	__ZN7testing8internal17TestEventRepeater25OnEnvironmentsTearDownEndERKNS_8UnitTestE
	.def	__ZN7testing8internal17TestEventRepeater25OnEnvironmentsTearDownEndERKNS_8UnitTestE;	.scl	2;	.type	32;	.endef
__ZN7testing8internal17TestEventRepeater25OnEnvironmentsTearDownEndERKNS_8UnitTestE:
LFB10203:
	.cfi_startproc
	cmpb	$0, 4(%ecx)
	je	L272
	pushl	%ebp
	.cfi_def_cfa_offset 8
	.cfi_offset 5, -8
	movl	%esp, %ebp
	.cfi_def_cfa_register 5
	pushl	%edi
	pushl	%esi
	pushl	%ebx
	.cfi_offset 7, -12
	.cfi_offset 6, -16
	.cfi_offset 3, -20
	movl	%ecx, %esi
	subl	$28, %esp
	movl	12(%ecx), %ebx
	subl	8(%ecx), %ebx
	movl	%ebx, %edi
	sarl	$2, %edi
L273:
	decl	%edi
	subl	$4, %ebx
	testl	%edi, %edi
	js	L267
	movl	8(%esi), %eax
	movl	8(%ebp), %edx
	movl	(%eax,%ebx), %ecx
	movl	(%ecx), %eax
	movl	%edx, (%esp)
	call	*48(%eax)
	pushl	%eax
	jmp	L273
L267:
	leal	-12(%ebp), %esp
	popl	%ebx
	.cfi_restore 3
	popl	%esi
	.cfi_restore 6
	popl	%edi
	.cfi_restore 7
	popl	%ebp
	.cfi_restore 5
	.cfi_def_cfa 4, 4
L272:
	ret	$4
	.cfi_endproc
LFE10203:
	.section	.text.unlikely._ZN7testing8internal17TestEventRepeater25OnEnvironmentsTearDownEndERKNS_8UnitTestE,"x"
LCOLDE92:
	.section	.text$_ZN7testing8internal17TestEventRepeater25OnEnvironmentsTearDownEndERKNS_8UnitTestE,"x"
LHOTE92:
	.section	.text.unlikely._ZN7testing8internal17TestEventRepeater22OnEnvironmentsSetUpEndERKNS_8UnitTestE,"x"
	.align 2
LCOLDB93:
	.section	.text$_ZN7testing8internal17TestEventRepeater22OnEnvironmentsSetUpEndERKNS_8UnitTestE,"x"
LHOTB93:
	.align 2
	.globl	__ZN7testing8internal17TestEventRepeater22OnEnvironmentsSetUpEndERKNS_8UnitTestE
	.def	__ZN7testing8internal17TestEventRepeater22OnEnvironmentsSetUpEndERKNS_8UnitTestE;	.scl	2;	.type	32;	.endef
__ZN7testing8internal17TestEventRepeater22OnEnvironmentsSetUpEndERKNS_8UnitTestE:
LFB10202:
	.cfi_startproc
	cmpb	$0, 4(%ecx)
	je	L279
	pushl	%ebp
	.cfi_def_cfa_offset 8
	.cfi_offset 5, -8
	movl	%esp, %ebp
	.cfi_def_cfa_register 5
	pushl	%edi
	pushl	%esi
	pushl	%ebx
	.cfi_offset 7, -12
	.cfi_offset 6, -16
	.cfi_offset 3, -20
	movl	%ecx, %esi
	subl	$28, %esp
	movl	12(%ecx), %ebx
	subl	8(%ecx), %ebx
	movl	%ebx, %edi
	sarl	$2, %edi
L280:
	decl	%edi
	subl	$4, %ebx
	testl	%edi, %edi
	js	L274
	movl	8(%esi), %eax
	movl	8(%ebp), %edx
	movl	(%eax,%ebx), %ecx
	movl	(%ecx), %eax
	movl	%edx, (%esp)
	call	*20(%eax)
	pushl	%eax
	jmp	L280
L274:
	leal	-12(%ebp), %esp
	popl	%ebx
	.cfi_restore 3
	popl	%esi
	.cfi_restore 6
	popl	%edi
	.cfi_restore 7
	popl	%ebp
	.cfi_restore 5
	.cfi_def_cfa 4, 4
L279:
	ret	$4
	.cfi_endproc
LFE10202:
	.section	.text.unlikely._ZN7testing8internal17TestEventRepeater22OnEnvironmentsSetUpEndERKNS_8UnitTestE,"x"
LCOLDE93:
	.section	.text$_ZN7testing8internal17TestEventRepeater22OnEnvironmentsSetUpEndERKNS_8UnitTestE,"x"
LHOTE93:
	.section	.text.unlikely._ZN7testing8internal17TestEventRepeater27OnEnvironmentsTearDownStartERKNS_8UnitTestE,"x"
	.align 2
LCOLDB94:
	.section	.text$_ZN7testing8internal17TestEventRepeater27OnEnvironmentsTearDownStartERKNS_8UnitTestE,"x"
LHOTB94:
	.align 2
	.globl	__ZN7testing8internal17TestEventRepeater27OnEnvironmentsTearDownStartERKNS_8UnitTestE
	.def	__ZN7testing8internal17TestEventRepeater27OnEnvironmentsTearDownStartERKNS_8UnitTestE;	.scl	2;	.type	32;	.endef
__ZN7testing8internal17TestEventRepeater27OnEnvironmentsTearDownStartERKNS_8UnitTestE:
LFB10201:
	.cfi_startproc
	cmpb	$0, 4(%ecx)
	je	L286
	pushl	%ebp
	.cfi_def_cfa_offset 8
	.cfi_offset 5, -8
	movl	%esp, %ebp
	.cfi_def_cfa_register 5
	pushl	%esi
	pushl	%ebx
	.cfi_offset 6, -12
	.cfi_offset 3, -16
	xorl	%esi, %esi
	movl	%ecx, %ebx
	subl	$16, %esp
L283:
	movl	8(%ebx), %edx
	movl	12(%ebx), %eax
	subl	%edx, %eax
	sarl	$2, %eax
	cmpl	%esi, %eax
	jbe	L281
	movl	(%edx,%esi,4), %ecx
	movl	8(%ebp), %edx
	incl	%esi
	movl	(%ecx), %eax
	movl	%edx, (%esp)
	call	*44(%eax)
	pushl	%eax
	jmp	L283
L281:
	leal	-8(%ebp), %esp
	popl	%ebx
	.cfi_restore 3
	popl	%esi
	.cfi_restore 6
	popl	%ebp
	.cfi_restore 5
	.cfi_def_cfa 4, 4
L286:
	ret	$4
	.cfi_endproc
LFE10201:
	.section	.text.unlikely._ZN7testing8internal17TestEventRepeater27OnEnvironmentsTearDownStartERKNS_8UnitTestE,"x"
LCOLDE94:
	.section	.text$_ZN7testing8internal17TestEventRepeater27OnEnvironmentsTearDownStartERKNS_8UnitTestE,"x"
LHOTE94:
	.section	.text.unlikely._ZN7testing8internal17TestEventRepeater16OnTestPartResultERKNS_14TestPartResultE,"x"
	.align 2
LCOLDB95:
	.section	.text$_ZN7testing8internal17TestEventRepeater16OnTestPartResultERKNS_14TestPartResultE,"x"
LHOTB95:
	.align 2
	.globl	__ZN7testing8internal17TestEventRepeater16OnTestPartResultERKNS_14TestPartResultE
	.def	__ZN7testing8internal17TestEventRepeater16OnTestPartResultERKNS_14TestPartResultE;	.scl	2;	.type	32;	.endef
__ZN7testing8internal17TestEventRepeater16OnTestPartResultERKNS_14TestPartResultE:
LFB10200:
	.cfi_startproc
	cmpb	$0, 4(%ecx)
	je	L292
	pushl	%ebp
	.cfi_def_cfa_offset 8
	.cfi_offset 5, -8
	movl	%esp, %ebp
	.cfi_def_cfa_register 5
	pushl	%esi
	pushl	%ebx
	.cfi_offset 6, -12
	.cfi_offset 3, -16
	xorl	%esi, %esi
	movl	%ecx, %ebx
	subl	$16, %esp
L289:
	movl	8(%ebx), %edx
	movl	12(%ebx), %eax
	subl	%edx, %eax
	sarl	$2, %eax
	cmpl	%esi, %eax
	jbe	L287
	movl	(%edx,%esi,4), %ecx
	movl	8(%ebp), %edx
	incl	%esi
	movl	(%ecx), %eax
	movl	%edx, (%esp)
	call	*32(%eax)
	pushl	%eax
	jmp	L289
L287:
	leal	-8(%ebp), %esp
	popl	%ebx
	.cfi_restore 3
	popl	%esi
	.cfi_restore 6
	popl	%ebp
	.cfi_restore 5
	.cfi_def_cfa 4, 4
L292:
	ret	$4
	.cfi_endproc
LFE10200:
	.section	.text.unlikely._ZN7testing8internal17TestEventRepeater16OnTestPartResultERKNS_14TestPartResultE,"x"
LCOLDE95:
	.section	.text$_ZN7testing8internal17TestEventRepeater16OnTestPartResultERKNS_14TestPartResultE,"x"
LHOTE95:
	.section	.text.unlikely._ZN7testing8internal17TestEventRepeater24OnEnvironmentsSetUpStartERKNS_8UnitTestE,"x"
	.align 2
LCOLDB96:
	.section	.text$_ZN7testing8internal17TestEventRepeater24OnEnvironmentsSetUpStartERKNS_8UnitTestE,"x"
LHOTB96:
	.align 2
	.globl	__ZN7testing8internal17TestEventRepeater24OnEnvironmentsSetUpStartERKNS_8UnitTestE
	.def	__ZN7testing8internal17TestEventRepeater24OnEnvironmentsSetUpStartERKNS_8UnitTestE;	.scl	2;	.type	32;	.endef
__ZN7testing8internal17TestEventRepeater24OnEnvironmentsSetUpStartERKNS_8UnitTestE:
LFB10197:
	.cfi_startproc
	cmpb	$0, 4(%ecx)
	je	L298
	pushl	%ebp
	.cfi_def_cfa_offset 8
	.cfi_offset 5, -8
	movl	%esp, %ebp
	.cfi_def_cfa_register 5
	pushl	%esi
	pushl	%ebx
	.cfi_offset 6, -12
	.cfi_offset 3, -16
	xorl	%esi, %esi
	movl	%ecx, %ebx
	subl	$16, %esp
L295:
	movl	8(%ebx), %edx
	movl	12(%ebx), %eax
	subl	%edx, %eax
	sarl	$2, %eax
	cmpl	%esi, %eax
	jbe	L293
	movl	(%edx,%esi,4), %ecx
	movl	8(%ebp), %edx
	incl	%esi
	movl	(%ecx), %eax
	movl	%edx, (%esp)
	call	*16(%eax)
	pushl	%eax
	jmp	L295
L293:
	leal	-8(%ebp), %esp
	popl	%ebx
	.cfi_restore 3
	popl	%esi
	.cfi_restore 6
	popl	%ebp
	.cfi_restore 5
	.cfi_def_cfa 4, 4
L298:
	ret	$4
	.cfi_endproc
LFE10197:
	.section	.text.unlikely._ZN7testing8internal17TestEventRepeater24OnEnvironmentsSetUpStartERKNS_8UnitTestE,"x"
LCOLDE96:
	.section	.text$_ZN7testing8internal17TestEventRepeater24OnEnvironmentsSetUpStartERKNS_8UnitTestE,"x"
LHOTE96:
	.section	.text.unlikely._ZN7testing8internal17TestEventRepeater11OnTestStartERKNS_8TestInfoE,"x"
	.align 2
LCOLDB97:
	.section	.text$_ZN7testing8internal17TestEventRepeater11OnTestStartERKNS_8TestInfoE,"x"
LHOTB97:
	.align 2
	.globl	__ZN7testing8internal17TestEventRepeater11OnTestStartERKNS_8TestInfoE
	.def	__ZN7testing8internal17TestEventRepeater11OnTestStartERKNS_8TestInfoE;	.scl	2;	.type	32;	.endef
__ZN7testing8internal17TestEventRepeater11OnTestStartERKNS_8TestInfoE:
LFB10199:
	.cfi_startproc
	cmpb	$0, 4(%ecx)
	je	L304
	pushl	%ebp
	.cfi_def_cfa_offset 8
	.cfi_offset 5, -8
	movl	%esp, %ebp
	.cfi_def_cfa_register 5
	pushl	%esi
	pushl	%ebx
	.cfi_offset 6, -12
	.cfi_offset 3, -16
	xorl	%esi, %esi
	movl	%ecx, %ebx
	subl	$16, %esp
L301:
	movl	8(%ebx), %edx
	movl	12(%ebx), %eax
	subl	%edx, %eax
	sarl	$2, %eax
	cmpl	%esi, %eax
	jbe	L299
	movl	(%edx,%esi,4), %ecx
	movl	8(%ebp), %edx
	incl	%esi
	movl	(%ecx), %eax
	movl	%edx, (%esp)
	call	*28(%eax)
	pushl	%eax
	jmp	L301
L299:
	leal	-8(%ebp), %esp
	popl	%ebx
	.cfi_restore 3
	popl	%esi
	.cfi_restore 6
	popl	%ebp
	.cfi_restore 5
	.cfi_def_cfa 4, 4
L304:
	ret	$4
	.cfi_endproc
LFE10199:
	.section	.text.unlikely._ZN7testing8internal17TestEventRepeater11OnTestStartERKNS_8TestInfoE,"x"
LCOLDE97:
	.section	.text$_ZN7testing8internal17TestEventRepeater11OnTestStartERKNS_8TestInfoE,"x"
LHOTE97:
	.section	.text.unlikely._ZN7testing8internal10scoped_ptrINSt7__cxx1118basic_stringstreamIcSt11char_traitsIcESaIcEEEED4Ev.isra.151.constprop.635,"x"
	.align 2
LCOLDB98:
	.section	.text$_ZN7testing8internal10scoped_ptrINSt7__cxx1118basic_stringstreamIcSt11char_traitsIcESaIcEEEED4Ev.isra.151.constprop.635,"x"
LHOTB98:
	.align 2
	.def	__ZN7testing8internal10scoped_ptrINSt7__cxx1118basic_stringstreamIcSt11char_traitsIcESaIcEEEED4Ev.isra.151.constprop.635;	.scl	3;	.type	32;	.endef
__ZN7testing8internal10scoped_ptrINSt7__cxx1118basic_stringstreamIcSt11char_traitsIcESaIcEEEED4Ev.isra.151.constprop.635:
LFB13131:
	.cfi_startproc
	pushl	%ebp
	.cfi_def_cfa_offset 8
	.cfi_offset 5, -8
	movl	(%ecx), %ecx
	movl	%esp, %ebp
	.cfi_def_cfa_register 5
	testl	%ecx, %ecx
	je	L305
	movl	(%ecx), %eax
	popl	%ebp
	.cfi_remember_state
	.cfi_restore 5
	.cfi_def_cfa 4, 4
	movl	4(%eax), %eax
	jmp	*%eax
L305:
	.cfi_restore_state
	popl	%ebp
	.cfi_restore 5
	.cfi_def_cfa 4, 4
	ret
	.cfi_endproc
LFE13131:
	.section	.text.unlikely._ZN7testing8internal10scoped_ptrINSt7__cxx1118basic_stringstreamIcSt11char_traitsIcESaIcEEEED4Ev.isra.151.constprop.635,"x"
LCOLDE98:
	.section	.text$_ZN7testing8internal10scoped_ptrINSt7__cxx1118basic_stringstreamIcSt11char_traitsIcESaIcEEEED4Ev.isra.151.constprop.635,"x"
LHOTE98:
	.section	.text.unlikely._ZNSt6vectorINSt7__cxx1112basic_stringIcSt11char_traitsIcESaIcEEESaIS5_EED4Ev.isra.382,"x"
	.align 2
LCOLDB99:
	.section	.text$_ZNSt6vectorINSt7__cxx1112basic_stringIcSt11char_traitsIcESaIcEEESaIS5_EED4Ev.isra.382,"x"
LHOTB99:
	.align 2
	.def	__ZNSt6vectorINSt7__cxx1112basic_stringIcSt11char_traitsIcESaIcEEESaIS5_EED4Ev.isra.382;	.scl	3;	.type	32;	.endef
__ZNSt6vectorINSt7__cxx1112basic_stringIcSt11char_traitsIcESaIcEEESaIS5_EED4Ev.isra.382:
LFB12944:
	.cfi_startproc
	pushl	%ebp
	.cfi_def_cfa_offset 8
	.cfi_offset 5, -8
	movl	%esp, %ebp
	.cfi_def_cfa_register 5
	pushl	%edi
	pushl	%esi
	pushl	%ebx
	.cfi_offset 7, -12
	.cfi_offset 6, -16
	.cfi_offset 3, -20
	movl	%ecx, %esi
	subl	$12, %esp
	movl	4(%ecx), %edi
	movl	(%ecx), %ebx
L310:
	cmpl	%ebx, %edi
	je	L309
	movl	%ebx, %ecx
	addl	$24, %ebx
	call	__ZNSt7__cxx1112basic_stringIcSt11char_traitsIcESaIcEE10_M_disposeEv
	jmp	L310
L309:
	movl	(%esi), %eax
	addl	$12, %esp
	popl	%ebx
	.cfi_restore 3
	popl	%esi
	.cfi_restore 6
	popl	%edi
	.cfi_restore 7
	popl	%ebp
	.cfi_restore 5
	.cfi_def_cfa 4, 4
	jmp	__ZNSt12_Vector_baseINSt7__cxx1112basic_stringIcSt11char_traitsIcESaIcEEESaIS5_EE13_M_deallocateEPS5_j.isra.309
	.cfi_endproc
LFE12944:
	.section	.text.unlikely._ZNSt6vectorINSt7__cxx1112basic_stringIcSt11char_traitsIcESaIcEEESaIS5_EED4Ev.isra.382,"x"
LCOLDE99:
	.section	.text$_ZNSt6vectorINSt7__cxx1112basic_stringIcSt11char_traitsIcESaIcEEESaIS5_EED4Ev.isra.382,"x"
LHOTE99:
	.section	.text.unlikely.__tcf_10,"x"
LCOLDB100:
	.section	.text$__tcf_10,"x"
LHOTB100:
	.def	___tcf_10;	.scl	3;	.type	32;	.endef
___tcf_10:
LFB12521:
	.cfi_startproc
	pushl	%ebp
	.cfi_def_cfa_offset 8
	.cfi_offset 5, -8
	movl	$__ZN7testing8internal7g_argvsB5cxx11E, %ecx
	movl	%esp, %ebp
	.cfi_def_cfa_register 5
	popl	%ebp
	.cfi_restore 5
	.cfi_def_cfa 4, 4
	jmp	__ZNSt6vectorINSt7__cxx1112basic_stringIcSt11char_traitsIcESaIcEEESaIS5_EED4Ev.isra.382
	.cfi_endproc
LFE12521:
	.section	.text.unlikely.__tcf_10,"x"
LCOLDE100:
	.section	.text$__tcf_10,"x"
LHOTE100:
	.section	.text.unlikely._ZNSt6vectorINSt7__cxx1112basic_stringIcSt11char_traitsIcESaIcEEESaIS5_EE19_M_range_initializeIPKPKcEEvT_SD_St20forward_iterator_tag.isra.516,"x"
	.align 2
LCOLDB101:
	.section	.text$_ZNSt6vectorINSt7__cxx1112basic_stringIcSt11char_traitsIcESaIcEEESaIS5_EE19_M_range_initializeIPKPKcEEvT_SD_St20forward_iterator_tag.isra.516,"x"
LHOTB101:
	.align 2
	.def	__ZNSt6vectorINSt7__cxx1112basic_stringIcSt11char_traitsIcESaIcEEESaIS5_EE19_M_range_initializeIPKPKcEEvT_SD_St20forward_iterator_tag.isra.516;	.scl	3;	.type	32;	.endef
__ZNSt6vectorINSt7__cxx1112basic_stringIcSt11char_traitsIcESaIcEEESaIS5_EE19_M_range_initializeIPKPKcEEvT_SD_St20forward_iterator_tag.isra.516:
LFB13078:
	.cfi_startproc
	pushl	%ebp
	.cfi_def_cfa_offset 8
	.cfi_offset 5, -8
	movl	%esp, %ebp
	.cfi_def_cfa_register 5
	pushl	%edi
	pushl	%esi
	pushl	%ebx
	.cfi_offset 7, -12
	.cfi_offset 6, -16
	.cfi_offset 3, -20
	movl	%ecx, %edi
	subl	$44, %esp
	movl	8(%ebp), %esi
	movl	12(%ebp), %ebx
	subl	%esi, %ebx
	sarl	$2, %ebx
	je	L320
	cmpl	$178956970, %ebx
	jbe	L316
	call	__ZSt17__throw_bad_allocv
L316:
	imull	$24, %ebx, %eax
	movl	%eax, (%esp)
	call	__Znwj
	jmp	L315
L320:
	xorl	%eax, %eax
L315:
	imull	$24, %ebx, %ebx
	movl	%eax, (%edi)
	addl	%eax, %ebx
	movl	%ebx, 8(%edi)
L319:
	cmpl	%esi, 12(%ebp)
	je	L317
	testl	%eax, %eax
	je	L318
	movl	(%esi), %edx
	movl	%eax, %ecx
	movl	%eax, -28(%ebp)
	movl	%edx, (%esp)
	call	__ZNSt7__cxx1112basic_stringIcSt11char_traitsIcESaIcEEC2EPKcRKS3_.isra.402
	pushl	%eax
	movl	-28(%ebp), %eax
L318:
	addl	$4, %esi
	addl	$24, %eax
	jmp	L319
L317:
	movl	%eax, 4(%edi)
	leal	-12(%ebp), %esp
	popl	%ebx
	.cfi_restore 3
	popl	%esi
	.cfi_restore 6
	popl	%edi
	.cfi_restore 7
	popl	%ebp
	.cfi_restore 5
	.cfi_def_cfa 4, 4
	ret	$8
	.cfi_endproc
LFE13078:
	.section	.text.unlikely._ZNSt6vectorINSt7__cxx1112basic_stringIcSt11char_traitsIcESaIcEEESaIS5_EE19_M_range_initializeIPKPKcEEvT_SD_St20forward_iterator_tag.isra.516,"x"
LCOLDE101:
	.section	.text$_ZNSt6vectorINSt7__cxx1112basic_stringIcSt11char_traitsIcESaIcEEESaIS5_EE19_M_range_initializeIPKPKcEEvT_SD_St20forward_iterator_tag.isra.516,"x"
LHOTE101:
	.section	.text$_ZNK7testing8internal17TestPropertyKeyIsclERKNS_12TestPropertyE,"x"
	.linkonce discard
	.align 2
LCOLDB102:
LHOTB102:
	.align 2
	.globl	__ZNK7testing8internal17TestPropertyKeyIsclERKNS_12TestPropertyE
	.def	__ZNK7testing8internal17TestPropertyKeyIsclERKNS_12TestPropertyE;	.scl	2;	.type	32;	.endef
__ZNK7testing8internal17TestPropertyKeyIsclERKNS_12TestPropertyE:
LFB9875:
	.cfi_startproc
	pushl	%ebp
	.cfi_def_cfa_offset 8
	.cfi_offset 5, -8
	movl	%esp, %ebp
	.cfi_def_cfa_register 5
	subl	$24, %esp
	movl	8(%ebp), %eax
	movl	(%eax), %eax
	movl	%eax, (%esp)
	call	__ZNKSt7__cxx1112basic_stringIcSt11char_traitsIcESaIcEE7compareEPKc
	testl	%eax, %eax
	pushl	%edx
	sete	%al
	leave
	.cfi_restore 5
	.cfi_def_cfa 4, 4
	ret	$4
	.cfi_endproc
LFE9875:
LCOLDE102:
LHOTE102:
	.section	.text$_ZN7testing8internal10AutoHandle5ResetEPv,"x"
	.linkonce discard
	.align 2
LCOLDB103:
LHOTB103:
	.align 2
	.globl	__ZN7testing8internal10AutoHandle5ResetEPv
	.def	__ZN7testing8internal10AutoHandle5ResetEPv;	.scl	2;	.type	32;	.endef
__ZN7testing8internal10AutoHandle5ResetEPv:
LFB9928:
	.cfi_startproc
	pushl	%ebp
	.cfi_def_cfa_offset 8
	.cfi_offset 5, -8
	movl	%esp, %ebp
	.cfi_def_cfa_register 5
	pushl	%esi
	pushl	%ebx
	subl	$16, %esp
	.cfi_offset 6, -12
	.cfi_offset 3, -16
	movl	8(%ebp), %esi
	movl	(%ecx), %eax
	cmpl	%esi, %eax
	je	L327
	cmpl	$-1, %eax
	movl	%ecx, %ebx
	je	L329
	movl	%eax, (%esp)
	call	*__imp__CloseHandle@4
	pushl	%eax
L329:
	movl	%esi, (%ebx)
L327:
	leal	-8(%ebp), %esp
	popl	%ebx
	.cfi_restore 3
	popl	%esi
	.cfi_restore 6
	popl	%ebp
	.cfi_restore 5
	.cfi_def_cfa 4, 4
	ret	$4
	.cfi_endproc
LFE9928:
LCOLDE103:
LHOTE103:
	.section	.text$_ZN7testing8internal10AutoHandle5ResetEv,"x"
	.linkonce discard
	.align 2
LCOLDB104:
LHOTB104:
	.align 2
	.globl	__ZN7testing8internal10AutoHandle5ResetEv
	.def	__ZN7testing8internal10AutoHandle5ResetEv;	.scl	2;	.type	32;	.endef
__ZN7testing8internal10AutoHandle5ResetEv:
LFB9927:
	.cfi_startproc
	pushl	%ebp
	.cfi_def_cfa_offset 8
	.cfi_offset 5, -8
	movl	%esp, %ebp
	.cfi_def_cfa_register 5
	subl	$24, %esp
	movl	$-1, (%esp)
	call	__ZN7testing8internal10AutoHandle5ResetEPv
	pushl	%eax
	leave
	.cfi_restore 5
	.cfi_def_cfa 4, 4
	ret
	.cfi_endproc
LFE9927:
LCOLDE104:
LHOTE104:
	.section	.text.unlikely._ZN7testing8internal12AssertHelperC2ENS_14TestPartResult4TypeEPKciS5_,"x"
	.align 2
LCOLDB105:
	.section	.text$_ZN7testing8internal12AssertHelperC2ENS_14TestPartResult4TypeEPKciS5_,"x"
LHOTB105:
	.align 2
	.globl	__ZN7testing8internal12AssertHelperC2ENS_14TestPartResult4TypeEPKciS5_
	.def	__ZN7testing8internal12AssertHelperC2ENS_14TestPartResult4TypeEPKciS5_;	.scl	2;	.type	32;	.endef
__ZN7testing8internal12AssertHelperC2ENS_14TestPartResult4TypeEPKciS5_:
LFB9941:
	.cfi_startproc
	pushl	%ebp
	.cfi_def_cfa_offset 8
	.cfi_offset 5, -8
	movl	%esp, %ebp
	.cfi_def_cfa_register 5
	pushl	%esi
	pushl	%ebx
	.cfi_offset 6, -12
	.cfi_offset 3, -16
	movl	%ecx, %esi
	subl	$16, %esp
	movl	$36, (%esp)
	call	__Znwj
	movl	%eax, %ebx
	movl	8(%ebp), %eax
	leal	12(%ebx), %ecx
	movl	%eax, (%ebx)
	movl	12(%ebp), %eax
	movl	%eax, 4(%ebx)
	movl	16(%ebp), %eax
	movl	%eax, 8(%ebx)
	movl	20(%ebp), %eax
	movl	%eax, (%esp)
	call	__ZNSt7__cxx1112basic_stringIcSt11char_traitsIcESaIcEEC2EPKcRKS3_.isra.402
	movl	%ebx, (%esi)
	pushl	%eax
	leal	-8(%ebp), %esp
	popl	%ebx
	.cfi_restore 3
	popl	%esi
	.cfi_restore 6
	popl	%ebp
	.cfi_restore 5
	.cfi_def_cfa 4, 4
	ret	$16
	.cfi_endproc
LFE9941:
	.section	.text.unlikely._ZN7testing8internal12AssertHelperC2ENS_14TestPartResult4TypeEPKciS5_,"x"
LCOLDE105:
	.section	.text$_ZN7testing8internal12AssertHelperC2ENS_14TestPartResult4TypeEPKciS5_,"x"
LHOTE105:
	.globl	__ZN7testing8internal12AssertHelperC1ENS_14TestPartResult4TypeEPKciS5_
	.def	__ZN7testing8internal12AssertHelperC1ENS_14TestPartResult4TypeEPKciS5_;	.scl	2;	.type	32;	.endef
	.set	__ZN7testing8internal12AssertHelperC1ENS_14TestPartResult4TypeEPKciS5_,__ZN7testing8internal12AssertHelperC2ENS_14TestPartResult4TypeEPKciS5_
	.section	.text.unlikely._ZN7testing8internal12AssertHelperD2Ev,"x"
	.align 2
LCOLDB106:
	.section	.text$_ZN7testing8internal12AssertHelperD2Ev,"x"
LHOTB106:
	.align 2
	.globl	__ZN7testing8internal12AssertHelperD2Ev
	.def	__ZN7testing8internal12AssertHelperD2Ev;	.scl	2;	.type	32;	.endef
__ZN7testing8internal12AssertHelperD2Ev:
LFB9947:
	.cfi_startproc
	movl	(%ecx), %eax
	testl	%eax, %eax
	je	L345
	pushl	%ebp
	.cfi_def_cfa_offset 8
	.cfi_offset 5, -8
	movl	%esp, %ebp
	.cfi_def_cfa_register 5
	pushl	%ebx
	.cfi_offset 3, -12
	movl	%ecx, %ebx
	leal	12(%eax), %ecx
	subl	$20, %esp
	call	__ZNSt7__cxx1112basic_stringIcSt11char_traitsIcESaIcEE10_M_disposeEv
	movl	(%ebx), %eax
	movl	%eax, (%esp)
	call	__ZdlPv
	addl	$20, %esp
	popl	%ebx
	.cfi_restore 3
	popl	%ebp
	.cfi_restore 5
	.cfi_def_cfa 4, 4
L345:
	ret
	.cfi_endproc
LFE9947:
	.section	.text.unlikely._ZN7testing8internal12AssertHelperD2Ev,"x"
LCOLDE106:
	.section	.text$_ZN7testing8internal12AssertHelperD2Ev,"x"
LHOTE106:
	.globl	__ZN7testing8internal12AssertHelperD1Ev
	.def	__ZN7testing8internal12AssertHelperD1Ev;	.scl	2;	.type	32;	.endef
	.set	__ZN7testing8internal12AssertHelperD1Ev,__ZN7testing8internal12AssertHelperD2Ev
	.section	.text.unlikely._ZN7testing8internal15UnitTestOptions15GetOutputFormatB5cxx11Ev,"x"
	.align 2
LCOLDB107:
	.section	.text$_ZN7testing8internal15UnitTestOptions15GetOutputFormatB5cxx11Ev,"x"
LHOTB107:
	.align 2
	.globl	__ZN7testing8internal15UnitTestOptions15GetOutputFormatB5cxx11Ev
	.def	__ZN7testing8internal15UnitTestOptions15GetOutputFormatB5cxx11Ev;	.scl	2;	.type	32;	.endef
__ZN7testing8internal15UnitTestOptions15GetOutputFormatB5cxx11Ev:
LFB9951:
	.cfi_startproc
	pushl	%ebp
	.cfi_def_cfa_offset 8
	.cfi_offset 5, -8
	movl	%esp, %ebp
	.cfi_def_cfa_register 5
	pushl	%esi
	pushl	%ebx
	subl	$16, %esp
	.cfi_offset 6, -12
	.cfi_offset 3, -16
	movl	__ZN7testing18FLAGS_gtest_outputB5cxx11E, %esi
	movl	8(%ebp), %ebx
	testl	%esi, %esi
	jne	L347
	movl	$LC72, (%esp)
	jmp	L351
L347:
	movl	$58, 4(%esp)
	movl	%esi, (%esp)
	call	_strchr
	testl	%eax, %eax
	jne	L349
	movl	%esi, (%esp)
L351:
	movl	%ebx, %ecx
	call	__ZNSt7__cxx1112basic_stringIcSt11char_traitsIcESaIcEEC2EPKcRKS3_.isra.402
	pushl	%edx
	jmp	L346
L349:
	leal	8(%ebx), %edx
	movl	%ebx, %ecx
	movl	%edx, (%ebx)
	movl	%eax, 4(%esp)
	movl	%esi, (%esp)
	call	__ZNSt7__cxx1112basic_stringIcSt11char_traitsIcESaIcEE12_M_constructIPKcEEvT_S8_St20forward_iterator_tag.isra.400
	pushl	%eax
	pushl	%eax
L346:
	leal	-8(%ebp), %esp
	movl	%ebx, %eax
	popl	%ebx
	.cfi_restore 3
	popl	%esi
	.cfi_restore 6
	popl	%ebp
	.cfi_restore 5
	.cfi_def_cfa 4, 4
	ret
	.cfi_endproc
LFE9951:
	.section	.text.unlikely._ZN7testing8internal15UnitTestOptions15GetOutputFormatB5cxx11Ev,"x"
LCOLDE107:
	.section	.text$_ZN7testing8internal15UnitTestOptions15GetOutputFormatB5cxx11Ev,"x"
LHOTE107:
	.section	.text.unlikely._ZN7testing8internal15UnitTestOptions20PatternMatchesStringEPKcS3_,"x"
	.align 2
LCOLDB108:
	.section	.text$_ZN7testing8internal15UnitTestOptions20PatternMatchesStringEPKcS3_,"x"
LHOTB108:
	.align 2
	.globl	__ZN7testing8internal15UnitTestOptions20PatternMatchesStringEPKcS3_
	.def	__ZN7testing8internal15UnitTestOptions20PatternMatchesStringEPKcS3_;	.scl	2;	.type	32;	.endef
__ZN7testing8internal15UnitTestOptions20PatternMatchesStringEPKcS3_:
LFB9953:
	.cfi_startproc
	pushl	%ebp
	.cfi_def_cfa_offset 8
	.cfi_offset 5, -8
	movl	%esp, %ebp
	.cfi_def_cfa_register 5
	pushl	%esi
	pushl	%ebx
	subl	$16, %esp
	.cfi_offset 6, -12
	.cfi_offset 3, -16
	movl	8(%ebp), %eax
	movl	12(%ebp), %ebx
	leal	1(%eax), %esi
L353:
	movb	-1(%esi), %al
	leal	-1(%esi), %edx
	cmpb	$42, %al
	je	L355
	jg	L356
	testb	%al, %al
	je	L357
	jmp	L354
L356:
	cmpb	$58, %al
	je	L357
	cmpb	$63, %al
	je	L358
	jmp	L354
L357:
	cmpb	$0, (%ebx)
	sete	%al
	jmp	L359
L358:
	cmpb	$0, (%ebx)
	je	L362
	jmp	L370
L355:
	cmpb	$0, (%ebx)
	jne	L371
L360:
	incl	%esi
	jmp	L353
L371:
	leal	1(%ebx), %eax
	movl	%edx, (%esp)
	movl	%eax, 4(%esp)
	call	__ZN7testing8internal15UnitTestOptions20PatternMatchesStringEPKcS3_
	testb	%al, %al
	je	L360
	jmp	L359
L354:
	cmpb	(%ebx), %al
	jne	L362
L370:
	incl	%ebx
	jmp	L360
L362:
	xorl	%eax, %eax
L359:
	addl	$16, %esp
	popl	%ebx
	.cfi_restore 3
	popl	%esi
	.cfi_restore 6
	popl	%ebp
	.cfi_restore 5
	.cfi_def_cfa 4, 4
	ret
	.cfi_endproc
LFE9953:
	.section	.text.unlikely._ZN7testing8internal15UnitTestOptions20PatternMatchesStringEPKcS3_,"x"
LCOLDE108:
	.section	.text$_ZN7testing8internal15UnitTestOptions20PatternMatchesStringEPKcS3_,"x"
LHOTE108:
	.section	.text.unlikely._ZN7testing8internal15UnitTestOptions13MatchesFilterERKNSt7__cxx1112basic_stringIcSt11char_traitsIcESaIcEEEPKc,"x"
	.align 2
LCOLDB109:
	.section	.text$_ZN7testing8internal15UnitTestOptions13MatchesFilterERKNSt7__cxx1112basic_stringIcSt11char_traitsIcESaIcEEEPKc,"x"
LHOTB109:
	.align 2
	.globl	__ZN7testing8internal15UnitTestOptions13MatchesFilterERKNSt7__cxx1112basic_stringIcSt11char_traitsIcESaIcEEEPKc
	.def	__ZN7testing8internal15UnitTestOptions13MatchesFilterERKNSt7__cxx1112basic_stringIcSt11char_traitsIcESaIcEEEPKc;	.scl	2;	.type	32;	.endef
__ZN7testing8internal15UnitTestOptions13MatchesFilterERKNSt7__cxx1112basic_stringIcSt11char_traitsIcESaIcEEEPKc:
LFB9954:
	.cfi_startproc
	pushl	%ebp
	.cfi_def_cfa_offset 8
	.cfi_offset 5, -8
	movl	%esp, %ebp
	.cfi_def_cfa_register 5
	pushl	%esi
	pushl	%ebx
	subl	$16, %esp
	.cfi_offset 6, -12
	.cfi_offset 3, -16
	movl	8(%ebp), %eax
	movl	12(%ebp), %ecx
	movl	(%eax), %ebx
L374:
	movl	%ebx, 4(%esp)
	movl	%ecx, (%esp)
	call	__ZN7testing8internal15UnitTestOptions20PatternMatchesStringEPKcS3_
	testb	%al, %al
	movl	%eax, %esi
	jne	L373
	movl	$58, 4(%esp)
	movl	%ecx, (%esp)
	call	_strchr
	testl	%eax, %eax
	je	L373
	leal	1(%eax), %ecx
	jmp	L374
L373:
	addl	$16, %esp
	movl	%esi, %eax
	popl	%ebx
	.cfi_restore 3
	popl	%esi
	.cfi_restore 6
	popl	%ebp
	.cfi_restore 5
	.cfi_def_cfa 4, 4
	ret
	.cfi_endproc
LFE9954:
	.section	.text.unlikely._ZN7testing8internal15UnitTestOptions13MatchesFilterERKNSt7__cxx1112basic_stringIcSt11char_traitsIcESaIcEEEPKc,"x"
LCOLDE109:
	.section	.text$_ZN7testing8internal15UnitTestOptions13MatchesFilterERKNSt7__cxx1112basic_stringIcSt11char_traitsIcESaIcEEEPKc,"x"
LHOTE109:
	.section .rdata,"dr"
LC110:
	.ascii ".\0"
	.section	.text.unlikely._ZN7testing8internal15UnitTestOptions17FilterMatchesTestERKNSt7__cxx1112basic_stringIcSt11char_traitsIcESaIcEEES9_,"x"
	.align 2
LCOLDB111:
	.section	.text$_ZN7testing8internal15UnitTestOptions17FilterMatchesTestERKNSt7__cxx1112basic_stringIcSt11char_traitsIcESaIcEEES9_,"x"
LHOTB111:
	.align 2
	.globl	__ZN7testing8internal15UnitTestOptions17FilterMatchesTestERKNSt7__cxx1112basic_stringIcSt11char_traitsIcESaIcEEES9_
	.def	__ZN7testing8internal15UnitTestOptions17FilterMatchesTestERKNSt7__cxx1112basic_stringIcSt11char_traitsIcESaIcEEES9_;	.scl	2;	.type	32;	.endef
__ZN7testing8internal15UnitTestOptions17FilterMatchesTestERKNSt7__cxx1112basic_stringIcSt11char_traitsIcESaIcEEES9_:
LFB9955:
	.cfi_startproc
	pushl	%ebp
	.cfi_def_cfa_offset 8
	.cfi_offset 5, -8
	movl	%esp, %ebp
	.cfi_def_cfa_register 5
	pushl	%edi
	pushl	%esi
	pushl	%ebx
	.cfi_offset 7, -12
	.cfi_offset 6, -16
	.cfi_offset 3, -20
	leal	-48(%ebp), %ebx
	subl	$140, %esp
	movl	12(%ebp), %eax
	movl	%ebx, %ecx
	movl	(%eax), %esi
	movl	8(%ebp), %eax
	movl	%eax, (%esp)
	call	__ZNSt7__cxx1112basic_stringIcSt11char_traitsIcESaIcEEC1ERKS4_
	pushl	%eax
	movl	%ebx, %ecx
	movl	$LC110, (%esp)
	call	__ZNSt7__cxx1112basic_stringIcSt11char_traitsIcESaIcEE6appendEPKc
	pushl	%eax
	movl	%ebx, %ecx
	movl	%esi, (%esp)
	call	__ZNSt7__cxx1112basic_stringIcSt11char_traitsIcESaIcEE6appendEPKc
	pushl	%edx
	leal	-120(%ebp), %ecx
	movl	%eax, (%esp)
	call	__ZNSt7__cxx1112basic_stringIcSt11char_traitsIcESaIcEEC1EOS4_
	pushl	%ecx
	movl	%ebx, %ecx
	call	__ZNSt7__cxx1112basic_stringIcSt11char_traitsIcESaIcEE10_M_disposeEv
	movl	__ZN7testing18FLAGS_gtest_filterB5cxx11E, %edi
	movl	$45, 4(%esp)
	movl	%edi, (%esp)
	call	_strchr
	movl	%eax, %esi
	leal	-88(%ebp), %eax
	movl	$0, -92(%ebp)
	testl	%esi, %esi
	movb	$0, -88(%ebp)
	movl	$0, -68(%ebp)
	movl	%eax, -96(%ebp)
	leal	-64(%ebp), %eax
	movb	$0, -64(%ebp)
	movl	%eax, -72(%ebp)
	jne	L380
	leal	-96(%ebp), %ecx
	movl	%edi, (%esp)
	call	__ZNSt7__cxx1112basic_stringIcSt11char_traitsIcESaIcEEaSEPKc
	pushl	%eax
	leal	-72(%ebp), %ecx
	movl	$LC72, (%esp)
	jmp	L387
L380:
	leal	-40(%ebp), %eax
	movl	%esi, 4(%esp)
	movl	%edi, (%esp)
	movl	%ebx, %ecx
	incl	%esi
	movl	%eax, -48(%ebp)
	call	__ZNSt7__cxx1112basic_stringIcSt11char_traitsIcESaIcEE12_M_constructIPcEEvT_S7_St20forward_iterator_tag.isra.409
	pushl	%edx
	pushl	%edx
	leal	-96(%ebp), %ecx
	movl	%ebx, (%esp)
	call	__ZNSt7__cxx1112basic_stringIcSt11char_traitsIcESaIcEE4swapERS4_
	pushl	%ecx
	movl	%ebx, %ecx
	call	__ZNSt7__cxx1112basic_stringIcSt11char_traitsIcESaIcEE10_M_disposeEv
	movl	%esi, (%esp)
	movl	%ebx, %ecx
	call	__ZNSt7__cxx1112basic_stringIcSt11char_traitsIcESaIcEEC2EPKcRKS3_.isra.402
	pushl	%esi
	leal	-72(%ebp), %ecx
	movl	%ebx, (%esp)
	call	__ZNSt7__cxx1112basic_stringIcSt11char_traitsIcESaIcEE4swapERS4_
	pushl	%edi
	movl	%ebx, %ecx
	call	__ZNSt7__cxx1112basic_stringIcSt11char_traitsIcESaIcEE10_M_disposeEv
	cmpl	$0, -92(%ebp)
	jne	L381
	leal	-96(%ebp), %ecx
	movl	$__ZN7testingL16kUniversalFilterE, (%esp)
L387:
	call	__ZNSt7__cxx1112basic_stringIcSt11char_traitsIcESaIcEEaSEPKc
	pushl	%eax
L381:
	movl	-96(%ebp), %eax
	leal	-120(%ebp), %ebx
	movl	%ebx, (%esp)
	movl	%eax, 4(%esp)
	call	__ZN7testing8internal15UnitTestOptions13MatchesFilterERKNSt7__cxx1112basic_stringIcSt11char_traitsIcESaIcEEEPKc
	testb	%al, %al
	je	L382
	movl	-72(%ebp), %eax
	movl	%ebx, (%esp)
	movl	%eax, 4(%esp)
	call	__ZN7testing8internal15UnitTestOptions13MatchesFilterERKNSt7__cxx1112basic_stringIcSt11char_traitsIcESaIcEEEPKc
	xorl	$1, %eax
L382:
	leal	-72(%ebp), %ecx
	movb	%al, -121(%ebp)
	call	__ZNSt7__cxx1112basic_stringIcSt11char_traitsIcESaIcEE10_M_disposeEv
	leal	-96(%ebp), %ecx
	call	__ZNSt7__cxx1112basic_stringIcSt11char_traitsIcESaIcEE10_M_disposeEv
	movl	%ebx, %ecx
	call	__ZNSt7__cxx1112basic_stringIcSt11char_traitsIcESaIcEE10_M_disposeEv
	movb	-121(%ebp), %al
	leal	-12(%ebp), %esp
	popl	%ebx
	.cfi_restore 3
	popl	%esi
	.cfi_restore 6
	popl	%edi
	.cfi_restore 7
	popl	%ebp
	.cfi_restore 5
	.cfi_def_cfa 4, 4
	ret
	.cfi_endproc
LFE9955:
	.section	.text.unlikely._ZN7testing8internal15UnitTestOptions17FilterMatchesTestERKNSt7__cxx1112basic_stringIcSt11char_traitsIcESaIcEEES9_,"x"
LCOLDE111:
	.section	.text$_ZN7testing8internal15UnitTestOptions17FilterMatchesTestERKNSt7__cxx1112basic_stringIcSt11char_traitsIcESaIcEEES9_,"x"
LHOTE111:
	.section	.text.unlikely._ZN7testing8internal13GetTestTypeIdEv,"x"
LCOLDB112:
	.section	.text$_ZN7testing8internal13GetTestTypeIdEv,"x"
LHOTB112:
	.globl	__ZN7testing8internal13GetTestTypeIdEv
	.def	__ZN7testing8internal13GetTestTypeIdEv;	.scl	2;	.type	32;	.endef
__ZN7testing8internal13GetTestTypeIdEv:
LFB9971:
	.cfi_startproc
	pushl	%ebp
	.cfi_def_cfa_offset 8
	.cfi_offset 5, -8
	movl	$__ZN7testing8internal12TypeIdHelperINS_4TestEE6dummy_E, %eax
	movl	%esp, %ebp
	.cfi_def_cfa_register 5
	popl	%ebp
	.cfi_restore 5
	.cfi_def_cfa 4, 4
	ret
	.cfi_endproc
LFE9971:
	.section	.text.unlikely._ZN7testing8internal13GetTestTypeIdEv,"x"
LCOLDE112:
	.section	.text$_ZN7testing8internal13GetTestTypeIdEv,"x"
LHOTE112:
	.section	.text.unlikely._ZN7testing8internal20SingleFailureCheckerC2EPKNS_19TestPartResultArrayENS_14TestPartResult4TypeERKNSt7__cxx1112basic_stringIcSt11char_traitsIcESaIcEEE,"x"
	.align 2
LCOLDB113:
	.section	.text$_ZN7testing8internal20SingleFailureCheckerC2EPKNS_19TestPartResultArrayENS_14TestPartResult4TypeERKNSt7__cxx1112basic_stringIcSt11char_traitsIcESaIcEEE,"x"
LHOTB113:
	.align 2
	.globl	__ZN7testing8internal20SingleFailureCheckerC2EPKNS_19TestPartResultArrayENS_14TestPartResult4TypeERKNSt7__cxx1112basic_stringIcSt11char_traitsIcESaIcEEE
	.def	__ZN7testing8internal20SingleFailureCheckerC2EPKNS_19TestPartResultArrayENS_14TestPartResult4TypeERKNSt7__cxx1112basic_stringIcSt11char_traitsIcESaIcEEE;	.scl	2;	.type	32;	.endef
__ZN7testing8internal20SingleFailureCheckerC2EPKNS_19TestPartResultArrayENS_14TestPartResult4TypeERKNSt7__cxx1112basic_stringIcSt11char_traitsIcESaIcEEE:
LFB9977:
	.cfi_startproc
	pushl	%ebp
	.cfi_def_cfa_offset 8
	.cfi_offset 5, -8
	addl	$8, %ecx
	movl	%esp, %ebp
	.cfi_def_cfa_register 5
	subl	$24, %esp
	movl	8(%ebp), %eax
	movl	%eax, -8(%ecx)
	movl	12(%ebp), %eax
	movl	%eax, -4(%ecx)
	movl	16(%ebp), %eax
	movl	%eax, (%esp)
	call	__ZNSt7__cxx1112basic_stringIcSt11char_traitsIcESaIcEEC1ERKS4_
	pushl	%eax
	leave
	.cfi_restore 5
	.cfi_def_cfa 4, 4
	ret	$12
	.cfi_endproc
LFE9977:
	.section	.text.unlikely._ZN7testing8internal20SingleFailureCheckerC2EPKNS_19TestPartResultArrayENS_14TestPartResult4TypeERKNSt7__cxx1112basic_stringIcSt11char_traitsIcESaIcEEE,"x"
LCOLDE113:
	.section	.text$_ZN7testing8internal20SingleFailureCheckerC2EPKNS_19TestPartResultArrayENS_14TestPartResult4TypeERKNSt7__cxx1112basic_stringIcSt11char_traitsIcESaIcEEE,"x"
LHOTE113:
	.globl	__ZN7testing8internal20SingleFailureCheckerC1EPKNS_19TestPartResultArrayENS_14TestPartResult4TypeERKNSt7__cxx1112basic_stringIcSt11char_traitsIcESaIcEEE
	.def	__ZN7testing8internal20SingleFailureCheckerC1EPKNS_19TestPartResultArrayENS_14TestPartResult4TypeERKNSt7__cxx1112basic_stringIcSt11char_traitsIcESaIcEEE;	.scl	2;	.type	32;	.endef
	.set	__ZN7testing8internal20SingleFailureCheckerC1EPKNS_19TestPartResultArrayENS_14TestPartResult4TypeERKNSt7__cxx1112basic_stringIcSt11char_traitsIcESaIcEEE,__ZN7testing8internal20SingleFailureCheckerC2EPKNS_19TestPartResultArrayENS_14TestPartResult4TypeERKNSt7__cxx1112basic_stringIcSt11char_traitsIcESaIcEEE
	.section	.text.unlikely._ZN7testing8internal35DefaultGlobalTestPartResultReporterC2EPNS0_12UnitTestImplE,"x"
	.align 2
LCOLDB114:
	.section	.text$_ZN7testing8internal35DefaultGlobalTestPartResultReporterC2EPNS0_12UnitTestImplE,"x"
LHOTB114:
	.align 2
	.globl	__ZN7testing8internal35DefaultGlobalTestPartResultReporterC2EPNS0_12UnitTestImplE
	.def	__ZN7testing8internal35DefaultGlobalTestPartResultReporterC2EPNS0_12UnitTestImplE;	.scl	2;	.type	32;	.endef
__ZN7testing8internal35DefaultGlobalTestPartResultReporterC2EPNS0_12UnitTestImplE:
LFB9983:
	.cfi_startproc
	pushl	%ebp
	.cfi_def_cfa_offset 8
	.cfi_offset 5, -8
	movl	$__ZTVN7testing8internal35DefaultGlobalTestPartResultReporterE+8, (%ecx)
	movl	%esp, %ebp
	.cfi_def_cfa_register 5
	movl	8(%ebp), %eax
	popl	%ebp
	.cfi_restore 5
	.cfi_def_cfa 4, 4
	movl	%eax, 4(%ecx)
	ret	$4
	.cfi_endproc
LFE9983:
	.section	.text.unlikely._ZN7testing8internal35DefaultGlobalTestPartResultReporterC2EPNS0_12UnitTestImplE,"x"
LCOLDE114:
	.section	.text$_ZN7testing8internal35DefaultGlobalTestPartResultReporterC2EPNS0_12UnitTestImplE,"x"
LHOTE114:
	.globl	__ZN7testing8internal35DefaultGlobalTestPartResultReporterC1EPNS0_12UnitTestImplE
	.def	__ZN7testing8internal35DefaultGlobalTestPartResultReporterC1EPNS0_12UnitTestImplE;	.scl	2;	.type	32;	.endef
	.set	__ZN7testing8internal35DefaultGlobalTestPartResultReporterC1EPNS0_12UnitTestImplE,__ZN7testing8internal35DefaultGlobalTestPartResultReporterC2EPNS0_12UnitTestImplE
	.section	.text.unlikely._ZN7testing8internal38DefaultPerThreadTestPartResultReporterC2EPNS0_12UnitTestImplE,"x"
	.align 2
LCOLDB115:
	.section	.text$_ZN7testing8internal38DefaultPerThreadTestPartResultReporterC2EPNS0_12UnitTestImplE,"x"
LHOTB115:
	.align 2
	.globl	__ZN7testing8internal38DefaultPerThreadTestPartResultReporterC2EPNS0_12UnitTestImplE
	.def	__ZN7testing8internal38DefaultPerThreadTestPartResultReporterC2EPNS0_12UnitTestImplE;	.scl	2;	.type	32;	.endef
__ZN7testing8internal38DefaultPerThreadTestPartResultReporterC2EPNS0_12UnitTestImplE:
LFB9987:
	.cfi_startproc
	pushl	%ebp
	.cfi_def_cfa_offset 8
	.cfi_offset 5, -8
	movl	$__ZTVN7testing8internal38DefaultPerThreadTestPartResultReporterE+8, (%ecx)
	movl	%esp, %ebp
	.cfi_def_cfa_register 5
	movl	8(%ebp), %eax
	popl	%ebp
	.cfi_restore 5
	.cfi_def_cfa 4, 4
	movl	%eax, 4(%ecx)
	ret	$4
	.cfi_endproc
LFE9987:
	.section	.text.unlikely._ZN7testing8internal38DefaultPerThreadTestPartResultReporterC2EPNS0_12UnitTestImplE,"x"
LCOLDE115:
	.section	.text$_ZN7testing8internal38DefaultPerThreadTestPartResultReporterC2EPNS0_12UnitTestImplE,"x"
LHOTE115:
	.globl	__ZN7testing8internal38DefaultPerThreadTestPartResultReporterC1EPNS0_12UnitTestImplE
	.def	__ZN7testing8internal38DefaultPerThreadTestPartResultReporterC1EPNS0_12UnitTestImplE;	.scl	2;	.type	32;	.endef
	.set	__ZN7testing8internal38DefaultPerThreadTestPartResultReporterC1EPNS0_12UnitTestImplE,__ZN7testing8internal38DefaultPerThreadTestPartResultReporterC2EPNS0_12UnitTestImplE
	.section	.text.unlikely._ZN7testing8internal12UnitTestImpl31GetGlobalTestPartResultReporterEv,"x"
	.align 2
LCOLDB116:
	.section	.text$_ZN7testing8internal12UnitTestImpl31GetGlobalTestPartResultReporterEv,"x"
LHOTB116:
	.align 2
	.globl	__ZN7testing8internal12UnitTestImpl31GetGlobalTestPartResultReporterEv
	.def	__ZN7testing8internal12UnitTestImpl31GetGlobalTestPartResultReporterEv;	.scl	2;	.type	32;	.endef
__ZN7testing8internal12UnitTestImpl31GetGlobalTestPartResultReporterEv:
LFB9990:
	.cfi_startproc
	pushl	%ebp
	.cfi_def_cfa_offset 8
	.cfi_offset 5, -8
	movl	48(%ecx), %eax
	movl	%esp, %ebp
	.cfi_def_cfa_register 5
	popl	%ebp
	.cfi_restore 5
	.cfi_def_cfa 4, 4
	ret
	.cfi_endproc
LFE9990:
	.section	.text.unlikely._ZN7testing8internal12UnitTestImpl31GetGlobalTestPartResultReporterEv,"x"
LCOLDE116:
	.section	.text$_ZN7testing8internal12UnitTestImpl31GetGlobalTestPartResultReporterEv,"x"
LHOTE116:
	.section	.text.unlikely._ZN7testing8internal12UnitTestImpl31SetGlobalTestPartResultReporterEPNS_31TestPartResultReporterInterfaceE,"x"
	.align 2
LCOLDB117:
	.section	.text$_ZN7testing8internal12UnitTestImpl31SetGlobalTestPartResultReporterEPNS_31TestPartResultReporterInterfaceE,"x"
LHOTB117:
	.align 2
	.globl	__ZN7testing8internal12UnitTestImpl31SetGlobalTestPartResultReporterEPNS_31TestPartResultReporterInterfaceE
	.def	__ZN7testing8internal12UnitTestImpl31SetGlobalTestPartResultReporterEPNS_31TestPartResultReporterInterfaceE;	.scl	2;	.type	32;	.endef
__ZN7testing8internal12UnitTestImpl31SetGlobalTestPartResultReporterEPNS_31TestPartResultReporterInterfaceE:
LFB9991:
	.cfi_startproc
	pushl	%ebp
	.cfi_def_cfa_offset 8
	.cfi_offset 5, -8
	movl	%esp, %ebp
	.cfi_def_cfa_register 5
	movl	8(%ebp), %eax
	popl	%ebp
	.cfi_restore 5
	.cfi_def_cfa 4, 4
	movl	%eax, 48(%ecx)
	ret	$4
	.cfi_endproc
LFE9991:
	.section	.text.unlikely._ZN7testing8internal12UnitTestImpl31SetGlobalTestPartResultReporterEPNS_31TestPartResultReporterInterfaceE,"x"
LCOLDE117:
	.section	.text$_ZN7testing8internal12UnitTestImpl31SetGlobalTestPartResultReporterEPNS_31TestPartResultReporterInterfaceE,"x"
LHOTE117:
	.section	.text.unlikely._ZN7testing8internal12UnitTestImpl41GetTestPartResultReporterForCurrentThreadEv,"x"
	.align 2
LCOLDB118:
	.section	.text$_ZN7testing8internal12UnitTestImpl41GetTestPartResultReporterForCurrentThreadEv,"x"
LHOTB118:
	.align 2
	.globl	__ZN7testing8internal12UnitTestImpl41GetTestPartResultReporterForCurrentThreadEv
	.def	__ZN7testing8internal12UnitTestImpl41GetTestPartResultReporterForCurrentThreadEv;	.scl	2;	.type	32;	.endef
__ZN7testing8internal12UnitTestImpl41GetTestPartResultReporterForCurrentThreadEv:
LFB9992:
	.cfi_startproc
	pushl	%ebp
	.cfi_def_cfa_offset 8
	.cfi_offset 5, -8
	movl	56(%ecx), %eax
	movl	%esp, %ebp
	.cfi_def_cfa_register 5
	popl	%ebp
	.cfi_restore 5
	.cfi_def_cfa 4, 4
	ret
	.cfi_endproc
LFE9992:
	.section	.text.unlikely._ZN7testing8internal12UnitTestImpl41GetTestPartResultReporterForCurrentThreadEv,"x"
LCOLDE118:
	.section	.text$_ZN7testing8internal12UnitTestImpl41GetTestPartResultReporterForCurrentThreadEv,"x"
LHOTE118:
	.section	.text.unlikely._ZN7testing8internal12UnitTestImpl41SetTestPartResultReporterForCurrentThreadEPNS_31TestPartResultReporterInterfaceE,"x"
	.align 2
LCOLDB119:
	.section	.text$_ZN7testing8internal12UnitTestImpl41SetTestPartResultReporterForCurrentThreadEPNS_31TestPartResultReporterInterfaceE,"x"
LHOTB119:
	.align 2
	.globl	__ZN7testing8internal12UnitTestImpl41SetTestPartResultReporterForCurrentThreadEPNS_31TestPartResultReporterInterfaceE
	.def	__ZN7testing8internal12UnitTestImpl41SetTestPartResultReporterForCurrentThreadEPNS_31TestPartResultReporterInterfaceE;	.scl	2;	.type	32;	.endef
__ZN7testing8internal12UnitTestImpl41SetTestPartResultReporterForCurrentThreadEPNS_31TestPartResultReporterInterfaceE:
LFB9993:
	.cfi_startproc
	pushl	%ebp
	.cfi_def_cfa_offset 8
	.cfi_offset 5, -8
	movl	%esp, %ebp
	.cfi_def_cfa_register 5
	movl	8(%ebp), %eax
	popl	%ebp
	.cfi_restore 5
	.cfi_def_cfa 4, 4
	movl	%eax, 56(%ecx)
	ret	$4
	.cfi_endproc
LFE9993:
	.section	.text.unlikely._ZN7testing8internal12UnitTestImpl41SetTestPartResultReporterForCurrentThreadEPNS_31TestPartResultReporterInterfaceE,"x"
LCOLDE119:
	.section	.text$_ZN7testing8internal12UnitTestImpl41SetTestPartResultReporterForCurrentThreadEPNS_31TestPartResultReporterInterfaceE,"x"
LHOTE119:
	.section	.text.unlikely._ZNK7testing8internal12UnitTestImpl21total_test_case_countEv,"x"
	.align 2
LCOLDB120:
	.section	.text$_ZNK7testing8internal12UnitTestImpl21total_test_case_countEv,"x"
LHOTB120:
	.align 2
	.globl	__ZNK7testing8internal12UnitTestImpl21total_test_case_countEv
	.def	__ZNK7testing8internal12UnitTestImpl21total_test_case_countEv;	.scl	2;	.type	32;	.endef
__ZNK7testing8internal12UnitTestImpl21total_test_case_countEv:
LFB9996:
	.cfi_startproc
	movl	76(%ecx), %eax
	subl	72(%ecx), %eax
	pushl	%ebp
	.cfi_def_cfa_offset 8
	.cfi_offset 5, -8
	movl	%esp, %ebp
	.cfi_def_cfa_register 5
	sarl	$2, %eax
	popl	%ebp
	.cfi_restore 5
	.cfi_def_cfa 4, 4
	ret
	.cfi_endproc
LFE9996:
	.section	.text.unlikely._ZNK7testing8internal12UnitTestImpl21total_test_case_countEv,"x"
LCOLDE120:
	.section	.text$_ZNK7testing8internal12UnitTestImpl21total_test_case_countEv,"x"
LHOTE120:
	.section	.text.unlikely._ZNK7testing8internal12UnitTestImpl21successful_test_countEv,"x"
	.align 2
LCOLDB121:
	.section	.text$_ZNK7testing8internal12UnitTestImpl21successful_test_countEv,"x"
LHOTB121:
	.align 2
	.globl	__ZNK7testing8internal12UnitTestImpl21successful_test_countEv
	.def	__ZNK7testing8internal12UnitTestImpl21successful_test_countEv;	.scl	2;	.type	32;	.endef
__ZNK7testing8internal12UnitTestImpl21successful_test_countEv:
LFB9998:
	.cfi_startproc
	pushl	%ebp
	.cfi_def_cfa_offset 8
	.cfi_offset 5, -8
	leal	72(%ecx), %eax
	movl	$__ZNK7testing8TestCase21successful_test_countEv, %edx
	xorl	%ecx, %ecx
	movl	%esp, %ebp
	.cfi_def_cfa_register 5
	subl	$8, %esp
	call	__ZN7testing8internalL19SumOverTestCaseListERKSt6vectorIPNS_8TestCaseESaIS3_EEMS2_KFivE.constprop.592
	leave
	.cfi_restore 5
	.cfi_def_cfa 4, 4
	ret
	.cfi_endproc
LFE9998:
	.section	.text.unlikely._ZNK7testing8internal12UnitTestImpl21successful_test_countEv,"x"
LCOLDE121:
	.section	.text$_ZNK7testing8internal12UnitTestImpl21successful_test_countEv,"x"
LHOTE121:
	.section	.text.unlikely._ZNK7testing8internal12UnitTestImpl17failed_test_countEv,"x"
	.align 2
LCOLDB122:
	.section	.text$_ZNK7testing8internal12UnitTestImpl17failed_test_countEv,"x"
LHOTB122:
	.align 2
	.globl	__ZNK7testing8internal12UnitTestImpl17failed_test_countEv
	.def	__ZNK7testing8internal12UnitTestImpl17failed_test_countEv;	.scl	2;	.type	32;	.endef
__ZNK7testing8internal12UnitTestImpl17failed_test_countEv:
LFB9999:
	.cfi_startproc
	pushl	%ebp
	.cfi_def_cfa_offset 8
	.cfi_offset 5, -8
	leal	72(%ecx), %eax
	movl	$__ZNK7testing8TestCase17failed_test_countEv, %edx
	xorl	%ecx, %ecx
	movl	%esp, %ebp
	.cfi_def_cfa_register 5
	subl	$8, %esp
	call	__ZN7testing8internalL19SumOverTestCaseListERKSt6vectorIPNS_8TestCaseESaIS3_EEMS2_KFivE.constprop.592
	leave
	.cfi_restore 5
	.cfi_def_cfa 4, 4
	ret
	.cfi_endproc
LFE9999:
	.section	.text.unlikely._ZNK7testing8internal12UnitTestImpl17failed_test_countEv,"x"
LCOLDE122:
	.section	.text$_ZNK7testing8internal12UnitTestImpl17failed_test_countEv,"x"
LHOTE122:
	.section	.text.unlikely._ZNK7testing8internal12UnitTestImpl30reportable_disabled_test_countEv,"x"
	.align 2
LCOLDB123:
	.section	.text$_ZNK7testing8internal12UnitTestImpl30reportable_disabled_test_countEv,"x"
LHOTB123:
	.align 2
	.globl	__ZNK7testing8internal12UnitTestImpl30reportable_disabled_test_countEv
	.def	__ZNK7testing8internal12UnitTestImpl30reportable_disabled_test_countEv;	.scl	2;	.type	32;	.endef
__ZNK7testing8internal12UnitTestImpl30reportable_disabled_test_countEv:
LFB10000:
	.cfi_startproc
	pushl	%ebp
	.cfi_def_cfa_offset 8
	.cfi_offset 5, -8
	leal	72(%ecx), %eax
	movl	$__ZNK7testing8TestCase30reportable_disabled_test_countEv, %edx
	xorl	%ecx, %ecx
	movl	%esp, %ebp
	.cfi_def_cfa_register 5
	subl	$8, %esp
	call	__ZN7testing8internalL19SumOverTestCaseListERKSt6vectorIPNS_8TestCaseESaIS3_EEMS2_KFivE.constprop.592
	leave
	.cfi_restore 5
	.cfi_def_cfa 4, 4
	ret
	.cfi_endproc
LFE10000:
	.section	.text.unlikely._ZNK7testing8internal12UnitTestImpl30reportable_disabled_test_countEv,"x"
LCOLDE123:
	.section	.text$_ZNK7testing8internal12UnitTestImpl30reportable_disabled_test_countEv,"x"
LHOTE123:
	.section	.text.unlikely._ZNK7testing8internal12UnitTestImpl19disabled_test_countEv,"x"
	.align 2
LCOLDB124:
	.section	.text$_ZNK7testing8internal12UnitTestImpl19disabled_test_countEv,"x"
LHOTB124:
	.align 2
	.globl	__ZNK7testing8internal12UnitTestImpl19disabled_test_countEv
	.def	__ZNK7testing8internal12UnitTestImpl19disabled_test_countEv;	.scl	2;	.type	32;	.endef
__ZNK7testing8internal12UnitTestImpl19disabled_test_countEv:
LFB10001:
	.cfi_startproc
	pushl	%ebp
	.cfi_def_cfa_offset 8
	.cfi_offset 5, -8
	leal	72(%ecx), %eax
	movl	$__ZNK7testing8TestCase19disabled_test_countEv, %edx
	xorl	%ecx, %ecx
	movl	%esp, %ebp
	.cfi_def_cfa_register 5
	subl	$8, %esp
	call	__ZN7testing8internalL19SumOverTestCaseListERKSt6vectorIPNS_8TestCaseESaIS3_EEMS2_KFivE.constprop.592
	leave
	.cfi_restore 5
	.cfi_def_cfa 4, 4
	ret
	.cfi_endproc
LFE10001:
	.section	.text.unlikely._ZNK7testing8internal12UnitTestImpl19disabled_test_countEv,"x"
LCOLDE124:
	.section	.text$_ZNK7testing8internal12UnitTestImpl19disabled_test_countEv,"x"
LHOTE124:
	.section	.text.unlikely._ZNK7testing8internal12UnitTestImpl21reportable_test_countEv,"x"
	.align 2
LCOLDB125:
	.section	.text$_ZNK7testing8internal12UnitTestImpl21reportable_test_countEv,"x"
LHOTB125:
	.align 2
	.globl	__ZNK7testing8internal12UnitTestImpl21reportable_test_countEv
	.def	__ZNK7testing8internal12UnitTestImpl21reportable_test_countEv;	.scl	2;	.type	32;	.endef
__ZNK7testing8internal12UnitTestImpl21reportable_test_countEv:
LFB10002:
	.cfi_startproc
	pushl	%ebp
	.cfi_def_cfa_offset 8
	.cfi_offset 5, -8
	leal	72(%ecx), %eax
	movl	$__ZNK7testing8TestCase21reportable_test_countEv, %edx
	xorl	%ecx, %ecx
	movl	%esp, %ebp
	.cfi_def_cfa_register 5
	subl	$8, %esp
	call	__ZN7testing8internalL19SumOverTestCaseListERKSt6vectorIPNS_8TestCaseESaIS3_EEMS2_KFivE.constprop.592
	leave
	.cfi_restore 5
	.cfi_def_cfa 4, 4
	ret
	.cfi_endproc
LFE10002:
	.section	.text.unlikely._ZNK7testing8internal12UnitTestImpl21reportable_test_countEv,"x"
LCOLDE125:
	.section	.text$_ZNK7testing8internal12UnitTestImpl21reportable_test_countEv,"x"
LHOTE125:
	.section	.text.unlikely._ZNK7testing8internal12UnitTestImpl16total_test_countEv,"x"
	.align 2
LCOLDB126:
	.section	.text$_ZNK7testing8internal12UnitTestImpl16total_test_countEv,"x"
LHOTB126:
	.align 2
	.globl	__ZNK7testing8internal12UnitTestImpl16total_test_countEv
	.def	__ZNK7testing8internal12UnitTestImpl16total_test_countEv;	.scl	2;	.type	32;	.endef
__ZNK7testing8internal12UnitTestImpl16total_test_countEv:
LFB10003:
	.cfi_startproc
	pushl	%ebp
	.cfi_def_cfa_offset 8
	.cfi_offset 5, -8
	leal	72(%ecx), %eax
	movl	$__ZNK7testing8TestCase16total_test_countEv, %edx
	xorl	%ecx, %ecx
	movl	%esp, %ebp
	.cfi_def_cfa_register 5
	subl	$8, %esp
	call	__ZN7testing8internalL19SumOverTestCaseListERKSt6vectorIPNS_8TestCaseESaIS3_EEMS2_KFivE.constprop.592
	leave
	.cfi_restore 5
	.cfi_def_cfa 4, 4
	ret
	.cfi_endproc
LFE10003:
	.section	.text.unlikely._ZNK7testing8internal12UnitTestImpl16total_test_countEv,"x"
LCOLDE126:
	.section	.text$_ZNK7testing8internal12UnitTestImpl16total_test_countEv,"x"
LHOTE126:
	.section	.text.unlikely._ZNK7testing8internal12UnitTestImpl17test_to_run_countEv,"x"
	.align 2
LCOLDB127:
	.section	.text$_ZNK7testing8internal12UnitTestImpl17test_to_run_countEv,"x"
LHOTB127:
	.align 2
	.globl	__ZNK7testing8internal12UnitTestImpl17test_to_run_countEv
	.def	__ZNK7testing8internal12UnitTestImpl17test_to_run_countEv;	.scl	2;	.type	32;	.endef
__ZNK7testing8internal12UnitTestImpl17test_to_run_countEv:
LFB10004:
	.cfi_startproc
	pushl	%ebp
	.cfi_def_cfa_offset 8
	.cfi_offset 5, -8
	leal	72(%ecx), %eax
	movl	$__ZNK7testing8TestCase17test_to_run_countEv, %edx
	xorl	%ecx, %ecx
	movl	%esp, %ebp
	.cfi_def_cfa_register 5
	subl	$8, %esp
	call	__ZN7testing8internalL19SumOverTestCaseListERKSt6vectorIPNS_8TestCaseESaIS3_EEMS2_KFivE.constprop.592
	leave
	.cfi_restore 5
	.cfi_def_cfa 4, 4
	ret
	.cfi_endproc
LFE10004:
	.section	.text.unlikely._ZNK7testing8internal12UnitTestImpl17test_to_run_countEv,"x"
LCOLDE127:
	.section	.text$_ZNK7testing8internal12UnitTestImpl17test_to_run_countEv,"x"
LHOTE127:
	.section	.text.unlikely._ZN7testing8internal12UnitTestImpl28CurrentOsStackTraceExceptTopB5cxx11Ei,"x"
	.align 2
LCOLDB128:
	.section	.text$_ZN7testing8internal12UnitTestImpl28CurrentOsStackTraceExceptTopB5cxx11Ei,"x"
LHOTB128:
	.align 2
	.globl	__ZN7testing8internal12UnitTestImpl28CurrentOsStackTraceExceptTopB5cxx11Ei
	.def	__ZN7testing8internal12UnitTestImpl28CurrentOsStackTraceExceptTopB5cxx11Ei;	.scl	2;	.type	32;	.endef
__ZN7testing8internal12UnitTestImpl28CurrentOsStackTraceExceptTopB5cxx11Ei:
LFB10005:
	.cfi_startproc
	pushl	%ebp
	.cfi_def_cfa_offset 8
	.cfi_offset 5, -8
	movl	%esp, %ebp
	.cfi_def_cfa_register 5
	pushl	%ebx
	.cfi_offset 3, -12
	movl	%ecx, %ebx
	subl	$20, %esp
	movl	$LC72, (%esp)
	call	__ZNSt7__cxx1112basic_stringIcSt11char_traitsIcESaIcEEC2EPKcRKS3_.isra.402
	pushl	%eax
	movl	%ebx, %eax
	movl	-4(%ebp), %ebx
	leave
	.cfi_restore 5
	.cfi_restore 3
	.cfi_def_cfa 4, 4
	ret	$8
	.cfi_endproc
LFE10005:
	.section	.text.unlikely._ZN7testing8internal12UnitTestImpl28CurrentOsStackTraceExceptTopB5cxx11Ei,"x"
LCOLDE128:
	.section	.text$_ZN7testing8internal12UnitTestImpl28CurrentOsStackTraceExceptTopB5cxx11Ei,"x"
LHOTE128:
	.section	.text.unlikely._ZN7testing8internal15GetTimeInMillisEv,"x"
LCOLDB129:
	.section	.text$_ZN7testing8internal15GetTimeInMillisEv,"x"
LHOTB129:
	.globl	__ZN7testing8internal15GetTimeInMillisEv
	.def	__ZN7testing8internal15GetTimeInMillisEv;	.scl	2;	.type	32;	.endef
__ZN7testing8internal15GetTimeInMillisEv:
LFB10006:
	.cfi_startproc
	pushl	%ebp
	.cfi_def_cfa_offset 8
	.cfi_offset 5, -8
	movl	%esp, %ebp
	.cfi_def_cfa_register 5
	pushl	%esi
	pushl	%ebx
	leal	-16(%ebp), %eax
	.cfi_offset 6, -12
	.cfi_offset 3, -16
	movl	$1000, %esi
	subl	$32, %esp
	movl	$0, 4(%esp)
	movl	%eax, (%esp)
	call	_gettimeofday
	movl	-12(%ebp), %eax
	cltd
	idivl	%esi
	movl	%eax, %ecx
	movl	%eax, %ebx
	movl	%esi, %eax
	imull	-16(%ebp)
	sarl	$31, %ebx
	addl	%ecx, %eax
	adcl	%ebx, %edx
	addl	$32, %esp
	popl	%ebx
	.cfi_restore 3
	popl	%esi
	.cfi_restore 6
	popl	%ebp
	.cfi_restore 5
	.cfi_def_cfa 4, 4
	ret
	.cfi_endproc
LFE10006:
	.section	.text.unlikely._ZN7testing8internal15GetTimeInMillisEv,"x"
LCOLDE129:
	.section	.text$_ZN7testing8internal15GetTimeInMillisEv,"x"
LHOTE129:
	.section	.text.unlikely._ZN7testing8internal6String13CStringEqualsEPKcS3_,"x"
	.align 2
LCOLDB130:
	.section	.text$_ZN7testing8internal6String13CStringEqualsEPKcS3_,"x"
LHOTB130:
	.align 2
	.globl	__ZN7testing8internal6String13CStringEqualsEPKcS3_
	.def	__ZN7testing8internal6String13CStringEqualsEPKcS3_;	.scl	2;	.type	32;	.endef
__ZN7testing8internal6String13CStringEqualsEPKcS3_:
LFB10007:
	.cfi_startproc
	pushl	%ebp
	.cfi_def_cfa_offset 8
	.cfi_offset 5, -8
	movl	%esp, %ebp
	.cfi_def_cfa_register 5
	subl	$24, %esp
	movl	8(%ebp), %ecx
	movl	12(%ebp), %edx
	testl	%ecx, %ecx
	jne	L425
	testl	%edx, %edx
	jmp	L429
L425:
	xorl	%eax, %eax
	testl	%edx, %edx
	je	L426
	movl	%edx, 4(%esp)
	movl	%ecx, (%esp)
	call	_strcmp
	testl	%eax, %eax
L429:
	sete	%al
L426:
	leave
	.cfi_restore 5
	.cfi_def_cfa 4, 4
	ret
	.cfi_endproc
LFE10007:
	.section	.text.unlikely._ZN7testing8internal6String13CStringEqualsEPKcS3_,"x"
LCOLDE130:
	.section	.text$_ZN7testing8internal6String13CStringEqualsEPKcS3_,"x"
LHOTE130:
	.section	.text.unlikely._ZN7testing7MessageC2Ev,"x"
	.align 2
LCOLDB131:
	.section	.text$_ZN7testing7MessageC2Ev,"x"
LHOTB131:
	.align 2
	.globl	__ZN7testing7MessageC2Ev
	.def	__ZN7testing7MessageC2Ev;	.scl	2;	.type	32;	.endef
__ZN7testing7MessageC2Ev:
LFB10010:
	.cfi_startproc
	pushl	%ebp
	.cfi_def_cfa_offset 8
	.cfi_offset 5, -8
	movl	%esp, %ebp
	.cfi_def_cfa_register 5
	pushl	%esi
	pushl	%ebx
	.cfi_offset 6, -12
	.cfi_offset 3, -16
	movl	%ecx, %esi
	subl	$16, %esp
	movl	$208, (%esp)
	call	__Znwj
	movl	$24, (%esp)
	movl	%eax, %ecx
	movl	%eax, %ebx
	call	__ZNSt7__cxx1118basic_stringstreamIcSt11char_traitsIcESaIcEEC1ESt13_Ios_Openmode
	pushl	%eax
	movl	%ebx, (%esi)
	addl	$8, %ebx
	movl	%ebx, (%esp)
	movl	$17, 4(%esp)
	call	__ZStlsIcSt11char_traitsIcEERSt13basic_ostreamIT_T0_ES6_St13_Setprecision
	leal	-8(%ebp), %esp
	popl	%ebx
	.cfi_restore 3
	popl	%esi
	.cfi_restore 6
	popl	%ebp
	.cfi_restore 5
	.cfi_def_cfa 4, 4
	ret
	.cfi_endproc
LFE10010:
	.section	.text.unlikely._ZN7testing7MessageC2Ev,"x"
LCOLDE131:
	.section	.text$_ZN7testing7MessageC2Ev,"x"
LHOTE131:
	.globl	__ZN7testing7MessageC1Ev
	.def	__ZN7testing7MessageC1Ev;	.scl	2;	.type	32;	.endef
	.set	__ZN7testing7MessageC1Ev,__ZN7testing7MessageC2Ev
	.section	.text.unlikely._ZN7testing15AssertionResultC2ERKS0_,"x"
	.align 2
LCOLDB132:
	.section	.text$_ZN7testing15AssertionResultC2ERKS0_,"x"
LHOTB132:
	.align 2
	.globl	__ZN7testing15AssertionResultC2ERKS0_
	.def	__ZN7testing15AssertionResultC2ERKS0_;	.scl	2;	.type	32;	.endef
__ZN7testing15AssertionResultC2ERKS0_:
LFB10017:
	.cfi_startproc
	pushl	%ebp
	.cfi_def_cfa_offset 8
	.cfi_offset 5, -8
	movl	%esp, %ebp
	.cfi_def_cfa_register 5
	pushl	%edi
	pushl	%esi
	pushl	%ebx
	.cfi_offset 7, -12
	.cfi_offset 6, -16
	.cfi_offset 3, -20
	movl	%ecx, %esi
	subl	$28, %esp
	movl	8(%ebp), %eax
	movl	4(%eax), %ebx
	movb	(%eax), %dl
	testl	%ebx, %ebx
	movb	%dl, (%ecx)
	je	L433
	movl	$24, (%esp)
	call	__Znwj
	movl	%ebx, (%esp)
	movl	%eax, %ecx
	movl	%eax, %edi
	call	__ZNSt7__cxx1112basic_stringIcSt11char_traitsIcESaIcEEC1ERKS4_
	pushl	%eax
	movl	%edi, %ebx
L433:
	movl	%ebx, 4(%esi)
	leal	-12(%ebp), %esp
	popl	%ebx
	.cfi_restore 3
	popl	%esi
	.cfi_restore 6
	popl	%edi
	.cfi_restore 7
	popl	%ebp
	.cfi_restore 5
	.cfi_def_cfa 4, 4
	ret	$4
	.cfi_endproc
LFE10017:
	.section	.text.unlikely._ZN7testing15AssertionResultC2ERKS0_,"x"
LCOLDE132:
	.section	.text$_ZN7testing15AssertionResultC2ERKS0_,"x"
LHOTE132:
	.globl	__ZN7testing15AssertionResultC1ERKS0_
	.def	__ZN7testing15AssertionResultC1ERKS0_;	.scl	2;	.type	32;	.endef
	.set	__ZN7testing15AssertionResultC1ERKS0_,__ZN7testing15AssertionResultC2ERKS0_
	.section	.text.unlikely._ZN7testing16AssertionSuccessEv,"x"
LCOLDB133:
	.section	.text$_ZN7testing16AssertionSuccessEv,"x"
LHOTB133:
	.globl	__ZN7testing16AssertionSuccessEv
	.def	__ZN7testing16AssertionSuccessEv;	.scl	2;	.type	32;	.endef
__ZN7testing16AssertionSuccessEv:
LFB10020:
	.cfi_startproc
	pushl	%ebp
	.cfi_def_cfa_offset 8
	.cfi_offset 5, -8
	movl	%esp, %ebp
	.cfi_def_cfa_register 5
	movl	8(%ebp), %eax
	movb	$1, (%eax)
	movl	$0, 4(%eax)
	popl	%ebp
	.cfi_restore 5
	.cfi_def_cfa 4, 4
	ret
	.cfi_endproc
LFE10020:
	.section	.text.unlikely._ZN7testing16AssertionSuccessEv,"x"
LCOLDE133:
	.section	.text$_ZN7testing16AssertionSuccessEv,"x"
LHOTE133:
	.section	.text.unlikely._ZN7testing16AssertionFailureEv,"x"
LCOLDB134:
	.section	.text$_ZN7testing16AssertionFailureEv,"x"
LHOTB134:
	.globl	__ZN7testing16AssertionFailureEv
	.def	__ZN7testing16AssertionFailureEv;	.scl	2;	.type	32;	.endef
__ZN7testing16AssertionFailureEv:
LFB10021:
	.cfi_startproc
	pushl	%ebp
	.cfi_def_cfa_offset 8
	.cfi_offset 5, -8
	movl	%esp, %ebp
	.cfi_def_cfa_register 5
	movl	8(%ebp), %eax
	movb	$0, (%eax)
	movl	$0, 4(%eax)
	popl	%ebp
	.cfi_restore 5
	.cfi_def_cfa 4, 4
	ret
	.cfi_endproc
LFE10021:
	.section	.text.unlikely._ZN7testing16AssertionFailureEv,"x"
LCOLDE134:
	.section	.text$_ZN7testing16AssertionFailureEv,"x"
LHOTE134:
	.section	.text.unlikely._ZN7testing8internal6String17WideCStringEqualsEPKwS3_,"x"
	.align 2
LCOLDB135:
	.section	.text$_ZN7testing8internal6String17WideCStringEqualsEPKwS3_,"x"
LHOTB135:
	.align 2
	.globl	__ZN7testing8internal6String17WideCStringEqualsEPKwS3_
	.def	__ZN7testing8internal6String17WideCStringEqualsEPKwS3_;	.scl	2;	.type	32;	.endef
__ZN7testing8internal6String17WideCStringEqualsEPKwS3_:
LFB10060:
	.cfi_startproc
	pushl	%ebp
	.cfi_def_cfa_offset 8
	.cfi_offset 5, -8
	movl	%esp, %ebp
	.cfi_def_cfa_register 5
	subl	$24, %esp
	movl	8(%ebp), %ecx
	movl	12(%ebp), %edx
	testl	%ecx, %ecx
	jne	L443
	testl	%edx, %edx
	jmp	L447
L443:
	xorl	%eax, %eax
	testl	%edx, %edx
	je	L444
	movl	%edx, 4(%esp)
	movl	%ecx, (%esp)
	call	_wcscmp
	testl	%eax, %eax
L447:
	sete	%al
L444:
	leave
	.cfi_restore 5
	.cfi_def_cfa 4, 4
	ret
	.cfi_endproc
LFE10060:
	.section	.text.unlikely._ZN7testing8internal6String17WideCStringEqualsEPKwS3_,"x"
LCOLDE135:
	.section	.text$_ZN7testing8internal6String17WideCStringEqualsEPKwS3_,"x"
LHOTE135:
	.section	.text.unlikely._ZN7testing8internal6String28CaseInsensitiveCStringEqualsEPKcS3_,"x"
	.align 2
LCOLDB136:
	.section	.text$_ZN7testing8internal6String28CaseInsensitiveCStringEqualsEPKcS3_,"x"
LHOTB136:
	.align 2
	.globl	__ZN7testing8internal6String28CaseInsensitiveCStringEqualsEPKcS3_
	.def	__ZN7testing8internal6String28CaseInsensitiveCStringEqualsEPKcS3_;	.scl	2;	.type	32;	.endef
__ZN7testing8internal6String28CaseInsensitiveCStringEqualsEPKcS3_:
LFB10063:
	.cfi_startproc
	pushl	%ebp
	.cfi_def_cfa_offset 8
	.cfi_offset 5, -8
	movl	%esp, %ebp
	.cfi_def_cfa_register 5
	subl	$24, %esp
	movl	8(%ebp), %ecx
	movl	12(%ebp), %edx
	testl	%ecx, %ecx
	jne	L449
	testl	%edx, %edx
	jmp	L453
L449:
	xorl	%eax, %eax
	testl	%edx, %edx
	je	L450
	movl	%edx, 4(%esp)
	movl	%ecx, (%esp)
	call	*__imp___stricmp
	testl	%eax, %eax
L453:
	sete	%al
L450:
	leave
	.cfi_restore 5
	.cfi_def_cfa 4, 4
	ret
	.cfi_endproc
LFE10063:
	.section	.text.unlikely._ZN7testing8internal6String28CaseInsensitiveCStringEqualsEPKcS3_,"x"
LCOLDE136:
	.section	.text$_ZN7testing8internal6String28CaseInsensitiveCStringEqualsEPKcS3_,"x"
LHOTE136:
	.section	.text.unlikely._ZN7testing8internal6String32CaseInsensitiveWideCStringEqualsEPKwS3_,"x"
	.align 2
LCOLDB137:
	.section	.text$_ZN7testing8internal6String32CaseInsensitiveWideCStringEqualsEPKwS3_,"x"
LHOTB137:
	.align 2
	.globl	__ZN7testing8internal6String32CaseInsensitiveWideCStringEqualsEPKwS3_
	.def	__ZN7testing8internal6String32CaseInsensitiveWideCStringEqualsEPKwS3_;	.scl	2;	.type	32;	.endef
__ZN7testing8internal6String32CaseInsensitiveWideCStringEqualsEPKwS3_:
LFB10064:
	.cfi_startproc
	pushl	%ebp
	.cfi_def_cfa_offset 8
	.cfi_offset 5, -8
	movl	%esp, %ebp
	.cfi_def_cfa_register 5
	subl	$24, %esp
	movl	8(%ebp), %ecx
	movl	12(%ebp), %edx
	testl	%ecx, %ecx
	jne	L455
	testl	%edx, %edx
	jmp	L459
L455:
	xorl	%eax, %eax
	testl	%edx, %edx
	je	L456
	movl	%edx, 4(%esp)
	movl	%ecx, (%esp)
	call	*__imp___wcsicmp
	testl	%eax, %eax
L459:
	sete	%al
L456:
	leave
	.cfi_restore 5
	.cfi_def_cfa 4, 4
	ret
	.cfi_endproc
LFE10064:
	.section	.text.unlikely._ZN7testing8internal6String32CaseInsensitiveWideCStringEqualsEPKwS3_,"x"
LCOLDE137:
	.section	.text$_ZN7testing8internal6String32CaseInsensitiveWideCStringEqualsEPKwS3_,"x"
LHOTE137:
	.section	.text.unlikely._ZN7testing8internal6String23EndsWithCaseInsensitiveERKNSt7__cxx1112basic_stringIcSt11char_traitsIcESaIcEEES9_,"x"
	.align 2
LCOLDB138:
	.section	.text$_ZN7testing8internal6String23EndsWithCaseInsensitiveERKNSt7__cxx1112basic_stringIcSt11char_traitsIcESaIcEEES9_,"x"
LHOTB138:
	.align 2
	.globl	__ZN7testing8internal6String23EndsWithCaseInsensitiveERKNSt7__cxx1112basic_stringIcSt11char_traitsIcESaIcEEES9_
	.def	__ZN7testing8internal6String23EndsWithCaseInsensitiveERKNSt7__cxx1112basic_stringIcSt11char_traitsIcESaIcEEES9_;	.scl	2;	.type	32;	.endef
__ZN7testing8internal6String23EndsWithCaseInsensitiveERKNSt7__cxx1112basic_stringIcSt11char_traitsIcESaIcEEES9_:
LFB10065:
	.cfi_startproc
	pushl	%ebp
	.cfi_def_cfa_offset 8
	.cfi_offset 5, -8
	movl	%esp, %ebp
	.cfi_def_cfa_register 5
	pushl	%ebx
	.cfi_offset 3, -12
	movl	8(%ebp), %edx
	movl	12(%ebp), %ebx
	movl	4(%edx), %eax
	movl	4(%ebx), %ecx
	cmpl	%ecx, %eax
	jb	L461
	movl	(%ebx), %ebx
	subl	%ecx, %eax
	movl	%ebx, 12(%ebp)
	addl	(%edx), %eax
	popl	%ebx
	.cfi_remember_state
	.cfi_restore 3
	movl	%eax, 8(%ebp)
	popl	%ebp
	.cfi_restore 5
	.cfi_def_cfa 4, 4
	jmp	__ZN7testing8internal6String28CaseInsensitiveCStringEqualsEPKcS3_
L461:
	.cfi_restore_state
	xorl	%eax, %eax
	popl	%ebx
	.cfi_restore 3
	popl	%ebp
	.cfi_restore 5
	.cfi_def_cfa 4, 4
	ret
	.cfi_endproc
LFE10065:
	.section	.text.unlikely._ZN7testing8internal6String23EndsWithCaseInsensitiveERKNSt7__cxx1112basic_stringIcSt11char_traitsIcESaIcEEES9_,"x"
LCOLDE138:
	.section	.text$_ZN7testing8internal6String23EndsWithCaseInsensitiveERKNSt7__cxx1112basic_stringIcSt11char_traitsIcESaIcEEES9_,"x"
LHOTE138:
	.section	.text.unlikely._ZN7testing8internal6String15FormatIntWidth2B5cxx11Ei,"x"
	.align 2
LCOLDB139:
	.section	.text$_ZN7testing8internal6String15FormatIntWidth2B5cxx11Ei,"x"
LHOTB139:
	.align 2
	.globl	__ZN7testing8internal6String15FormatIntWidth2B5cxx11Ei
	.def	__ZN7testing8internal6String15FormatIntWidth2B5cxx11Ei;	.scl	2;	.type	32;	.endef
__ZN7testing8internal6String15FormatIntWidth2B5cxx11Ei:
LFB10066:
	.cfi_startproc
	pushl	%ebp
	.cfi_def_cfa_offset 8
	.cfi_offset 5, -8
	movl	%esp, %ebp
	.cfi_def_cfa_register 5
	subl	$232, %esp
	leal	-216(%ebp), %ecx
	movl	$24, (%esp)
	call	__ZNSt7__cxx1118basic_stringstreamIcSt11char_traitsIcESaIcEEC1ESt13_Ios_Openmode
	pushl	%eax
	leal	-208(%ebp), %eax
	movb	$48, 4(%esp)
	movl	%eax, (%esp)
	call	__ZStlsIcSt11char_traitsIcEERSt13basic_ostreamIT_T0_ES6_St8_SetfillIS3_E
	movl	(%eax), %edx
	movl	%eax, %ecx
	movl	-12(%edx), %edx
	movl	$2, 8(%eax,%edx)
	movl	12(%ebp), %edx
	movl	%edx, (%esp)
	call	__ZNSolsEi
	leal	-204(%ebp), %eax
	movl	8(%ebp), %ecx
	pushl	%edx
	movl	%eax, (%esp)
	call	__ZNKSt7__cxx1115basic_stringbufIcSt11char_traitsIcESaIcEE3strEv
	pushl	%ecx
	leal	-216(%ebp), %ecx
	call	__ZNSt7__cxx1118basic_stringstreamIcSt11char_traitsIcESaIcEED1Ev
	movl	8(%ebp), %eax
	leave
	.cfi_restore 5
	.cfi_def_cfa 4, 4
	ret
	.cfi_endproc
LFE10066:
	.section	.text.unlikely._ZN7testing8internal6String15FormatIntWidth2B5cxx11Ei,"x"
LCOLDE139:
	.section	.text$_ZN7testing8internal6String15FormatIntWidth2B5cxx11Ei,"x"
LHOTE139:
	.section	.text.unlikely._ZN7testing8internal6String12FormatHexIntB5cxx11Ei,"x"
	.align 2
LCOLDB140:
	.section	.text$_ZN7testing8internal6String12FormatHexIntB5cxx11Ei,"x"
LHOTB140:
	.align 2
	.globl	__ZN7testing8internal6String12FormatHexIntB5cxx11Ei
	.def	__ZN7testing8internal6String12FormatHexIntB5cxx11Ei;	.scl	2;	.type	32;	.endef
__ZN7testing8internal6String12FormatHexIntB5cxx11Ei:
LFB10067:
	.cfi_startproc
	pushl	%ebp
	.cfi_def_cfa_offset 8
	.cfi_offset 5, -8
	movl	%esp, %ebp
	.cfi_def_cfa_register 5
	subl	$232, %esp
	leal	-216(%ebp), %ecx
	movl	$24, (%esp)
	call	__ZNSt7__cxx1118basic_stringstreamIcSt11char_traitsIcESaIcEEC1ESt13_Ios_Openmode
	pushl	%eax
	leal	-208(%ebp), %ecx
	movl	$__ZSt3hexRSt8ios_base, (%esp)
	call	__ZNSolsEPFRSt8ios_baseS0_E
	pushl	%edx
	movl	%eax, %ecx
	movl	$__ZSt9uppercaseRSt8ios_base, (%esp)
	call	__ZNSolsEPFRSt8ios_baseS0_E
	movl	12(%ebp), %edx
	pushl	%ecx
	movl	%eax, %ecx
	movl	%edx, (%esp)
	call	__ZNSolsEi
	movl	8(%ebp), %ecx
	pushl	%eax
	leal	-204(%ebp), %eax
	movl	%eax, (%esp)
	call	__ZNKSt7__cxx1115basic_stringbufIcSt11char_traitsIcESaIcEE3strEv
	leal	-216(%ebp), %ecx
	pushl	%eax
	call	__ZNSt7__cxx1118basic_stringstreamIcSt11char_traitsIcESaIcEED1Ev
	movl	8(%ebp), %eax
	leave
	.cfi_restore 5
	.cfi_def_cfa 4, 4
	ret
	.cfi_endproc
LFE10067:
	.section	.text.unlikely._ZN7testing8internal6String12FormatHexIntB5cxx11Ei,"x"
LCOLDE140:
	.section	.text$_ZN7testing8internal6String12FormatHexIntB5cxx11Ei,"x"
LHOTE140:
	.section	.text.unlikely._ZN7testing8internal6String10FormatByteB5cxx11Eh,"x"
	.align 2
LCOLDB141:
	.section	.text$_ZN7testing8internal6String10FormatByteB5cxx11Eh,"x"
LHOTB141:
	.align 2
	.globl	__ZN7testing8internal6String10FormatByteB5cxx11Eh
	.def	__ZN7testing8internal6String10FormatByteB5cxx11Eh;	.scl	2;	.type	32;	.endef
__ZN7testing8internal6String10FormatByteB5cxx11Eh:
LFB10068:
	.cfi_startproc
	pushl	%ebp
	.cfi_def_cfa_offset 8
	.cfi_offset 5, -8
	movl	%esp, %ebp
	.cfi_def_cfa_register 5
	pushl	%ebx
	leal	-216(%ebp), %ecx
	subl	$228, %esp
	.cfi_offset 3, -12
	movl	12(%ebp), %ebx
	movl	$24, (%esp)
	call	__ZNSt7__cxx1118basic_stringstreamIcSt11char_traitsIcESaIcEEC1ESt13_Ios_Openmode
	pushl	%eax
	leal	-208(%ebp), %eax
	movzbl	%bl, %ebx
	movb	$48, 4(%esp)
	movl	%eax, (%esp)
	call	__ZStlsIcSt11char_traitsIcEERSt13basic_ostreamIT_T0_ES6_St8_SetfillIS3_E
	movl	(%eax), %edx
	movl	%eax, %ecx
	movl	-12(%edx), %edx
	movl	$2, 8(%eax,%edx)
	movl	$__ZSt3hexRSt8ios_base, (%esp)
	call	__ZNSolsEPFRSt8ios_baseS0_E
	pushl	%edx
	movl	%eax, %ecx
	movl	$__ZSt9uppercaseRSt8ios_base, (%esp)
	call	__ZNSolsEPFRSt8ios_baseS0_E
	pushl	%ecx
	movl	%eax, %ecx
	movl	%ebx, (%esp)
	call	__ZNSolsEj
	leal	-204(%ebp), %eax
	pushl	%ebx
	movl	8(%ebp), %ecx
	movl	%eax, (%esp)
	call	__ZNKSt7__cxx1115basic_stringbufIcSt11char_traitsIcESaIcEE3strEv
	leal	-216(%ebp), %ecx
	pushl	%eax
	call	__ZNSt7__cxx1118basic_stringstreamIcSt11char_traitsIcESaIcEED1Ev
	movl	8(%ebp), %eax
	movl	-4(%ebp), %ebx
	leave
	.cfi_restore 5
	.cfi_restore 3
	.cfi_def_cfa 4, 4
	ret
	.cfi_endproc
LFE10068:
	.section	.text.unlikely._ZN7testing8internal6String10FormatByteB5cxx11Eh,"x"
LCOLDE141:
	.section	.text$_ZN7testing8internal6String10FormatByteB5cxx11Eh,"x"
LHOTE141:
	.section .rdata,"dr"
LC142:
	.ascii "\\0\0"
	.section	.text.unlikely._ZN7testing8internal20StringStreamToStringEPNSt7__cxx1118basic_stringstreamIcSt11char_traitsIcESaIcEEE,"x"
LCOLDB143:
	.section	.text$_ZN7testing8internal20StringStreamToStringEPNSt7__cxx1118basic_stringstreamIcSt11char_traitsIcESaIcEEE,"x"
LHOTB143:
	.globl	__ZN7testing8internal20StringStreamToStringEPNSt7__cxx1118basic_stringstreamIcSt11char_traitsIcESaIcEEE
	.def	__ZN7testing8internal20StringStreamToStringEPNSt7__cxx1118basic_stringstreamIcSt11char_traitsIcESaIcEEE;	.scl	2;	.type	32;	.endef
__ZN7testing8internal20StringStreamToStringEPNSt7__cxx1118basic_stringstreamIcSt11char_traitsIcESaIcEEE:
LFB10069:
	.cfi_startproc
	pushl	%ebp
	.cfi_def_cfa_offset 8
	.cfi_offset 5, -8
	movl	%esp, %ebp
	.cfi_def_cfa_register 5
	pushl	%edi
	pushl	%esi
	pushl	%ebx
	leal	-48(%ebp), %ecx
	subl	$60, %esp
	.cfi_offset 7, -12
	.cfi_offset 6, -16
	.cfi_offset 3, -20
	movl	12(%ebp), %eax
	movl	8(%ebp), %ebx
	addl	$12, %eax
	movl	%eax, (%esp)
	call	__ZNKSt7__cxx1115basic_stringbufIcSt11char_traitsIcESaIcEE3strEv
	movl	-44(%ebp), %eax
	movl	-48(%ebp), %esi
	movl	%ebx, %ecx
	pushl	%edx
	leal	8(%ebx), %edx
	movl	$0, 4(%ebx)
	movb	$0, 8(%ebx)
	leal	(%esi,%eax), %edi
	addl	%eax, %eax
	movl	%edx, (%ebx)
	movl	%eax, (%esp)
	call	__ZNSt7__cxx1112basic_stringIcSt11char_traitsIcESaIcEE7reserveEj
	pushl	%ecx
L473:
	cmpl	%edi, %esi
	je	L470
	movsbl	(%esi), %eax
	testb	%al, %al
	jne	L471
	movl	%ebx, %ecx
	movl	$LC142, (%esp)
	call	__ZNSt7__cxx1112basic_stringIcSt11char_traitsIcESaIcEEpLEPKc
	jmp	L475
L471:
	movl	%eax, (%esp)
	movl	%ebx, %ecx
	call	__ZNSt7__cxx1112basic_stringIcSt11char_traitsIcESaIcEE9push_backEc
L475:
	incl	%esi
	pushl	%eax
	jmp	L473
L470:
	leal	-48(%ebp), %ecx
	call	__ZNSt7__cxx1112basic_stringIcSt11char_traitsIcESaIcEE10_M_disposeEv
	leal	-12(%ebp), %esp
	movl	%ebx, %eax
	popl	%ebx
	.cfi_restore 3
	popl	%esi
	.cfi_restore 6
	popl	%edi
	.cfi_restore 7
	popl	%ebp
	.cfi_restore 5
	.cfi_def_cfa 4, 4
	ret
	.cfi_endproc
LFE10069:
	.section	.text.unlikely._ZN7testing8internal20StringStreamToStringEPNSt7__cxx1118basic_stringstreamIcSt11char_traitsIcESaIcEEE,"x"
LCOLDE143:
	.section	.text$_ZN7testing8internal20StringStreamToStringEPNSt7__cxx1118basic_stringstreamIcSt11char_traitsIcESaIcEEE,"x"
LHOTE143:
	.section	.text.unlikely._ZNK7testing7Message9GetStringB5cxx11Ev,"x"
	.align 2
LCOLDB144:
	.section	.text$_ZNK7testing7Message9GetStringB5cxx11Ev,"x"
LHOTB144:
	.align 2
	.globl	__ZNK7testing7Message9GetStringB5cxx11Ev
	.def	__ZNK7testing7Message9GetStringB5cxx11Ev;	.scl	2;	.type	32;	.endef
__ZNK7testing7Message9GetStringB5cxx11Ev:
LFB10015:
	.cfi_startproc
	pushl	%ebp
	.cfi_def_cfa_offset 8
	.cfi_offset 5, -8
	movl	%esp, %ebp
	.cfi_def_cfa_register 5
	pushl	%ebx
	.cfi_offset 3, -12
	movl	%ecx, %ebx
	subl	$20, %esp
	movl	8(%ebp), %eax
	movl	(%eax), %eax
	movl	%ecx, (%esp)
	movl	%eax, 4(%esp)
	call	__ZN7testing8internal20StringStreamToStringEPNSt7__cxx1118basic_stringstreamIcSt11char_traitsIcESaIcEEE
	addl	$20, %esp
	movl	%ebx, %eax
	popl	%ebx
	.cfi_restore 3
	popl	%ebp
	.cfi_restore 5
	.cfi_def_cfa 4, 4
	ret	$4
	.cfi_endproc
LFE10015:
	.section	.text.unlikely._ZNK7testing7Message9GetStringB5cxx11Ev,"x"
LCOLDE144:
	.section	.text$_ZNK7testing7Message9GetStringB5cxx11Ev,"x"
LHOTE144:
	.section	.text$_ZN7testinglsERSoRKNS_7MessageE,"x"
	.linkonce discard
LCOLDB145:
LHOTB145:
	.globl	__ZN7testinglsERSoRKNS_7MessageE
	.def	__ZN7testinglsERSoRKNS_7MessageE;	.scl	2;	.type	32;	.endef
__ZN7testinglsERSoRKNS_7MessageE:
LFB2844:
	.cfi_startproc
	pushl	%ebp
	.cfi_def_cfa_offset 8
	.cfi_offset 5, -8
	movl	%esp, %ebp
	.cfi_def_cfa_register 5
	pushl	%ebx
	.cfi_offset 3, -12
	leal	-32(%ebp), %ebx
	subl	$68, %esp
	movl	12(%ebp), %eax
	movl	%ebx, %ecx
	movl	%eax, (%esp)
	call	__ZNK7testing7Message9GetStringB5cxx11Ev
	pushl	%eax
	movl	8(%ebp), %eax
	movl	%ebx, 4(%esp)
	movl	%eax, (%esp)
	call	__ZStlsIcSt11char_traitsIcESaIcEERSt13basic_ostreamIT_T0_ES7_RKNSt7__cxx1112basic_stringIS4_S5_T1_EE
	movl	%ebx, %ecx
	movl	%eax, -44(%ebp)
	call	__ZNSt7__cxx1112basic_stringIcSt11char_traitsIcESaIcEE10_M_disposeEv
	movl	-44(%ebp), %eax
	movl	-4(%ebp), %ebx
	leave
	.cfi_restore 5
	.cfi_restore 3
	.cfi_def_cfa 4, 4
	ret
	.cfi_endproc
LFE2844:
LCOLDE145:
LHOTE145:
	.section .rdata,"dr"
LC146:
	.ascii "gtest_\0"
	.section	.text.unlikely._ZN7testing8internalL12FlagToEnvVarEPKc,"x"
LCOLDB147:
	.section	.text$_ZN7testing8internalL12FlagToEnvVarEPKc,"x"
LHOTB147:
	.def	__ZN7testing8internalL12FlagToEnvVarEPKc;	.scl	3;	.type	32;	.endef
__ZN7testing8internalL12FlagToEnvVarEPKc:
LFB10490:
	.cfi_startproc
	pushl	%ebp
	.cfi_def_cfa_offset 8
	.cfi_offset 5, -8
	movl	%esp, %ebp
	.cfi_def_cfa_register 5
	pushl	%edi
	pushl	%esi
	pushl	%ebx
	.cfi_offset 7, -12
	.cfi_offset 6, -16
	.cfi_offset 3, -20
	leal	-52(%ebp), %ebx
	movl	%edx, %edi
	movl	%eax, %esi
	subl	$60, %esp
	movl	%ebx, %ecx
	call	__ZN7testing7MessageC1Ev
	movl	-52(%ebp), %eax
	movl	$LC146, 4(%esp)
	addl	$8, %eax
	movl	%eax, (%esp)
	call	__ZStlsISt11char_traitsIcEERSt13basic_ostreamIcT_ES5_PKc
	movl	%edi, (%esp)
	movl	%ebx, %ecx
	xorl	%edi, %edi
	call	__ZN7testing7MessagelsIKcEERS0_RKPT_.isra.120
	pushl	%edx
	leal	-48(%ebp), %ecx
	movl	%eax, (%esp)
	call	__ZNK7testing7Message9GetStringB5cxx11Ev
	pushl	%ecx
	movl	%ebx, %ecx
	call	__ZN7testing8internal10scoped_ptrINSt7__cxx1118basic_stringstreamIcSt11char_traitsIcESaIcEEEED4Ev.isra.151.constprop.635
	movl	%ebx, %ecx
	call	__ZN7testing7MessageC1Ev
L482:
	cmpl	-44(%ebp), %edi
	je	L481
	movl	-48(%ebp), %eax
	movzbl	(%eax,%edi), %eax
	incl	%edi
	movl	%eax, (%esp)
	call	*__imp__toupper
	movsbl	%al, %eax
	movl	%eax, 4(%esp)
	movl	-52(%ebp), %eax
	addl	$8, %eax
	movl	%eax, (%esp)
	call	__ZStlsISt11char_traitsIcEERSt13basic_ostreamIcT_ES5_c
	jmp	L482
L481:
	movl	%esi, %ecx
	movl	%ebx, (%esp)
	call	__ZNK7testing7Message9GetStringB5cxx11Ev
	pushl	%eax
	movl	%ebx, %ecx
	call	__ZN7testing8internal10scoped_ptrINSt7__cxx1118basic_stringstreamIcSt11char_traitsIcESaIcEEEED4Ev.isra.151.constprop.635
	leal	-48(%ebp), %ecx
	call	__ZNSt7__cxx1112basic_stringIcSt11char_traitsIcESaIcEE10_M_disposeEv
	leal	-12(%ebp), %esp
	movl	%esi, %eax
	popl	%ebx
	.cfi_restore 3
	popl	%esi
	.cfi_restore 6
	popl	%edi
	.cfi_restore 7
	popl	%ebp
	.cfi_restore 5
	.cfi_def_cfa 4, 4
	ret
	.cfi_endproc
LFE10490:
	.section	.text.unlikely._ZN7testing8internalL12FlagToEnvVarEPKc,"x"
LCOLDE147:
	.section	.text$_ZN7testing8internalL12FlagToEnvVarEPKc,"x"
LHOTE147:
	.section	.text.unlikely._ZN7testing7MessageC4ERKS0_.constprop.607,"x"
	.align 2
LCOLDB148:
LHOTB148:
	.align 2
	.def	__ZN7testing7MessageC4ERKS0_.constprop.607;	.scl	3;	.type	32;	.endef
__ZN7testing7MessageC4ERKS0_.constprop.607:
LFB13153:
	.cfi_startproc
	pushl	%ebp
	.cfi_def_cfa_offset 8
	.cfi_offset 5, -8
	movl	%esp, %ebp
	.cfi_def_cfa_register 5
	pushl	%esi
	pushl	%ebx
	.cfi_offset 6, -12
	.cfi_offset 3, -16
	movl	%ecx, %esi
	subl	$48, %esp
	movl	$208, (%esp)
	call	__Znwj
	movl	$24, (%esp)
	movl	%eax, %ecx
	movl	%eax, %ebx
	call	__ZNSt7__cxx1118basic_stringstreamIcSt11char_traitsIcESaIcEEC1ESt13_Ios_Openmode
	pushl	%eax
	movl	8(%ebp), %eax
	movl	%ebx, (%esi)
	leal	-32(%ebp), %ebx
	movl	%eax, (%esp)
	movl	%ebx, %ecx
	call	__ZNK7testing7Message9GetStringB5cxx11Ev
	movl	(%esi), %eax
	pushl	%edx
	movl	%ebx, 4(%esp)
	addl	$8, %eax
	movl	%eax, (%esp)
	call	__ZStlsIcSt11char_traitsIcESaIcEERSt13basic_ostreamIT_T0_ES7_RKNSt7__cxx1112basic_stringIS4_S5_T1_EE
	movl	%ebx, %ecx
	call	__ZNSt7__cxx1112basic_stringIcSt11char_traitsIcESaIcEE10_M_disposeEv
	leal	-8(%ebp), %esp
	popl	%ebx
	.cfi_restore 3
	popl	%esi
	.cfi_restore 6
	popl	%ebp
	.cfi_restore 5
	.cfi_def_cfa 4, 4
	ret	$4
	.cfi_endproc
LFE13153:
LCOLDE148:
LHOTE148:
	.section .rdata,"dr"
LC149:
	.ascii "\12\0"
	.section	.text.unlikely._ZN7testing8internal17AppendUserMessageERKNSt7__cxx1112basic_stringIcSt11char_traitsIcESaIcEEERKNS_7MessageE,"x"
LCOLDB150:
	.section	.text$_ZN7testing8internal17AppendUserMessageERKNSt7__cxx1112basic_stringIcSt11char_traitsIcESaIcEEERKNS_7MessageE,"x"
LHOTB150:
	.globl	__ZN7testing8internal17AppendUserMessageERKNSt7__cxx1112basic_stringIcSt11char_traitsIcESaIcEEERKNS_7MessageE
	.def	__ZN7testing8internal17AppendUserMessageERKNSt7__cxx1112basic_stringIcSt11char_traitsIcESaIcEEERKNS_7MessageE;	.scl	2;	.type	32;	.endef
__ZN7testing8internal17AppendUserMessageERKNSt7__cxx1112basic_stringIcSt11char_traitsIcESaIcEEERKNS_7MessageE:
LFB10070:
	.cfi_startproc
	pushl	%ebp
	.cfi_def_cfa_offset 8
	.cfi_offset 5, -8
	movl	%esp, %ebp
	.cfi_def_cfa_register 5
	pushl	%edi
	pushl	%esi
	pushl	%ebx
	.cfi_offset 7, -12
	.cfi_offset 6, -16
	.cfi_offset 3, -20
	leal	-72(%ebp), %esi
	subl	$76, %esp
	movl	16(%ebp), %eax
	movl	%esi, %ecx
	movl	12(%ebp), %edi
	movl	8(%ebp), %ebx
	movl	%eax, (%esp)
	call	__ZNK7testing7Message9GetStringB5cxx11Ev
	cmpl	$0, -68(%ebp)
	pushl	%eax
	movl	%edi, (%esp)
	jne	L487
	movl	%ebx, %ecx
	call	__ZNSt7__cxx1112basic_stringIcSt11char_traitsIcESaIcEEC1ERKS4_
	pushl	%eax
	jmp	L488
L487:
	leal	-48(%ebp), %ecx
	call	__ZNSt7__cxx1112basic_stringIcSt11char_traitsIcESaIcEEC1ERKS4_
	pushl	%eax
	leal	-48(%ebp), %ecx
	movl	$LC149, (%esp)
	call	__ZNSt7__cxx1112basic_stringIcSt11char_traitsIcESaIcEE6appendEPKc
	pushl	%edx
	leal	-48(%ebp), %ecx
	movl	%esi, (%esp)
	call	__ZNSt7__cxx1112basic_stringIcSt11char_traitsIcESaIcEE6appendERKS4_
	pushl	%ecx
	movl	%ebx, %ecx
	movl	%eax, (%esp)
	call	__ZNSt7__cxx1112basic_stringIcSt11char_traitsIcESaIcEEC1EOS4_
	leal	-48(%ebp), %ecx
	pushl	%edi
	call	__ZNSt7__cxx1112basic_stringIcSt11char_traitsIcESaIcEE10_M_disposeEv
L488:
	movl	%esi, %ecx
	call	__ZNSt7__cxx1112basic_stringIcSt11char_traitsIcESaIcEE10_M_disposeEv
	leal	-12(%ebp), %esp
	movl	%ebx, %eax
	popl	%ebx
	.cfi_restore 3
	popl	%esi
	.cfi_restore 6
	popl	%edi
	.cfi_restore 7
	popl	%ebp
	.cfi_restore 5
	.cfi_def_cfa 4, 4
	ret
	.cfi_endproc
LFE10070:
	.section	.text.unlikely._ZN7testing8internal17AppendUserMessageERKNSt7__cxx1112basic_stringIcSt11char_traitsIcESaIcEEERKNS_7MessageE,"x"
LCOLDE150:
	.section	.text$_ZN7testing8internal17AppendUserMessageERKNSt7__cxx1112basic_stringIcSt11char_traitsIcESaIcEEERKNS_7MessageE,"x"
LHOTE150:
	.section	.text.unlikely._ZN7testing10TestResultC2Ev,"x"
	.align 2
LCOLDB151:
	.section	.text$_ZN7testing10TestResultC2Ev,"x"
LHOTB151:
	.align 2
	.globl	__ZN7testing10TestResultC2Ev
	.def	__ZN7testing10TestResultC2Ev;	.scl	2;	.type	32;	.endef
__ZN7testing10TestResultC2Ev:
LFB10072:
	.cfi_startproc
	pushl	%ebp
	.cfi_def_cfa_offset 8
	.cfi_offset 5, -8
	movl	$0, 4(%ecx)
	movl	$0, 8(%ecx)
	movl	$0, 12(%ecx)
	movl	%esp, %ebp
	.cfi_def_cfa_register 5
	movl	$0, 16(%ecx)
	movl	$0, 20(%ecx)
	movl	$0, 24(%ecx)
	movl	$0, 28(%ecx)
	movl	$0, 32(%ecx)
	movl	$0, 36(%ecx)
	popl	%ebp
	.cfi_restore 5
	.cfi_def_cfa 4, 4
	ret
	.cfi_endproc
LFE10072:
	.section	.text.unlikely._ZN7testing10TestResultC2Ev,"x"
LCOLDE151:
	.section	.text$_ZN7testing10TestResultC2Ev,"x"
LHOTE151:
	.globl	__ZN7testing10TestResultC1Ev
	.def	__ZN7testing10TestResultC1Ev;	.scl	2;	.type	32;	.endef
	.set	__ZN7testing10TestResultC1Ev,__ZN7testing10TestResultC2Ev
	.section .rdata,"dr"
LC152:
	.ascii "vector::_M_range_check: __n (which is %zu) >= this->size() (which is %zu)\0"
	.section	.text.unlikely._ZNK7testing10TestResult17GetTestPartResultEi,"x"
	.align 2
LCOLDB153:
	.section	.text$_ZNK7testing10TestResult17GetTestPartResultEi,"x"
LHOTB153:
	.align 2
	.globl	__ZNK7testing10TestResult17GetTestPartResultEi
	.def	__ZNK7testing10TestResult17GetTestPartResultEi;	.scl	2;	.type	32;	.endef
__ZNK7testing10TestResult17GetTestPartResultEi:
LFB10077:
	.cfi_startproc
	pushl	%ebp
	.cfi_def_cfa_offset 8
	.cfi_offset 5, -8
	movl	%esp, %ebp
	.cfi_def_cfa_register 5
	pushl	%ebx
	subl	$20, %esp
	.cfi_offset 3, -12
	movl	8(%ebp), %edx
	testl	%edx, %edx
	js	L493
	movl	4(%ecx), %ebx
	movl	8(%ecx), %ecx
	subl	%ebx, %ecx
	sarl	$4, %ecx
	imull	$-858993459, %ecx, %ecx
	cmpl	%ecx, %edx
	jge	L493
	jb	L499
	movl	%ecx, 8(%esp)
	movl	%edx, 4(%esp)
	movl	$LC152, (%esp)
	call	__ZSt24__throw_out_of_range_fmtPKcz
L493:
	call	_abort
L499:
	imull	$80, %edx, %eax
	addl	$20, %esp
	addl	%ebx, %eax
	popl	%ebx
	.cfi_restore 3
	popl	%ebp
	.cfi_restore 5
	.cfi_def_cfa 4, 4
	ret	$4
	.cfi_endproc
LFE10077:
	.section	.text.unlikely._ZNK7testing10TestResult17GetTestPartResultEi,"x"
LCOLDE153:
	.section	.text$_ZNK7testing10TestResult17GetTestPartResultEi,"x"
LHOTE153:
	.section	.text.unlikely._ZNK7testing10TestResult15GetTestPropertyEi,"x"
	.align 2
LCOLDB154:
	.section	.text$_ZNK7testing10TestResult15GetTestPropertyEi,"x"
LHOTB154:
	.align 2
	.globl	__ZNK7testing10TestResult15GetTestPropertyEi
	.def	__ZNK7testing10TestResult15GetTestPropertyEi;	.scl	2;	.type	32;	.endef
__ZNK7testing10TestResult15GetTestPropertyEi:
LFB10078:
	.cfi_startproc
	pushl	%ebp
	.cfi_def_cfa_offset 8
	.cfi_offset 5, -8
	movl	%esp, %ebp
	.cfi_def_cfa_register 5
	pushl	%ebx
	subl	$20, %esp
	.cfi_offset 3, -12
	movl	8(%ebp), %edx
	testl	%edx, %edx
	js	L502
	movl	16(%ecx), %ebx
	movl	20(%ecx), %ecx
	subl	%ebx, %ecx
	sarl	$4, %ecx
	imull	$-1431655765, %ecx, %ecx
	cmpl	%ecx, %edx
	jge	L502
	jb	L508
	movl	%ecx, 8(%esp)
	movl	%edx, 4(%esp)
	movl	$LC152, (%esp)
	call	__ZSt24__throw_out_of_range_fmtPKcz
L502:
	call	_abort
L508:
	imull	$48, %edx, %eax
	addl	$20, %esp
	addl	%ebx, %eax
	popl	%ebx
	.cfi_restore 3
	popl	%ebp
	.cfi_restore 5
	.cfi_def_cfa 4, 4
	ret	$4
	.cfi_endproc
LFE10078:
	.section	.text.unlikely._ZNK7testing10TestResult15GetTestPropertyEi,"x"
LCOLDE154:
	.section	.text$_ZNK7testing10TestResult15GetTestPropertyEi,"x"
LHOTE154:
	.section	.text.unlikely._ZNK7testing10TestResult6FailedEv,"x"
	.align 2
LCOLDB155:
	.section	.text$_ZNK7testing10TestResult6FailedEv,"x"
LHOTB155:
	.align 2
	.globl	__ZNK7testing10TestResult6FailedEv
	.def	__ZNK7testing10TestResult6FailedEv;	.scl	2;	.type	32;	.endef
__ZNK7testing10TestResult6FailedEv:
LFB10094:
	.cfi_startproc
	pushl	%ebp
	.cfi_def_cfa_offset 8
	.cfi_offset 5, -8
	movl	%esp, %ebp
	.cfi_def_cfa_register 5
	pushl	%edi
	pushl	%esi
	pushl	%ebx
	.cfi_offset 7, -12
	.cfi_offset 6, -16
	.cfi_offset 3, -20
	movl	%ecx, %esi
	xorl	%edi, %edi
	subl	$28, %esp
	movl	8(%ecx), %ebx
	subl	4(%ecx), %ebx
	sarl	$4, %ebx
	imull	$-858993459, %ebx, %ebx
L512:
	cmpl	%ebx, %edi
	jge	L513
	movl	%edi, (%esp)
	movl	%esi, %ecx
	call	__ZNK7testing10TestResult17GetTestPartResultEi
	pushl	%edx
	cmpl	$0, (%eax)
	jne	L514
	incl	%edi
	jmp	L512
L513:
	xorl	%eax, %eax
	jmp	L511
L514:
	movb	$1, %al
L511:
	leal	-12(%ebp), %esp
	popl	%ebx
	.cfi_restore 3
	popl	%esi
	.cfi_restore 6
	popl	%edi
	.cfi_restore 7
	popl	%ebp
	.cfi_restore 5
	.cfi_def_cfa 4, 4
	ret
	.cfi_endproc
LFE10094:
	.section	.text.unlikely._ZNK7testing10TestResult6FailedEv,"x"
LCOLDE155:
	.section	.text$_ZNK7testing10TestResult6FailedEv,"x"
LHOTE155:
	.section	.text$_ZN7testing8TestCase10TestFailedEPKNS_8TestInfoE,"x"
	.linkonce discard
LCOLDB156:
LHOTB156:
	.globl	__ZN7testing8TestCase10TestFailedEPKNS_8TestInfoE
	.def	__ZN7testing8TestCase10TestFailedEPKNS_8TestInfoE;	.scl	2;	.type	32;	.endef
__ZN7testing8TestCase10TestFailedEPKNS_8TestInfoE:
LFB3531:
	.cfi_startproc
	pushl	%ebp
	.cfi_def_cfa_offset 8
	.cfi_offset 5, -8
	movl	%esp, %ebp
	.cfi_def_cfa_register 5
	movl	8(%ebp), %ecx
	cmpb	$0, 60(%ecx)
	je	L517
	popl	%ebp
	.cfi_remember_state
	.cfi_restore 5
	.cfi_def_cfa 4, 4
	addl	$72, %ecx
	jmp	__ZNK7testing10TestResult6FailedEv
L517:
	.cfi_restore_state
	xorl	%eax, %eax
	popl	%ebp
	.cfi_restore 5
	.cfi_def_cfa 4, 4
	ret
	.cfi_endproc
LFE3531:
LCOLDE156:
LHOTE156:
	.section	.text$_ZN7testing8TestCase10TestPassedEPKNS_8TestInfoE,"x"
	.linkonce discard
LCOLDB157:
LHOTB157:
	.globl	__ZN7testing8TestCase10TestPassedEPKNS_8TestInfoE
	.def	__ZN7testing8TestCase10TestPassedEPKNS_8TestInfoE;	.scl	2;	.type	32;	.endef
__ZN7testing8TestCase10TestPassedEPKNS_8TestInfoE:
LFB3530:
	.cfi_startproc
	pushl	%ebp
	.cfi_def_cfa_offset 8
	.cfi_offset 5, -8
	xorl	%eax, %eax
	movl	%esp, %ebp
	.cfi_def_cfa_register 5
	subl	$8, %esp
	movl	8(%ebp), %ecx
	cmpb	$0, 60(%ecx)
	je	L520
	addl	$72, %ecx
	call	__ZNK7testing10TestResult6FailedEv
	xorl	$1, %eax
L520:
	leave
	.cfi_restore 5
	.cfi_def_cfa 4, 4
	ret
	.cfi_endproc
LFE3530:
LCOLDE157:
LHOTE157:
	.section	.text.unlikely._ZNK7testing10TestResult15HasFatalFailureEv,"x"
	.align 2
LCOLDB158:
	.section	.text$_ZNK7testing10TestResult15HasFatalFailureEv,"x"
LHOTB158:
	.align 2
	.globl	__ZNK7testing10TestResult15HasFatalFailureEv
	.def	__ZNK7testing10TestResult15HasFatalFailureEv;	.scl	2;	.type	32;	.endef
__ZNK7testing10TestResult15HasFatalFailureEv:
LFB10096:
	.cfi_startproc
	pushl	%ebp
	.cfi_def_cfa_offset 8
	.cfi_offset 5, -8
	xorl	%edx, %edx
	movl	%esp, %ebp
	.cfi_def_cfa_register 5
	pushl	%ebx
	.cfi_offset 3, -12
	movl	8(%ecx), %ebx
	movl	4(%ecx), %eax
L527:
	cmpl	%eax, %ebx
	je	L525
	xorl	%ecx, %ecx
	cmpl	$2, (%eax)
	sete	%cl
	addl	$80, %eax
	addl	%ecx, %edx
	jmp	L527
L525:
	testl	%edx, %edx
	setg	%al
	popl	%ebx
	.cfi_restore 3
	popl	%ebp
	.cfi_restore 5
	.cfi_def_cfa 4, 4
	ret
	.cfi_endproc
LFE10096:
	.section	.text.unlikely._ZNK7testing10TestResult15HasFatalFailureEv,"x"
LCOLDE158:
	.section	.text$_ZNK7testing10TestResult15HasFatalFailureEv,"x"
LHOTE158:
	.section	.text.unlikely._ZNK7testing10TestResult18HasNonfatalFailureEv,"x"
	.align 2
LCOLDB159:
	.section	.text$_ZNK7testing10TestResult18HasNonfatalFailureEv,"x"
LHOTB159:
	.align 2
	.globl	__ZNK7testing10TestResult18HasNonfatalFailureEv
	.def	__ZNK7testing10TestResult18HasNonfatalFailureEv;	.scl	2;	.type	32;	.endef
__ZNK7testing10TestResult18HasNonfatalFailureEv:
LFB10098:
	.cfi_startproc
	pushl	%ebp
	.cfi_def_cfa_offset 8
	.cfi_offset 5, -8
	xorl	%edx, %edx
	movl	%esp, %ebp
	.cfi_def_cfa_register 5
	pushl	%ebx
	.cfi_offset 3, -12
	movl	8(%ecx), %ebx
	movl	4(%ecx), %eax
L532:
	cmpl	%eax, %ebx
	je	L530
	xorl	%ecx, %ecx
	cmpl	$1, (%eax)
	sete	%cl
	addl	$80, %eax
	addl	%ecx, %edx
	jmp	L532
L530:
	testl	%edx, %edx
	setg	%al
	popl	%ebx
	.cfi_restore 3
	popl	%ebp
	.cfi_restore 5
	.cfi_def_cfa 4, 4
	ret
	.cfi_endproc
LFE10098:
	.section	.text.unlikely._ZNK7testing10TestResult18HasNonfatalFailureEv,"x"
LCOLDE159:
	.section	.text$_ZNK7testing10TestResult18HasNonfatalFailureEv,"x"
LHOTE159:
	.section	.text.unlikely._ZNK7testing10TestResult16total_part_countEv,"x"
	.align 2
LCOLDB160:
	.section	.text$_ZNK7testing10TestResult16total_part_countEv,"x"
LHOTB160:
	.align 2
	.globl	__ZNK7testing10TestResult16total_part_countEv
	.def	__ZNK7testing10TestResult16total_part_countEv;	.scl	2;	.type	32;	.endef
__ZNK7testing10TestResult16total_part_countEv:
LFB10099:
	.cfi_startproc
	movl	8(%ecx), %eax
	subl	4(%ecx), %eax
	pushl	%ebp
	.cfi_def_cfa_offset 8
	.cfi_offset 5, -8
	movl	%esp, %ebp
	.cfi_def_cfa_register 5
	sarl	$4, %eax
	imull	$-858993459, %eax, %eax
	popl	%ebp
	.cfi_restore 5
	.cfi_def_cfa 4, 4
	ret
	.cfi_endproc
LFE10099:
	.section	.text.unlikely._ZNK7testing10TestResult16total_part_countEv,"x"
LCOLDE160:
	.section	.text$_ZNK7testing10TestResult16total_part_countEv,"x"
LHOTE160:
	.section	.text.unlikely._ZNK7testing10TestResult19test_property_countEv,"x"
	.align 2
LCOLDB161:
	.section	.text$_ZNK7testing10TestResult19test_property_countEv,"x"
LHOTB161:
	.align 2
	.globl	__ZNK7testing10TestResult19test_property_countEv
	.def	__ZNK7testing10TestResult19test_property_countEv;	.scl	2;	.type	32;	.endef
__ZNK7testing10TestResult19test_property_countEv:
LFB10100:
	.cfi_startproc
	movl	20(%ecx), %eax
	subl	16(%ecx), %eax
	pushl	%ebp
	.cfi_def_cfa_offset 8
	.cfi_offset 5, -8
	movl	%esp, %ebp
	.cfi_def_cfa_register 5
	sarl	$4, %eax
	imull	$-1431655765, %eax, %eax
	popl	%ebp
	.cfi_restore 5
	.cfi_def_cfa 4, 4
	ret
	.cfi_endproc
LFE10100:
	.section	.text.unlikely._ZNK7testing10TestResult19test_property_countEv,"x"
LCOLDE161:
	.section	.text$_ZNK7testing10TestResult19test_property_countEv,"x"
LHOTE161:
	.section	.text.unlikely._ZN7testing4TestC2Ev,"x"
	.align 2
LCOLDB162:
	.section	.text$_ZN7testing4TestC2Ev,"x"
LHOTB162:
	.align 2
	.globl	__ZN7testing4TestC2Ev
	.def	__ZN7testing4TestC2Ev;	.scl	2;	.type	32;	.endef
__ZN7testing4TestC2Ev:
LFB10102:
	.cfi_startproc
	pushl	%ebp
	.cfi_def_cfa_offset 8
	.cfi_offset 5, -8
	movl	%esp, %ebp
	.cfi_def_cfa_register 5
	pushl	%edi
	pushl	%esi
	pushl	%ebx
	.cfi_offset 7, -12
	.cfi_offset 6, -16
	.cfi_offset 3, -20
	movl	%ecx, %esi
	subl	$28, %esp
	movl	$__ZTVN7testing4TestE+8, (%ecx)
	movl	$180, (%esp)
	call	__Znwj
	movl	%eax, %ebx
	leal	4(%eax), %ecx
	leal	12(%eax), %eax
	movl	$__ZN7testing17FLAGS_gtest_colorB5cxx11E, (%esp)
	leal	28(%ebx), %edi
	movl	$0, 8(%ebx)
	movl	%eax, 4(%ebx)
	leal	36(%ebx), %eax
	movb	$0, 12(%ebx)
	movl	$0, 32(%ebx)
	movb	$0, 36(%ebx)
	movl	%eax, 28(%ebx)
	leal	64(%ebx), %eax
	movl	$0, 60(%ebx)
	movb	$0, 64(%ebx)
	movl	$0, 84(%ebx)
	movl	%eax, 56(%ebx)
	leal	88(%ebx), %eax
	movb	$0, 88(%ebx)
	movl	$0, 112(%ebx)
	movb	$0, 116(%ebx)
	movl	%eax, 80(%ebx)
	leal	116(%ebx), %eax
	movl	$0, 156(%ebx)
	movb	$0, 160(%ebx)
	movl	%eax, 108(%ebx)
	leal	160(%ebx), %eax
	movl	%eax, 152(%ebx)
	movb	__ZN7testing35FLAGS_gtest_also_run_disabled_testsE, %al
	movb	%al, (%ebx)
	movb	__ZN7testing28FLAGS_gtest_break_on_failureE, %al
	movb	%al, 1(%ebx)
	movb	__ZN7testing28FLAGS_gtest_catch_exceptionsE, %al
	movb	%al, 2(%ebx)
	call	__ZNSt7__cxx1112basic_stringIcSt11char_traitsIcESaIcEE9_M_assignERKS4_
	pushl	%eax
	movl	%edi, %ecx
	movl	$__ZN7testing28FLAGS_gtest_death_test_styleB5cxx11E, (%esp)
	call	__ZNSt7__cxx1112basic_stringIcSt11char_traitsIcESaIcEE9_M_assignERKS4_
	movb	__ZN7testing31FLAGS_gtest_death_test_use_forkE, %al
	pushl	%edx
	leal	56(%ebx), %ecx
	movl	$__ZN7testing18FLAGS_gtest_filterB5cxx11E, (%esp)
	movb	%al, 52(%ebx)
	call	__ZNSt7__cxx1112basic_stringIcSt11char_traitsIcESaIcEE9_M_assignERKS4_
	pushl	%ecx
	leal	80(%ebx), %ecx
	movl	$__ZN7testing8internal35FLAGS_gtest_internal_run_death_testB5cxx11E, (%esp)
	call	__ZNSt7__cxx1112basic_stringIcSt11char_traitsIcESaIcEE9_M_assignERKS4_
	movb	__ZN7testing22FLAGS_gtest_list_testsE, %al
	pushl	%edi
	leal	108(%ebx), %ecx
	movl	$__ZN7testing18FLAGS_gtest_outputB5cxx11E, (%esp)
	movb	%al, 104(%ebx)
	call	__ZNSt7__cxx1112basic_stringIcSt11char_traitsIcESaIcEE9_M_assignERKS4_
	pushl	%eax
	movb	__ZN7testing22FLAGS_gtest_print_timeE, %al
	leal	152(%ebx), %ecx
	movl	$__ZN7testing28FLAGS_gtest_stream_result_toB5cxx11E, (%esp)
	movb	%al, 132(%ebx)
	movl	__ZN7testing23FLAGS_gtest_random_seedE, %eax
	movl	%eax, 136(%ebx)
	movl	__ZN7testing18FLAGS_gtest_repeatE, %eax
	movl	%eax, 140(%ebx)
	movb	__ZN7testing19FLAGS_gtest_shuffleE, %al
	movb	%al, 144(%ebx)
	movl	__ZN7testing29FLAGS_gtest_stack_trace_depthE, %eax
	movl	%eax, 148(%ebx)
	call	__ZNSt7__cxx1112basic_stringIcSt11char_traitsIcESaIcEE9_M_assignERKS4_
	pushl	%eax
	movb	__ZN7testing28FLAGS_gtest_throw_on_failureE, %al
	movl	%ebx, 4(%esi)
	movb	%al, 176(%ebx)
	leal	-12(%ebp), %esp
	popl	%ebx
	.cfi_restore 3
	popl	%esi
	.cfi_restore 6
	popl	%edi
	.cfi_restore 7
	popl	%ebp
	.cfi_restore 5
	.cfi_def_cfa 4, 4
	ret
	.cfi_endproc
LFE10102:
	.section	.text.unlikely._ZN7testing4TestC2Ev,"x"
LCOLDE162:
	.section	.text$_ZN7testing4TestC2Ev,"x"
LHOTE162:
	.globl	__ZN7testing4TestC1Ev
	.def	__ZN7testing4TestC1Ev;	.scl	2;	.type	32;	.endef
	.set	__ZN7testing4TestC1Ev,__ZN7testing4TestC2Ev
	.section	.text.unlikely._ZN7testing4TestD2Ev,"x"
	.align 2
LCOLDB163:
	.section	.text$_ZN7testing4TestD2Ev,"x"
LHOTB163:
	.align 2
	.globl	__ZN7testing4TestD2Ev
	.def	__ZN7testing4TestD2Ev;	.scl	2;	.type	32;	.endef
__ZN7testing4TestD2Ev:
LFB10105:
	.cfi_startproc
	pushl	%ebp
	.cfi_def_cfa_offset 8
	.cfi_offset 5, -8
	movl	%esp, %ebp
	.cfi_def_cfa_register 5
	pushl	%edi
	pushl	%esi
	pushl	%ebx
	subl	$60, %esp
	.cfi_offset 7, -12
	.cfi_offset 6, -16
	.cfi_offset 3, -20
	movl	4(%ecx), %ebx
	movl	$__ZTVN7testing4TestE+8, (%ecx)
	testl	%ebx, %ebx
	je	L540
	movb	(%ebx), %al
	movl	%ecx, %esi
	movl	$__ZN7testing17FLAGS_gtest_colorB5cxx11E, %ecx
	leal	80(%ebx), %edi
	movb	%al, __ZN7testing35FLAGS_gtest_also_run_disabled_testsE
	movb	1(%ebx), %al
	movb	%al, __ZN7testing28FLAGS_gtest_break_on_failureE
	movb	2(%ebx), %al
	movb	%al, __ZN7testing28FLAGS_gtest_catch_exceptionsE
	leal	4(%ebx), %eax
	movl	%eax, (%esp)
	movl	%eax, -28(%ebp)
	call	__ZNSt7__cxx1112basic_stringIcSt11char_traitsIcESaIcEE9_M_assignERKS4_
	pushl	%eax
	leal	28(%ebx), %eax
	movl	$__ZN7testing28FLAGS_gtest_death_test_styleB5cxx11E, %ecx
	movl	%eax, (%esp)
	movl	%eax, -32(%ebp)
	call	__ZNSt7__cxx1112basic_stringIcSt11char_traitsIcESaIcEE9_M_assignERKS4_
	pushl	%edx
	movb	52(%ebx), %al
	movl	$__ZN7testing18FLAGS_gtest_filterB5cxx11E, %ecx
	movb	%al, __ZN7testing31FLAGS_gtest_death_test_use_forkE
	leal	56(%ebx), %eax
	movl	%eax, (%esp)
	movl	%eax, -36(%ebp)
	call	__ZNSt7__cxx1112basic_stringIcSt11char_traitsIcESaIcEE9_M_assignERKS4_
	pushl	%ecx
	movl	$__ZN7testing8internal35FLAGS_gtest_internal_run_death_testB5cxx11E, %ecx
	movl	%edi, (%esp)
	call	__ZNSt7__cxx1112basic_stringIcSt11char_traitsIcESaIcEE9_M_assignERKS4_
	pushl	%eax
	movb	104(%ebx), %al
	movl	$__ZN7testing18FLAGS_gtest_outputB5cxx11E, %ecx
	movb	%al, __ZN7testing22FLAGS_gtest_list_testsE
	leal	108(%ebx), %eax
	movl	%eax, (%esp)
	movl	%eax, -44(%ebp)
	call	__ZNSt7__cxx1112basic_stringIcSt11char_traitsIcESaIcEE9_M_assignERKS4_
	pushl	%eax
	movb	132(%ebx), %dl
	movl	$__ZN7testing28FLAGS_gtest_stream_result_toB5cxx11E, %ecx
	movb	%dl, __ZN7testing22FLAGS_gtest_print_timeE
	movl	136(%ebx), %edx
	movl	%edx, __ZN7testing23FLAGS_gtest_random_seedE
	movl	140(%ebx), %edx
	movl	%edx, __ZN7testing18FLAGS_gtest_repeatE
	movb	144(%ebx), %dl
	movb	%dl, __ZN7testing19FLAGS_gtest_shuffleE
	movl	148(%ebx), %edx
	movl	%edx, __ZN7testing29FLAGS_gtest_stack_trace_depthE
	leal	152(%ebx), %edx
	movl	%edx, (%esp)
	movl	%edx, -40(%ebp)
	call	__ZNSt7__cxx1112basic_stringIcSt11char_traitsIcESaIcEE9_M_assignERKS4_
	movl	-40(%ebp), %edx
	pushl	%eax
	movb	176(%ebx), %cl
	movb	%cl, __ZN7testing28FLAGS_gtest_throw_on_failureE
	movl	%edx, %ecx
	call	__ZNSt7__cxx1112basic_stringIcSt11char_traitsIcESaIcEE10_M_disposeEv
	movl	-44(%ebp), %eax
	movl	%eax, %ecx
	call	__ZNSt7__cxx1112basic_stringIcSt11char_traitsIcESaIcEE10_M_disposeEv
	movl	%edi, %ecx
	call	__ZNSt7__cxx1112basic_stringIcSt11char_traitsIcESaIcEE10_M_disposeEv
	movl	-36(%ebp), %ecx
	call	__ZNSt7__cxx1112basic_stringIcSt11char_traitsIcESaIcEE10_M_disposeEv
	movl	-32(%ebp), %ecx
	call	__ZNSt7__cxx1112basic_stringIcSt11char_traitsIcESaIcEE10_M_disposeEv
	movl	-28(%ebp), %ecx
	call	__ZNSt7__cxx1112basic_stringIcSt11char_traitsIcESaIcEE10_M_disposeEv
	movl	4(%esi), %eax
	movl	%eax, (%esp)
	call	__ZdlPv
L540:
	leal	-12(%ebp), %esp
	popl	%ebx
	.cfi_restore 3
	popl	%esi
	.cfi_restore 6
	popl	%edi
	.cfi_restore 7
	popl	%ebp
	.cfi_restore 5
	.cfi_def_cfa 4, 4
	ret
	.cfi_endproc
LFE10105:
	.section	.text.unlikely._ZN7testing4TestD2Ev,"x"
LCOLDE163:
	.section	.text$_ZN7testing4TestD2Ev,"x"
LHOTE163:
	.globl	__ZN7testing4TestD1Ev
	.def	__ZN7testing4TestD1Ev;	.scl	2;	.type	32;	.endef
	.set	__ZN7testing4TestD1Ev,__ZN7testing4TestD2Ev
	.section	.text.unlikely._ZN7testing4TestD0Ev,"x"
	.align 2
LCOLDB164:
	.section	.text$_ZN7testing4TestD0Ev,"x"
LHOTB164:
	.align 2
	.globl	__ZN7testing4TestD0Ev
	.def	__ZN7testing4TestD0Ev;	.scl	2;	.type	32;	.endef
__ZN7testing4TestD0Ev:
LFB10107:
	.cfi_startproc
	pushl	%ebp
	.cfi_def_cfa_offset 8
	.cfi_offset 5, -8
	movl	%esp, %ebp
	.cfi_def_cfa_register 5
	pushl	%ebx
	.cfi_offset 3, -12
	movl	%ecx, %ebx
	subl	$20, %esp
	call	__ZN7testing4TestD1Ev
	movl	%ebx, (%esp)
	call	__ZdlPv
	addl	$20, %esp
	popl	%ebx
	.cfi_restore 3
	popl	%ebp
	.cfi_restore 5
	.cfi_def_cfa 4, 4
	ret
	.cfi_endproc
LFE10107:
	.section	.text.unlikely._ZN7testing4TestD0Ev,"x"
LCOLDE164:
	.section	.text$_ZN7testing4TestD0Ev,"x"
LHOTE164:
	.section	.text.unlikely._ZN7testing8TestInfoC2ERKNSt7__cxx1112basic_stringIcSt11char_traitsIcESaIcEEES8_PKcSA_PKvPNS_8internal15TestFactoryBaseE,"x"
	.align 2
LCOLDB165:
	.section	.text$_ZN7testing8TestInfoC2ERKNSt7__cxx1112basic_stringIcSt11char_traitsIcESaIcEEES8_PKcSA_PKvPNS_8internal15TestFactoryBaseE,"x"
LHOTB165:
	.align 2
	.globl	__ZN7testing8TestInfoC2ERKNSt7__cxx1112basic_stringIcSt11char_traitsIcESaIcEEES8_PKcSA_PKvPNS_8internal15TestFactoryBaseE
	.def	__ZN7testing8TestInfoC2ERKNSt7__cxx1112basic_stringIcSt11char_traitsIcESaIcEEES8_PKcSA_PKvPNS_8internal15TestFactoryBaseE;	.scl	2;	.type	32;	.endef
__ZN7testing8TestInfoC2ERKNSt7__cxx1112basic_stringIcSt11char_traitsIcESaIcEEES8_PKcSA_PKvPNS_8internal15TestFactoryBaseE:
LFB10120:
	.cfi_startproc
	pushl	%ebp
	.cfi_def_cfa_offset 8
	.cfi_offset 5, -8
	movl	%esp, %ebp
	.cfi_def_cfa_register 5
	pushl	%edi
	pushl	%esi
	pushl	%ebx
	.cfi_offset 7, -12
	.cfi_offset 6, -16
	.cfi_offset 3, -20
	movl	%ecx, %ebx
	subl	$44, %esp
	movl	8(%ebp), %eax
	movl	16(%ebp), %esi
	movl	20(%ebp), %edi
	movl	%eax, (%esp)
	call	__ZNSt7__cxx1112basic_stringIcSt11char_traitsIcESaIcEEC1ERKS4_
	movl	12(%ebp), %eax
	pushl	%ecx
	leal	24(%ebx), %ecx
	movl	%eax, (%esp)
	call	__ZNSt7__cxx1112basic_stringIcSt11char_traitsIcESaIcEEC1ERKS4_
	pushl	%eax
	xorl	%eax, %eax
	testl	%esi, %esi
	je	L549
	movl	$24, (%esp)
	call	__Znwj
	movl	%esi, (%esp)
	movl	%eax, %ecx
	movl	%eax, -28(%ebp)
	call	__ZNSt7__cxx1112basic_stringIcSt11char_traitsIcESaIcEEC2EPKcRKS3_.isra.402
	movl	-28(%ebp), %eax
	pushl	%edx
L549:
	xorl	%esi, %esi
	testl	%edi, %edi
	movl	%eax, 48(%ebx)
	je	L550
	movl	$24, (%esp)
	call	__Znwj
	movl	%edi, (%esp)
	movl	%eax, %ecx
	movl	%eax, %esi
	call	__ZNSt7__cxx1112basic_stringIcSt11char_traitsIcESaIcEEC2EPKcRKS3_.isra.402
	pushl	%eax
L550:
	movl	24(%ebp), %eax
	leal	72(%ebx), %ecx
	movl	%esi, 52(%ebx)
	movb	$0, 60(%ebx)
	movb	$0, 61(%ebx)
	movb	$0, 62(%ebx)
	movl	%eax, 56(%ebx)
	movl	28(%ebp), %eax
	movl	%eax, 64(%ebx)
	call	__ZN7testing10TestResultC1Ev
	leal	-12(%ebp), %esp
	popl	%ebx
	.cfi_restore 3
	popl	%esi
	.cfi_restore 6
	popl	%edi
	.cfi_restore 7
	popl	%ebp
	.cfi_restore 5
	.cfi_def_cfa 4, 4
	ret	$24
	.cfi_endproc
LFE10120:
	.section	.text.unlikely._ZN7testing8TestInfoC2ERKNSt7__cxx1112basic_stringIcSt11char_traitsIcESaIcEEES8_PKcSA_PKvPNS_8internal15TestFactoryBaseE,"x"
LCOLDE165:
	.section	.text$_ZN7testing8TestInfoC2ERKNSt7__cxx1112basic_stringIcSt11char_traitsIcESaIcEEES8_PKcSA_PKvPNS_8internal15TestFactoryBaseE,"x"
LHOTE165:
	.globl	__ZN7testing8TestInfoC1ERKNSt7__cxx1112basic_stringIcSt11char_traitsIcESaIcEEES8_PKcSA_PKvPNS_8internal15TestFactoryBaseE
	.def	__ZN7testing8TestInfoC1ERKNSt7__cxx1112basic_stringIcSt11char_traitsIcESaIcEEES8_PKcSA_PKvPNS_8internal15TestFactoryBaseE;	.scl	2;	.type	32;	.endef
	.set	__ZN7testing8TestInfoC1ERKNSt7__cxx1112basic_stringIcSt11char_traitsIcESaIcEEES8_PKcSA_PKvPNS_8internal15TestFactoryBaseE,__ZN7testing8TestInfoC2ERKNSt7__cxx1112basic_stringIcSt11char_traitsIcESaIcEEES8_PKcSA_PKvPNS_8internal15TestFactoryBaseE
	.section	.text.unlikely._ZN7testing8internal12UnitTestImpl26RegisterParameterizedTestsEv,"x"
	.align 2
LCOLDB166:
	.section	.text$_ZN7testing8internal12UnitTestImpl26RegisterParameterizedTestsEv,"x"
LHOTB166:
	.align 2
	.globl	__ZN7testing8internal12UnitTestImpl26RegisterParameterizedTestsEv
	.def	__ZN7testing8internal12UnitTestImpl26RegisterParameterizedTestsEv;	.scl	2;	.type	32;	.endef
__ZN7testing8internal12UnitTestImpl26RegisterParameterizedTestsEv:
LFB10131:
	.cfi_startproc
	cmpb	$0, 108(%ecx)
	jne	L561
	pushl	%ebp
	.cfi_def_cfa_offset 8
	.cfi_offset 5, -8
	movl	%esp, %ebp
	.cfi_def_cfa_register 5
	pushl	%esi
	pushl	%ebx
	.cfi_offset 6, -12
	.cfi_offset 3, -16
	movl	96(%ecx), %esi
	movl	%ecx, %ebx
L558:
	cmpl	%esi, 100(%ebx)
	je	L557
	movl	(%esi), %ecx
	addl	$4, %esi
	movl	(%ecx), %eax
	call	*16(%eax)
	jmp	L558
L557:
	movb	$1, 108(%ebx)
	popl	%ebx
	.cfi_restore 3
	popl	%esi
	.cfi_restore 6
	popl	%ebp
	.cfi_restore 5
	.cfi_def_cfa 4, 4
L561:
	ret
	.cfi_endproc
LFE10131:
	.section	.text.unlikely._ZN7testing8internal12UnitTestImpl26RegisterParameterizedTestsEv,"x"
LCOLDE166:
	.section	.text$_ZN7testing8internal12UnitTestImpl26RegisterParameterizedTestsEv,"x"
LHOTE166:
	.section	.text.unlikely._ZN7testing8TestCaseC2EPKcS2_PFvvES4_,"x"
	.align 2
LCOLDB167:
	.section	.text$_ZN7testing8TestCaseC2EPKcS2_PFvvES4_,"x"
LHOTB167:
	.align 2
	.globl	__ZN7testing8TestCaseC2EPKcS2_PFvvES4_
	.def	__ZN7testing8TestCaseC2EPKcS2_PFvvES4_;	.scl	2;	.type	32;	.endef
__ZN7testing8TestCaseC2EPKcS2_PFvvES4_:
LFB10141:
	.cfi_startproc
	pushl	%ebp
	.cfi_def_cfa_offset 8
	.cfi_offset 5, -8
	movl	%esp, %ebp
	.cfi_def_cfa_register 5
	pushl	%edi
	pushl	%esi
	pushl	%ebx
	.cfi_offset 7, -12
	.cfi_offset 6, -16
	.cfi_offset 3, -20
	movl	%ecx, %ebx
	addl	$4, %ecx
	xorl	%esi, %esi
	subl	$28, %esp
	movl	8(%ebp), %eax
	movl	12(%ebp), %edi
	movl	$__ZTVN7testing8TestCaseE+8, -4(%ecx)
	movl	%eax, (%esp)
	call	__ZNSt7__cxx1112basic_stringIcSt11char_traitsIcESaIcEEC2EPKcRKS3_.isra.402
	testl	%edi, %edi
	pushl	%edx
	je	L563
	movl	$24, (%esp)
	call	__Znwj
	movl	%edi, (%esp)
	movl	%eax, %ecx
	movl	%eax, %esi
	call	__ZNSt7__cxx1112basic_stringIcSt11char_traitsIcESaIcEEC2EPKcRKS3_.isra.402
	pushl	%eax
L563:
	movl	16(%ebp), %eax
	leal	80(%ebx), %ecx
	movl	%esi, 28(%ebx)
	movl	$0, 32(%ebx)
	movl	$0, 36(%ebx)
	movl	$0, 40(%ebx)
	movl	$0, 44(%ebx)
	movl	%eax, 56(%ebx)
	movl	20(%ebp), %eax
	movl	$0, 48(%ebx)
	movl	$0, 52(%ebx)
	movb	$0, 64(%ebx)
	movl	$0, 72(%ebx)
	movl	%eax, 60(%ebx)
	movl	$0, 76(%ebx)
	call	__ZN7testing10TestResultC1Ev
	leal	-12(%ebp), %esp
	popl	%ebx
	.cfi_restore 3
	popl	%esi
	.cfi_restore 6
	popl	%edi
	.cfi_restore 7
	popl	%ebp
	.cfi_restore 5
	.cfi_def_cfa 4, 4
	ret	$16
	.cfi_endproc
LFE10141:
	.section	.text.unlikely._ZN7testing8TestCaseC2EPKcS2_PFvvES4_,"x"
LCOLDE167:
	.section	.text$_ZN7testing8TestCaseC2EPKcS2_PFvvES4_,"x"
LHOTE167:
	.globl	__ZN7testing8TestCaseC1EPKcS2_PFvvES4_
	.def	__ZN7testing8TestCaseC1EPKcS2_PFvvES4_;	.scl	2;	.type	32;	.endef
	.set	__ZN7testing8TestCaseC1EPKcS2_PFvvES4_,__ZN7testing8TestCaseC2EPKcS2_PFvvES4_
	.section	.text.unlikely._ZN7testing8TestCase14UnshuffleTestsEv,"x"
	.align 2
LCOLDB168:
	.section	.text$_ZN7testing8TestCase14UnshuffleTestsEv,"x"
LHOTB168:
	.align 2
	.globl	__ZN7testing8TestCase14UnshuffleTestsEv
	.def	__ZN7testing8TestCase14UnshuffleTestsEv;	.scl	2;	.type	32;	.endef
__ZN7testing8TestCase14UnshuffleTestsEv:
LFB10153:
	.cfi_startproc
	pushl	%ebp
	.cfi_def_cfa_offset 8
	.cfi_offset 5, -8
	movl	48(%ecx), %edx
	xorl	%eax, %eax
	movl	%esp, %ebp
	.cfi_def_cfa_register 5
	pushl	%ebx
	.cfi_offset 3, -12
	movl	44(%ecx), %ebx
	subl	%ebx, %edx
	sarl	$2, %edx
L569:
	cmpl	%edx, %eax
	je	L567
	movl	%eax, (%ebx,%eax,4)
	incl	%eax
	jmp	L569
L567:
	popl	%ebx
	.cfi_restore 3
	popl	%ebp
	.cfi_restore 5
	.cfi_def_cfa 4, 4
	ret
	.cfi_endproc
LFE10153:
	.section	.text.unlikely._ZN7testing8TestCase14UnshuffleTestsEv,"x"
LCOLDE168:
	.section	.text$_ZN7testing8TestCase14UnshuffleTestsEv,"x"
LHOTE168:
	.section	.text.unlikely._ZN7testing8internal17GetColorAttributeENS0_10GTestColorE,"x"
LCOLDB169:
	.section	.text$_ZN7testing8internal17GetColorAttributeENS0_10GTestColorE,"x"
LHOTB169:
	.globl	__ZN7testing8internal17GetColorAttributeENS0_10GTestColorE
	.def	__ZN7testing8internal17GetColorAttributeENS0_10GTestColorE;	.scl	2;	.type	32;	.endef
__ZN7testing8internal17GetColorAttributeENS0_10GTestColorE:
LFB10160:
	.cfi_startproc
	pushl	%ebp
	.cfi_def_cfa_offset 8
	.cfi_offset 5, -8
	xorl	%eax, %eax
	movl	%esp, %ebp
	.cfi_def_cfa_register 5
	movl	8(%ebp), %edx
	leal	-1(%edx), %ecx
	cmpl	$2, %ecx
	ja	L572
	movzbl	_CSWTCH.1264-1(%edx), %eax
L572:
	popl	%ebp
	.cfi_restore 5
	.cfi_def_cfa 4, 4
	ret
	.cfi_endproc
LFE10160:
	.section	.text.unlikely._ZN7testing8internal17GetColorAttributeENS0_10GTestColorE,"x"
LCOLDE169:
	.section	.text$_ZN7testing8internal17GetColorAttributeENS0_10GTestColorE,"x"
LHOTE169:
	.section .rdata,"dr"
LC170:
	.ascii "auto\0"
LC171:
	.ascii "yes\0"
LC172:
	.ascii "true\0"
LC173:
	.ascii "t\0"
LC174:
	.ascii "1\0"
	.section	.text.unlikely._ZN7testing8internal14ShouldUseColorEb,"x"
LCOLDB175:
	.section	.text$_ZN7testing8internal14ShouldUseColorEb,"x"
LHOTB175:
	.globl	__ZN7testing8internal14ShouldUseColorEb
	.def	__ZN7testing8internal14ShouldUseColorEb;	.scl	2;	.type	32;	.endef
__ZN7testing8internal14ShouldUseColorEb:
LFB10161:
	.cfi_startproc
	pushl	%ebp
	.cfi_def_cfa_offset 8
	.cfi_offset 5, -8
	movl	%esp, %ebp
	.cfi_def_cfa_register 5
	pushl	%esi
	pushl	%ebx
	subl	$16, %esp
	.cfi_offset 6, -12
	.cfi_offset 3, -16
	movl	__ZN7testing17FLAGS_gtest_colorB5cxx11E, %esi
	movl	8(%ebp), %ebx
	movl	$LC170, 4(%esp)
	movl	%esi, (%esp)
	call	__ZN7testing8internal6String28CaseInsensitiveCStringEqualsEPKcS3_
	movb	%al, %dl
	movb	%bl, %al
	testb	%dl, %dl
	jne	L577
	movl	$LC171, 4(%esp)
	movl	%esi, (%esp)
	call	__ZN7testing8internal6String28CaseInsensitiveCStringEqualsEPKcS3_
	testb	%al, %al
	je	L578
L579:
	movb	$1, %al
	jmp	L577
L578:
	movl	$LC172, 4(%esp)
	movl	%esi, (%esp)
	call	__ZN7testing8internal6String28CaseInsensitiveCStringEqualsEPKcS3_
	testb	%al, %al
	jne	L579
	movl	$LC173, 4(%esp)
	movl	%esi, (%esp)
	call	__ZN7testing8internal6String28CaseInsensitiveCStringEqualsEPKcS3_
	testb	%al, %al
	jne	L579
	movl	$LC174, 4(%esp)
	movl	%esi, (%esp)
	call	__ZN7testing8internal6String13CStringEqualsEPKcS3_
L577:
	addl	$16, %esp
	popl	%ebx
	.cfi_restore 3
	popl	%esi
	.cfi_restore 6
	popl	%ebp
	.cfi_restore 5
	.cfi_def_cfa 4, 4
	ret
	.cfi_endproc
LFE10161:
	.section	.text.unlikely._ZN7testing8internal14ShouldUseColorEb,"x"
LCOLDE175:
	.section	.text$_ZN7testing8internal14ShouldUseColorEb,"x"
LHOTE175:
	.section	.text.unlikely._ZN7testing8internal13ColoredPrintfENS0_10GTestColorEPKcz,"x"
LCOLDB176:
	.section	.text$_ZN7testing8internal13ColoredPrintfENS0_10GTestColorEPKcz,"x"
LHOTB176:
	.globl	__ZN7testing8internal13ColoredPrintfENS0_10GTestColorEPKcz
	.def	__ZN7testing8internal13ColoredPrintfENS0_10GTestColorEPKcz;	.scl	2;	.type	32;	.endef
__ZN7testing8internal13ColoredPrintfENS0_10GTestColorEPKcz:
LFB10162:
	.cfi_startproc
	pushl	%ebp
	.cfi_def_cfa_offset 8
	.cfi_offset 5, -8
	movl	%esp, %ebp
	.cfi_def_cfa_register 5
	pushl	%edi
	pushl	%esi
	pushl	%ebx
	.cfi_offset 7, -12
	.cfi_offset 6, -16
	.cfi_offset 3, -20
	leal	16(%ebp), %ebx
	subl	$76, %esp
	cmpb	$0, __ZGVZN7testing8internal13ColoredPrintfENS0_10GTestColorEPKczE13in_color_mode
	movl	8(%ebp), %edi
	jne	L583
	movl	__imp___iob, %eax
	addl	$32, %eax
	movl	%eax, (%esp)
	call	*__imp___fileno
	movl	%eax, (%esp)
	call	*__imp___isatty
	testl	%eax, %eax
	setne	%al
	movzbl	%al, %eax
	movl	%eax, (%esp)
	call	__ZN7testing8internal14ShouldUseColorEb
	movb	$1, __ZGVZN7testing8internal13ColoredPrintfENS0_10GTestColorEPKczE13in_color_mode
	movb	%al, __ZZN7testing8internal13ColoredPrintfENS0_10GTestColorEPKczE13in_color_mode
L583:
	cmpb	$0, __ZZN7testing8internal13ColoredPrintfENS0_10GTestColorEPKczE13in_color_mode
	je	L586
	testl	%edi, %edi
	jne	L584
L586:
	movl	12(%ebp), %eax
	movl	%ebx, 4(%esp)
	movl	%eax, (%esp)
	call	___mingw_vprintf
	jmp	L582
L584:
	movl	$-11, (%esp)
	call	*__imp__GetStdHandle@4
	movl	%eax, %esi
	pushl	%edx
	leal	-46(%ebp), %eax
	movl	%esi, (%esp)
	movl	%eax, 4(%esp)
	call	*__imp__GetConsoleScreenBufferInfo@8
	movw	-38(%ebp), %ax
	pushl	%ecx
	pushl	%ecx
	movw	%ax, -58(%ebp)
	movl	__imp___iob, %eax
	addl	$32, %eax
	movl	%eax, (%esp)
	call	_fflush
	movl	%edi, (%esp)
	call	__ZN7testing8internal17GetColorAttributeENS0_10GTestColorE
	orl	$8, %eax
	movl	__imp__SetConsoleTextAttribute@8, %edi
	movl	%esi, (%esp)
	movzwl	%ax, %eax
	movl	%eax, 4(%esp)
	call	*%edi
	pushl	%eax
	pushl	%eax
	movl	12(%ebp), %eax
	movl	%ebx, 4(%esp)
	movl	%eax, (%esp)
	call	___mingw_vprintf
	movl	__imp___iob, %eax
	addl	$32, %eax
	movl	%eax, (%esp)
	call	_fflush
	movzwl	-58(%ebp), %ebx
	movl	%esi, (%esp)
	movl	%ebx, 4(%esp)
	call	*%edi
	pushl	%eax
	pushl	%eax
L582:
	leal	-12(%ebp), %esp
	popl	%ebx
	.cfi_restore 3
	popl	%esi
	.cfi_restore 6
	popl	%edi
	.cfi_restore 7
	popl	%ebp
	.cfi_restore 5
	.cfi_def_cfa 4, 4
	ret
	.cfi_endproc
LFE10162:
	.section	.text.unlikely._ZN7testing8internal13ColoredPrintfENS0_10GTestColorEPKcz,"x"
LCOLDE176:
	.section	.text$_ZN7testing8internal13ColoredPrintfENS0_10GTestColorEPKcz,"x"
LHOTE176:
	.section .rdata,"dr"
LC177:
	.ascii "[----------] \0"
LC178:
	.ascii "Global test environment set-up.\12\0"
	.section	.text.unlikely._ZN7testing8internal27PrettyUnitTestResultPrinter24OnEnvironmentsSetUpStartERKNS_8UnitTestE,"x"
	.align 2
LCOLDB179:
	.section	.text$_ZN7testing8internal27PrettyUnitTestResultPrinter24OnEnvironmentsSetUpStartERKNS_8UnitTestE,"x"
LHOTB179:
	.align 2
	.globl	__ZN7testing8internal27PrettyUnitTestResultPrinter24OnEnvironmentsSetUpStartERKNS_8UnitTestE
	.def	__ZN7testing8internal27PrettyUnitTestResultPrinter24OnEnvironmentsSetUpStartERKNS_8UnitTestE;	.scl	2;	.type	32;	.endef
__ZN7testing8internal27PrettyUnitTestResultPrinter24OnEnvironmentsSetUpStartERKNS_8UnitTestE:
LFB10176:
	.cfi_startproc
	pushl	%ebp
	.cfi_def_cfa_offset 8
	.cfi_offset 5, -8
	movl	%esp, %ebp
	.cfi_def_cfa_register 5
	subl	$24, %esp
	movl	$LC177, 4(%esp)
	movl	$2, (%esp)
	call	__ZN7testing8internal13ColoredPrintfENS0_10GTestColorEPKcz
	movl	$LC178, (%esp)
	call	__ZL6printfPKcz
	movl	__imp___iob, %eax
	addl	$32, %eax
	movl	%eax, (%esp)
	call	_fflush
	leave
	.cfi_restore 5
	.cfi_def_cfa 4, 4
	ret	$4
	.cfi_endproc
LFE10176:
	.section	.text.unlikely._ZN7testing8internal27PrettyUnitTestResultPrinter24OnEnvironmentsSetUpStartERKNS_8UnitTestE,"x"
LCOLDE179:
	.section	.text$_ZN7testing8internal27PrettyUnitTestResultPrinter24OnEnvironmentsSetUpStartERKNS_8UnitTestE,"x"
LHOTE179:
	.section .rdata,"dr"
LC180:
	.ascii "Global test environment tear-down\12\0"
	.section	.text.unlikely._ZN7testing8internal27PrettyUnitTestResultPrinter27OnEnvironmentsTearDownStartERKNS_8UnitTestE,"x"
	.align 2
LCOLDB181:
	.section	.text$_ZN7testing8internal27PrettyUnitTestResultPrinter27OnEnvironmentsTearDownStartERKNS_8UnitTestE,"x"
LHOTB181:
	.align 2
	.globl	__ZN7testing8internal27PrettyUnitTestResultPrinter27OnEnvironmentsTearDownStartERKNS_8UnitTestE
	.def	__ZN7testing8internal27PrettyUnitTestResultPrinter27OnEnvironmentsTearDownStartERKNS_8UnitTestE;	.scl	2;	.type	32;	.endef
__ZN7testing8internal27PrettyUnitTestResultPrinter27OnEnvironmentsTearDownStartERKNS_8UnitTestE:
LFB10182:
	.cfi_startproc
	pushl	%ebp
	.cfi_def_cfa_offset 8
	.cfi_offset 5, -8
	movl	%esp, %ebp
	.cfi_def_cfa_register 5
	subl	$24, %esp
	movl	$LC177, 4(%esp)
	movl	$2, (%esp)
	call	__ZN7testing8internal13ColoredPrintfENS0_10GTestColorEPKcz
	movl	$LC180, (%esp)
	call	__ZL6printfPKcz
	movl	__imp___iob, %eax
	addl	$32, %eax
	movl	%eax, (%esp)
	call	_fflush
	leave
	.cfi_restore 5
	.cfi_def_cfa 4, 4
	ret	$4
	.cfi_endproc
LFE10182:
	.section	.text.unlikely._ZN7testing8internal27PrettyUnitTestResultPrinter27OnEnvironmentsTearDownStartERKNS_8UnitTestE,"x"
LCOLDE181:
	.section	.text$_ZN7testing8internal27PrettyUnitTestResultPrinter27OnEnvironmentsTearDownStartERKNS_8UnitTestE,"x"
LHOTE181:
	.section .rdata,"dr"
LC182:
	.ascii "[ RUN      ] \0"
LC183:
	.ascii "%s.%s\0"
	.section	.text.unlikely._ZN7testing8internal27PrettyUnitTestResultPrinter11OnTestStartERKNS_8TestInfoE,"x"
	.align 2
LCOLDB184:
	.section	.text$_ZN7testing8internal27PrettyUnitTestResultPrinter11OnTestStartERKNS_8TestInfoE,"x"
LHOTB184:
	.align 2
	.globl	__ZN7testing8internal27PrettyUnitTestResultPrinter11OnTestStartERKNS_8TestInfoE
	.def	__ZN7testing8internal27PrettyUnitTestResultPrinter11OnTestStartERKNS_8TestInfoE;	.scl	2;	.type	32;	.endef
__ZN7testing8internal27PrettyUnitTestResultPrinter11OnTestStartERKNS_8TestInfoE:
LFB10178:
	.cfi_startproc
	pushl	%ebp
	.cfi_def_cfa_offset 8
	.cfi_offset 5, -8
	movl	%esp, %ebp
	.cfi_def_cfa_register 5
	pushl	%ebx
	subl	$20, %esp
	.cfi_offset 3, -12
	movl	8(%ebp), %ebx
	movl	$LC182, 4(%esp)
	movl	$2, (%esp)
	call	__ZN7testing8internal13ColoredPrintfENS0_10GTestColorEPKcz
	movl	24(%ebx), %eax
	movl	%eax, 8(%esp)
	movl	(%ebx), %eax
	movl	$LC183, (%esp)
	movl	%eax, 4(%esp)
	call	__ZL6printfPKcz
	movl	$LC149, (%esp)
	call	__ZL6printfPKcz
	movl	__imp___iob, %eax
	addl	$32, %eax
	movl	%eax, (%esp)
	call	_fflush
	addl	$20, %esp
	popl	%ebx
	.cfi_restore 3
	popl	%ebp
	.cfi_restore 5
	.cfi_def_cfa 4, 4
	ret	$4
	.cfi_endproc
LFE10178:
	.section	.text.unlikely._ZN7testing8internal27PrettyUnitTestResultPrinter11OnTestStartERKNS_8TestInfoE,"x"
LCOLDE184:
	.section	.text$_ZN7testing8internal27PrettyUnitTestResultPrinter11OnTestStartERKNS_8TestInfoE,"x"
LHOTE184:
	.section .rdata,"dr"
LC185:
	.ascii "%s\0"
LC186:
	.ascii "@\0"
	.section	.text.unlikely._ZN7testing8internalL17PrintColorEncodedEPKc.constprop.598,"x"
LCOLDB187:
	.section	.text$_ZN7testing8internalL17PrintColorEncodedEPKc.constprop.598,"x"
LHOTB187:
	.def	__ZN7testing8internalL17PrintColorEncodedEPKc.constprop.598;	.scl	3;	.type	32;	.endef
__ZN7testing8internalL17PrintColorEncodedEPKc.constprop.598:
LFB13162:
	.cfi_startproc
	pushl	%ebp
	.cfi_def_cfa_offset 8
	.cfi_offset 5, -8
	movl	%esp, %ebp
	.cfi_def_cfa_register 5
	pushl	%edi
	pushl	%esi
	pushl	%ebx
	.cfi_offset 7, -12
	.cfi_offset 6, -16
	.cfi_offset 3, -20
	leal	-40(%ebp), %edi
	xorl	%ebx, %ebx
	movl	$__ZN7testing8internalL24kColorEncodedHelpMessageE, %esi
	subl	$76, %esp
L596:
	movl	$64, 4(%esp)
	movl	%esi, (%esp)
	call	_strchr
	testl	%eax, %eax
	jne	L597
	movl	%esi, 8(%esp)
	movl	%ebx, (%esp)
	movl	$LC185, 4(%esp)
	call	__ZN7testing8internal13ColoredPrintfENS0_10GTestColorEPKcz
	leal	-12(%ebp), %esp
	popl	%ebx
	.cfi_remember_state
	.cfi_restore 3
	popl	%esi
	.cfi_restore 6
	popl	%edi
	.cfi_restore 7
	popl	%ebp
	.cfi_restore 5
	.cfi_def_cfa 4, 4
	ret
L597:
	.cfi_restore_state
	leal	-48(%ebp), %ecx
	movl	%eax, 4(%esp)
	movl	%esi, (%esp)
	movl	%eax, -60(%ebp)
	movl	%edi, -48(%ebp)
	call	__ZNSt7__cxx1112basic_stringIcSt11char_traitsIcESaIcEE12_M_constructIPcEEvT_S7_St20forward_iterator_tag.isra.409
	movl	-48(%ebp), %edx
	pushl	%eax
	pushl	%eax
	movl	%edx, 8(%esp)
	movl	$LC185, 4(%esp)
	movl	%ebx, (%esp)
	call	__ZN7testing8internal13ColoredPrintfENS0_10GTestColorEPKcz
	leal	-48(%ebp), %ecx
	call	__ZNSt7__cxx1112basic_stringIcSt11char_traitsIcESaIcEE10_M_disposeEv
	movl	-60(%ebp), %eax
	movb	1(%eax), %dl
	leal	2(%eax), %esi
	cmpb	$64, %dl
	jne	L598
	movl	$LC186, 4(%esp)
	movl	%ebx, (%esp)
	call	__ZN7testing8internal13ColoredPrintfENS0_10GTestColorEPKcz
	jmp	L596
L598:
	cmpb	$68, %dl
	jne	L606
	xorl	%ebx, %ebx
	jmp	L596
L606:
	cmpb	$82, %dl
	jne	L607
	movl	$1, %ebx
	jmp	L596
L607:
	cmpb	$71, %dl
	jne	L608
	movl	$2, %ebx
	jmp	L596
L608:
	cmpb	$89, %dl
	jne	L609
	movl	$3, %ebx
	jmp	L596
L609:
	leal	1(%eax), %esi
	jmp	L596
	.cfi_endproc
LFE13162:
	.section	.text.unlikely._ZN7testing8internalL17PrintColorEncodedEPKc.constprop.598,"x"
LCOLDE187:
	.section	.text$_ZN7testing8internalL17PrintColorEncodedEPKc.constprop.598,"x"
LHOTE187:
	.section .rdata,"dr"
LC188:
	.ascii ", where \0"
LC189:
	.ascii "%s = %s\0"
LC190:
	.ascii " and \0"
	.section	.text.unlikely._ZN7testing8internal29PrintFullTestCommentIfPresentERKNS_8TestInfoE,"x"
LCOLDB191:
	.section	.text$_ZN7testing8internal29PrintFullTestCommentIfPresentERKNS_8TestInfoE,"x"
LHOTB191:
	.globl	__ZN7testing8internal29PrintFullTestCommentIfPresentERKNS_8TestInfoE
	.def	__ZN7testing8internal29PrintFullTestCommentIfPresentERKNS_8TestInfoE;	.scl	2;	.type	32;	.endef
__ZN7testing8internal29PrintFullTestCommentIfPresentERKNS_8TestInfoE:
LFB10163:
	.cfi_startproc
	pushl	%ebp
	.cfi_def_cfa_offset 8
	.cfi_offset 5, -8
	movl	%esp, %ebp
	.cfi_def_cfa_register 5
	pushl	%esi
	pushl	%ebx
	.cfi_offset 6, -12
	.cfi_offset 3, -16
	xorl	%esi, %esi
	subl	$16, %esp
	movl	8(%ebp), %eax
	movl	48(%eax), %edx
	testl	%edx, %edx
	je	L611
	movl	(%edx), %esi
L611:
	movl	52(%eax), %eax
	xorl	%ebx, %ebx
	testl	%eax, %eax
	je	L612
	movl	(%eax), %ebx
L612:
	testl	%esi, %esi
	jne	L613
	testl	%ebx, %ebx
	je	L610
L613:
	movl	$LC188, (%esp)
	call	__ZL6printfPKcz
	testl	%esi, %esi
	je	L615
	movl	%esi, 8(%esp)
	movl	$__ZN7testing8internalL15kTypeParamLabelE, 4(%esp)
	movl	$LC189, (%esp)
	call	__ZL6printfPKcz
	testl	%ebx, %ebx
	je	L610
	movl	$LC190, (%esp)
	call	__ZL6printfPKcz
	jmp	L617
L615:
	testl	%ebx, %ebx
	je	L610
L617:
	movl	%ebx, 8(%esp)
	movl	$__ZN7testing8internalL16kValueParamLabelE, 4(%esp)
	movl	$LC189, (%esp)
	call	__ZL6printfPKcz
L610:
	addl	$16, %esp
	popl	%ebx
	.cfi_restore 3
	popl	%esi
	.cfi_restore 6
	popl	%ebp
	.cfi_restore 5
	.cfi_def_cfa 4, 4
	ret
	.cfi_endproc
LFE10163:
	.section	.text.unlikely._ZN7testing8internal29PrintFullTestCommentIfPresentERKNS_8TestInfoE,"x"
LCOLDE191:
	.section	.text$_ZN7testing8internal29PrintFullTestCommentIfPresentERKNS_8TestInfoE,"x"
LHOTE191:
	.section	.text$_ZN7testing8internal24XmlUnitTestResultPrinter19IsValidXmlCharacterEc,"x"
	.linkonce discard
LCOLDB192:
LHOTB192:
	.globl	__ZN7testing8internal24XmlUnitTestResultPrinter19IsValidXmlCharacterEc
	.def	__ZN7testing8internal24XmlUnitTestResultPrinter19IsValidXmlCharacterEc;	.scl	2;	.type	32;	.endef
__ZN7testing8internal24XmlUnitTestResultPrinter19IsValidXmlCharacterEc:
LFB10210:
	.cfi_startproc
	pushl	%ebp
	.cfi_def_cfa_offset 8
	.cfi_offset 5, -8
	movl	%esp, %ebp
	.cfi_def_cfa_register 5
	movl	8(%ebp), %edx
	popl	%ebp
	.cfi_restore 5
	.cfi_def_cfa 4, 4
	cmpb	$31, %dl
	setg	%cl
	cmpb	$13, %dl
	sete	%al
	subl	$9, %edx
	orl	%ecx, %eax
	cmpb	$1, %dl
	setbe	%dl
	orl	%edx, %eax
	ret
	.cfi_endproc
LFE10210:
LCOLDE192:
LHOTE192:
	.section .rdata,"dr"
LC193:
	.ascii "XML output file may not be null\12\0"
	.section	.text.unlikely._ZN7testing8internal24XmlUnitTestResultPrinterC2EPKc,"x"
	.align 2
LCOLDB194:
	.section	.text$_ZN7testing8internal24XmlUnitTestResultPrinterC2EPKc,"x"
LHOTB194:
	.align 2
	.globl	__ZN7testing8internal24XmlUnitTestResultPrinterC2EPKc
	.def	__ZN7testing8internal24XmlUnitTestResultPrinterC2EPKc;	.scl	2;	.type	32;	.endef
__ZN7testing8internal24XmlUnitTestResultPrinterC2EPKc:
LFB10221:
	.cfi_startproc
	pushl	%ebp
	.cfi_def_cfa_offset 8
	.cfi_offset 5, -8
	movl	%esp, %ebp
	.cfi_def_cfa_register 5
	pushl	%ebx
	.cfi_offset 3, -12
	movl	%ecx, %ebx
	addl	$4, %ecx
	subl	$20, %esp
	movl	8(%ebp), %eax
	movl	$__ZTVN7testing8internal24XmlUnitTestResultPrinterE+8, -4(%ecx)
	movl	%eax, (%esp)
	call	__ZNSt7__cxx1112basic_stringIcSt11char_traitsIcESaIcEEC2EPKcRKS3_.isra.402
	cmpl	$0, 4(%ebx)
	pushl	%eax
	je	L631
	cmpl	$0, 8(%ebx)
	jne	L632
L631:
	movl	__imp___iob, %eax
	movl	$LC193, 4(%esp)
	addl	$64, %eax
	movl	%eax, (%esp)
	call	__ZL7fprintfP6_iobufPKcz
	movl	__imp___iob, %eax
	addl	$64, %eax
	movl	%eax, (%esp)
	call	_fflush
	movl	$1, (%esp)
	call	_exit
L632:
	movl	-4(%ebp), %ebx
	leave
	.cfi_restore 5
	.cfi_restore 3
	.cfi_def_cfa 4, 4
	ret	$4
	.cfi_endproc
LFE10221:
	.section	.text.unlikely._ZN7testing8internal24XmlUnitTestResultPrinterC2EPKc,"x"
LCOLDE194:
	.section	.text$_ZN7testing8internal24XmlUnitTestResultPrinterC2EPKc,"x"
LHOTE194:
	.globl	__ZN7testing8internal24XmlUnitTestResultPrinterC1EPKc
	.def	__ZN7testing8internal24XmlUnitTestResultPrinterC1EPKc;	.scl	2;	.type	32;	.endef
	.set	__ZN7testing8internal24XmlUnitTestResultPrinterC1EPKc,__ZN7testing8internal24XmlUnitTestResultPrinterC2EPKc
	.section	.text.unlikely._ZN7testing8internal24XmlUnitTestResultPrinter26RemoveInvalidXmlCharactersERKNSt7__cxx1112basic_stringIcSt11char_traitsIcESaIcEEE,"x"
	.align 2
LCOLDB195:
	.section	.text$_ZN7testing8internal24XmlUnitTestResultPrinter26RemoveInvalidXmlCharactersERKNSt7__cxx1112basic_stringIcSt11char_traitsIcESaIcEEE,"x"
LHOTB195:
	.align 2
	.globl	__ZN7testing8internal24XmlUnitTestResultPrinter26RemoveInvalidXmlCharactersERKNSt7__cxx1112basic_stringIcSt11char_traitsIcESaIcEEE
	.def	__ZN7testing8internal24XmlUnitTestResultPrinter26RemoveInvalidXmlCharactersERKNSt7__cxx1112basic_stringIcSt11char_traitsIcESaIcEEE;	.scl	2;	.type	32;	.endef
__ZN7testing8internal24XmlUnitTestResultPrinter26RemoveInvalidXmlCharactersERKNSt7__cxx1112basic_stringIcSt11char_traitsIcESaIcEEE:
LFB10225:
	.cfi_startproc
	pushl	%ebp
	.cfi_def_cfa_offset 8
	.cfi_offset 5, -8
	movl	%esp, %ebp
	.cfi_def_cfa_register 5
	pushl	%edi
	pushl	%esi
	pushl	%ebx
	subl	$44, %esp
	.cfi_offset 7, -12
	.cfi_offset 6, -16
	.cfi_offset 3, -20
	movl	8(%ebp), %ebx
	movl	12(%ebp), %edi
	leal	8(%ebx), %eax
	movl	$0, 4(%ebx)
	movb	$0, 8(%ebx)
	movl	%ebx, %ecx
	movl	%eax, (%ebx)
	movl	4(%edi), %eax
	movl	%eax, (%esp)
	call	__ZNSt7__cxx1112basic_stringIcSt11char_traitsIcESaIcEE7reserveEj
	pushl	%edx
	movl	(%edi), %esi
L637:
	movl	4(%edi), %eax
	addl	(%edi), %eax
	cmpl	%eax, %esi
	je	L634
	movsbl	(%esi), %edx
	movl	%edx, (%esp)
	movl	%edx, -28(%ebp)
	call	__ZN7testing8internal24XmlUnitTestResultPrinter19IsValidXmlCharacterEc
	testb	%al, %al
	movl	-28(%ebp), %edx
	je	L636
	movl	%edx, (%esp)
	movl	%ebx, %ecx
	call	__ZNSt7__cxx1112basic_stringIcSt11char_traitsIcESaIcEE9push_backEc
	pushl	%eax
L636:
	incl	%esi
	jmp	L637
L634:
	leal	-12(%ebp), %esp
	movl	%ebx, %eax
	popl	%ebx
	.cfi_restore 3
	popl	%esi
	.cfi_restore 6
	popl	%edi
	.cfi_restore 7
	popl	%ebp
	.cfi_restore 5
	.cfi_def_cfa 4, 4
	ret
	.cfi_endproc
LFE10225:
	.section	.text.unlikely._ZN7testing8internal24XmlUnitTestResultPrinter26RemoveInvalidXmlCharactersERKNSt7__cxx1112basic_stringIcSt11char_traitsIcESaIcEEE,"x"
LCOLDE195:
	.section	.text$_ZN7testing8internal24XmlUnitTestResultPrinter26RemoveInvalidXmlCharactersERKNSt7__cxx1112basic_stringIcSt11char_traitsIcESaIcEEE,"x"
LHOTE195:
	.section	.text.unlikely._ZN7testing8internal27FormatTimeInMillisAsSecondsB5cxx11Ex,"x"
LCOLDB198:
	.section	.text$_ZN7testing8internal27FormatTimeInMillisAsSecondsB5cxx11Ex,"x"
LHOTB198:
	.globl	__ZN7testing8internal27FormatTimeInMillisAsSecondsB5cxx11Ex
	.def	__ZN7testing8internal27FormatTimeInMillisAsSecondsB5cxx11Ex;	.scl	2;	.type	32;	.endef
__ZN7testing8internal27FormatTimeInMillisAsSecondsB5cxx11Ex:
LFB10226:
	.cfi_startproc
	pushl	%ebp
	.cfi_def_cfa_offset 8
	.cfi_offset 5, -8
	movl	%esp, %ebp
	.cfi_def_cfa_register 5
	pushl	%edi
	pushl	%esi
	leal	-216(%ebp), %ecx
	subl	$240, %esp
	.cfi_offset 7, -12
	.cfi_offset 6, -16
	movl	12(%ebp), %esi
	movl	16(%ebp), %edi
	movl	$24, (%esp)
	call	__ZNSt7__cxx1118basic_stringstreamIcSt11char_traitsIcESaIcEEC1ESt13_Ios_Openmode
	movl	%esi, -232(%ebp)
	movl	%edi, -228(%ebp)
	leal	-208(%ebp), %ecx
	fildq	-232(%ebp)
	pushl	%eax
	fdivs	LC196
	fstpl	(%esp)
	call	__ZNSolsEd
	leal	-204(%ebp), %eax
	movl	8(%ebp), %ecx
	pushl	%edx
	pushl	%edx
	movl	%eax, (%esp)
	call	__ZNKSt7__cxx1115basic_stringbufIcSt11char_traitsIcESaIcEE3strEv
	pushl	%ecx
	leal	-216(%ebp), %ecx
	call	__ZNSt7__cxx1118basic_stringstreamIcSt11char_traitsIcESaIcEED1Ev
	movl	8(%ebp), %eax
	leal	-8(%ebp), %esp
	popl	%esi
	.cfi_restore 6
	popl	%edi
	.cfi_restore 7
	popl	%ebp
	.cfi_restore 5
	.cfi_def_cfa 4, 4
	ret
	.cfi_endproc
LFE10226:
	.section	.text.unlikely._ZN7testing8internal27FormatTimeInMillisAsSecondsB5cxx11Ex,"x"
LCOLDE198:
	.section	.text$_ZN7testing8internal27FormatTimeInMillisAsSecondsB5cxx11Ex,"x"
LHOTE198:
	.section .rdata,"dr"
LC199:
	.ascii "<![CDATA[\0"
LC200:
	.ascii "]]>\0"
LC201:
	.ascii "]]>]]&gt;<![CDATA[\0"
	.section	.text.unlikely._ZN7testing8internal24XmlUnitTestResultPrinter21OutputXmlCDataSectionEPSoPKc,"x"
	.align 2
LCOLDB202:
	.section	.text$_ZN7testing8internal24XmlUnitTestResultPrinter21OutputXmlCDataSectionEPSoPKc,"x"
LHOTB202:
	.align 2
	.globl	__ZN7testing8internal24XmlUnitTestResultPrinter21OutputXmlCDataSectionEPSoPKc
	.def	__ZN7testing8internal24XmlUnitTestResultPrinter21OutputXmlCDataSectionEPSoPKc;	.scl	2;	.type	32;	.endef
__ZN7testing8internal24XmlUnitTestResultPrinter21OutputXmlCDataSectionEPSoPKc:
LFB10228:
	.cfi_startproc
	pushl	%ebp
	.cfi_def_cfa_offset 8
	.cfi_offset 5, -8
	movl	%esp, %ebp
	.cfi_def_cfa_register 5
	pushl	%edi
	pushl	%esi
	pushl	%ebx
	subl	$28, %esp
	.cfi_offset 7, -12
	.cfi_offset 6, -16
	.cfi_offset 3, -20
	movl	8(%ebp), %ebx
	movl	12(%ebp), %esi
	movl	$LC199, 4(%esp)
	movl	%ebx, (%esp)
	call	__ZStlsISt11char_traitsIcEERSt13basic_ostreamIcT_ES5_PKc
L646:
	movl	$LC200, 4(%esp)
	movl	%esi, (%esp)
	call	_strstr
	testl	%eax, %eax
	movl	%eax, %edi
	je	L645
	subl	%esi, %eax
	movl	%esi, (%esp)
	movl	%ebx, %ecx
	movl	%eax, 4(%esp)
	leal	3(%edi), %esi
	call	__ZNSo5writeEPKci
	pushl	%eax
	pushl	%eax
	movl	$LC201, 4(%esp)
	movl	%ebx, (%esp)
	call	__ZStlsISt11char_traitsIcEERSt13basic_ostreamIcT_ES5_PKc
	jmp	L646
L645:
	movl	%esi, 4(%esp)
	movl	%ebx, (%esp)
	call	__ZStlsISt11char_traitsIcEERSt13basic_ostreamIcT_ES5_PKc
	movl	%ebx, 8(%ebp)
	movl	$LC200, 12(%ebp)
	leal	-12(%ebp), %esp
	popl	%ebx
	.cfi_restore 3
	popl	%esi
	.cfi_restore 6
	popl	%edi
	.cfi_restore 7
	popl	%ebp
	.cfi_restore 5
	.cfi_def_cfa 4, 4
	jmp	__ZStlsISt11char_traitsIcEERSt13basic_ostreamIcT_ES5_PKc
	.cfi_endproc
LFE10228:
	.section	.text.unlikely._ZN7testing8internal24XmlUnitTestResultPrinter21OutputXmlCDataSectionEPSoPKc,"x"
LCOLDE202:
	.section	.text$_ZN7testing8internal24XmlUnitTestResultPrinter21OutputXmlCDataSectionEPSoPKc,"x"
LHOTE202:
	.section	.text.unlikely._ZN7testing18TestEventListenersC2Ev,"x"
	.align 2
LCOLDB203:
	.section	.text$_ZN7testing18TestEventListenersC2Ev,"x"
LHOTB203:
	.align 2
	.globl	__ZN7testing18TestEventListenersC2Ev
	.def	__ZN7testing18TestEventListenersC2Ev;	.scl	2;	.type	32;	.endef
__ZN7testing18TestEventListenersC2Ev:
LFB10255:
	.cfi_startproc
	pushl	%ebp
	.cfi_def_cfa_offset 8
	.cfi_offset 5, -8
	movl	%esp, %ebp
	.cfi_def_cfa_register 5
	pushl	%ebx
	.cfi_offset 3, -12
	movl	%ecx, %ebx
	subl	$20, %esp
	movl	$20, (%esp)
	call	__Znwj
	movl	$0, 4(%ebx)
	movl	$__ZTVN7testing8internal17TestEventRepeaterE+8, (%eax)
	movb	$1, 4(%eax)
	movl	$0, 8(%eax)
	movl	$0, 12(%eax)
	movl	$0, 16(%eax)
	movl	%eax, (%ebx)
	movl	$0, 8(%ebx)
	addl	$20, %esp
	popl	%ebx
	.cfi_restore 3
	popl	%ebp
	.cfi_restore 5
	.cfi_def_cfa 4, 4
	ret
	.cfi_endproc
LFE10255:
	.section	.text.unlikely._ZN7testing18TestEventListenersC2Ev,"x"
LCOLDE203:
	.section	.text$_ZN7testing18TestEventListenersC2Ev,"x"
LHOTE203:
	.globl	__ZN7testing18TestEventListenersC1Ev
	.def	__ZN7testing18TestEventListenersC1Ev;	.scl	2;	.type	32;	.endef
	.set	__ZN7testing18TestEventListenersC1Ev,__ZN7testing18TestEventListenersC2Ev
	.section	.text.unlikely._ZN7testing18TestEventListenersD2Ev,"x"
	.align 2
LCOLDB204:
	.section	.text$_ZN7testing18TestEventListenersD2Ev,"x"
LHOTB204:
	.align 2
	.globl	__ZN7testing18TestEventListenersD2Ev
	.def	__ZN7testing18TestEventListenersD2Ev;	.scl	2;	.type	32;	.endef
__ZN7testing18TestEventListenersD2Ev:
LFB10258:
	.cfi_startproc
	pushl	%ebp
	.cfi_def_cfa_offset 8
	.cfi_offset 5, -8
	movl	(%ecx), %ecx
	movl	%esp, %ebp
	.cfi_def_cfa_register 5
	testl	%ecx, %ecx
	je	L650
	movl	(%ecx), %eax
	popl	%ebp
	.cfi_remember_state
	.cfi_restore 5
	.cfi_def_cfa 4, 4
	movl	4(%eax), %eax
	jmp	*%eax
L650:
	.cfi_restore_state
	popl	%ebp
	.cfi_restore 5
	.cfi_def_cfa 4, 4
	ret
	.cfi_endproc
LFE10258:
	.section	.text.unlikely._ZN7testing18TestEventListenersD2Ev,"x"
LCOLDE204:
	.section	.text$_ZN7testing18TestEventListenersD2Ev,"x"
LHOTE204:
	.globl	__ZN7testing18TestEventListenersD1Ev
	.def	__ZN7testing18TestEventListenersD1Ev;	.scl	2;	.type	32;	.endef
	.set	__ZN7testing18TestEventListenersD1Ev,__ZN7testing18TestEventListenersD2Ev
	.section	.text.unlikely._ZN7testing18TestEventListeners8repeaterEv,"x"
	.align 2
LCOLDB205:
	.section	.text$_ZN7testing18TestEventListeners8repeaterEv,"x"
LHOTB205:
	.align 2
	.globl	__ZN7testing18TestEventListeners8repeaterEv
	.def	__ZN7testing18TestEventListeners8repeaterEv;	.scl	2;	.type	32;	.endef
__ZN7testing18TestEventListeners8repeaterEv:
LFB10262:
	.cfi_startproc
	pushl	%ebp
	.cfi_def_cfa_offset 8
	.cfi_offset 5, -8
	movl	(%ecx), %eax
	movl	%esp, %ebp
	.cfi_def_cfa_register 5
	popl	%ebp
	.cfi_restore 5
	.cfi_def_cfa 4, 4
	ret
	.cfi_endproc
LFE10262:
	.section	.text.unlikely._ZN7testing18TestEventListeners8repeaterEv,"x"
LCOLDE205:
	.section	.text$_ZN7testing18TestEventListeners8repeaterEv,"x"
LHOTE205:
	.section	.text.unlikely._ZNK7testing18TestEventListeners22EventForwardingEnabledEv,"x"
	.align 2
LCOLDB206:
	.section	.text$_ZNK7testing18TestEventListeners22EventForwardingEnabledEv,"x"
LHOTB206:
	.align 2
	.globl	__ZNK7testing18TestEventListeners22EventForwardingEnabledEv
	.def	__ZNK7testing18TestEventListeners22EventForwardingEnabledEv;	.scl	2;	.type	32;	.endef
__ZNK7testing18TestEventListeners22EventForwardingEnabledEv:
LFB10265:
	.cfi_startproc
	movl	(%ecx), %eax
	pushl	%ebp
	.cfi_def_cfa_offset 8
	.cfi_offset 5, -8
	movl	%esp, %ebp
	.cfi_def_cfa_register 5
	movb	4(%eax), %al
	popl	%ebp
	.cfi_restore 5
	.cfi_def_cfa 4, 4
	ret
	.cfi_endproc
LFE10265:
	.section	.text.unlikely._ZNK7testing18TestEventListeners22EventForwardingEnabledEv,"x"
LCOLDE206:
	.section	.text$_ZNK7testing18TestEventListeners22EventForwardingEnabledEv,"x"
LHOTE206:
	.section	.text.unlikely._ZN7testing18TestEventListeners23SuppressEventForwardingEv,"x"
	.align 2
LCOLDB207:
	.section	.text$_ZN7testing18TestEventListeners23SuppressEventForwardingEv,"x"
LHOTB207:
	.align 2
	.globl	__ZN7testing18TestEventListeners23SuppressEventForwardingEv
	.def	__ZN7testing18TestEventListeners23SuppressEventForwardingEv;	.scl	2;	.type	32;	.endef
__ZN7testing18TestEventListeners23SuppressEventForwardingEv:
LFB10266:
	.cfi_startproc
	movl	(%ecx), %eax
	pushl	%ebp
	.cfi_def_cfa_offset 8
	.cfi_offset 5, -8
	movl	%esp, %ebp
	.cfi_def_cfa_register 5
	movb	$0, 4(%eax)
	popl	%ebp
	.cfi_restore 5
	.cfi_def_cfa 4, 4
	ret
	.cfi_endproc
LFE10266:
	.section	.text.unlikely._ZN7testing18TestEventListeners23SuppressEventForwardingEv,"x"
LCOLDE207:
	.section	.text$_ZN7testing18TestEventListeners23SuppressEventForwardingEv,"x"
LHOTE207:
	.section	.text.unlikely._ZNK7testing8UnitTest21total_test_case_countEv,"x"
	.align 2
LCOLDB208:
	.section	.text$_ZNK7testing8UnitTest21total_test_case_countEv,"x"
LHOTB208:
	.align 2
	.globl	__ZNK7testing8UnitTest21total_test_case_countEv
	.def	__ZNK7testing8UnitTest21total_test_case_countEv;	.scl	2;	.type	32;	.endef
__ZNK7testing8UnitTest21total_test_case_countEv:
LFB10271:
	.cfi_startproc
	movl	8(%ecx), %edx
	pushl	%ebp
	.cfi_def_cfa_offset 8
	.cfi_offset 5, -8
	movl	%esp, %ebp
	.cfi_def_cfa_register 5
	movl	76(%edx), %eax
	subl	72(%edx), %eax
	popl	%ebp
	.cfi_restore 5
	.cfi_def_cfa 4, 4
	sarl	$2, %eax
	ret
	.cfi_endproc
LFE10271:
	.section	.text.unlikely._ZNK7testing8UnitTest21total_test_case_countEv,"x"
LCOLDE208:
	.section	.text$_ZNK7testing8UnitTest21total_test_case_countEv,"x"
LHOTE208:
	.section	.text.unlikely._ZNK7testing8UnitTest21successful_test_countEv,"x"
	.align 2
LCOLDB209:
	.section	.text$_ZNK7testing8UnitTest21successful_test_countEv,"x"
LHOTB209:
	.align 2
	.globl	__ZNK7testing8UnitTest21successful_test_countEv
	.def	__ZNK7testing8UnitTest21successful_test_countEv;	.scl	2;	.type	32;	.endef
__ZNK7testing8UnitTest21successful_test_countEv:
LFB10273:
	.cfi_startproc
	pushl	%ebp
	.cfi_def_cfa_offset 8
	.cfi_offset 5, -8
	movl	8(%ecx), %ecx
	movl	%esp, %ebp
	.cfi_def_cfa_register 5
	popl	%ebp
	.cfi_restore 5
	.cfi_def_cfa 4, 4
	jmp	__ZNK7testing8internal12UnitTestImpl21successful_test_countEv
	.cfi_endproc
LFE10273:
	.section	.text.unlikely._ZNK7testing8UnitTest21successful_test_countEv,"x"
LCOLDE209:
	.section	.text$_ZNK7testing8UnitTest21successful_test_countEv,"x"
LHOTE209:
	.section	.text.unlikely._ZNK7testing8UnitTest17failed_test_countEv,"x"
	.align 2
LCOLDB210:
	.section	.text$_ZNK7testing8UnitTest17failed_test_countEv,"x"
LHOTB210:
	.align 2
	.globl	__ZNK7testing8UnitTest17failed_test_countEv
	.def	__ZNK7testing8UnitTest17failed_test_countEv;	.scl	2;	.type	32;	.endef
__ZNK7testing8UnitTest17failed_test_countEv:
LFB10274:
	.cfi_startproc
	pushl	%ebp
	.cfi_def_cfa_offset 8
	.cfi_offset 5, -8
	movl	8(%ecx), %ecx
	movl	%esp, %ebp
	.cfi_def_cfa_register 5
	popl	%ebp
	.cfi_restore 5
	.cfi_def_cfa 4, 4
	jmp	__ZNK7testing8internal12UnitTestImpl17failed_test_countEv
	.cfi_endproc
LFE10274:
	.section	.text.unlikely._ZNK7testing8UnitTest17failed_test_countEv,"x"
LCOLDE210:
	.section	.text$_ZNK7testing8UnitTest17failed_test_countEv,"x"
LHOTE210:
	.section	.text.unlikely._ZNK7testing8UnitTest30reportable_disabled_test_countEv,"x"
	.align 2
LCOLDB211:
	.section	.text$_ZNK7testing8UnitTest30reportable_disabled_test_countEv,"x"
LHOTB211:
	.align 2
	.globl	__ZNK7testing8UnitTest30reportable_disabled_test_countEv
	.def	__ZNK7testing8UnitTest30reportable_disabled_test_countEv;	.scl	2;	.type	32;	.endef
__ZNK7testing8UnitTest30reportable_disabled_test_countEv:
LFB10275:
	.cfi_startproc
	pushl	%ebp
	.cfi_def_cfa_offset 8
	.cfi_offset 5, -8
	movl	8(%ecx), %ecx
	movl	%esp, %ebp
	.cfi_def_cfa_register 5
	popl	%ebp
	.cfi_restore 5
	.cfi_def_cfa 4, 4
	jmp	__ZNK7testing8internal12UnitTestImpl30reportable_disabled_test_countEv
	.cfi_endproc
LFE10275:
	.section	.text.unlikely._ZNK7testing8UnitTest30reportable_disabled_test_countEv,"x"
LCOLDE211:
	.section	.text$_ZNK7testing8UnitTest30reportable_disabled_test_countEv,"x"
LHOTE211:
	.section	.text.unlikely._ZNK7testing8UnitTest19disabled_test_countEv,"x"
	.align 2
LCOLDB212:
	.section	.text$_ZNK7testing8UnitTest19disabled_test_countEv,"x"
LHOTB212:
	.align 2
	.globl	__ZNK7testing8UnitTest19disabled_test_countEv
	.def	__ZNK7testing8UnitTest19disabled_test_countEv;	.scl	2;	.type	32;	.endef
__ZNK7testing8UnitTest19disabled_test_countEv:
LFB10276:
	.cfi_startproc
	pushl	%ebp
	.cfi_def_cfa_offset 8
	.cfi_offset 5, -8
	movl	8(%ecx), %ecx
	movl	%esp, %ebp
	.cfi_def_cfa_register 5
	popl	%ebp
	.cfi_restore 5
	.cfi_def_cfa 4, 4
	jmp	__ZNK7testing8internal12UnitTestImpl19disabled_test_countEv
	.cfi_endproc
LFE10276:
	.section	.text.unlikely._ZNK7testing8UnitTest19disabled_test_countEv,"x"
LCOLDE212:
	.section	.text$_ZNK7testing8UnitTest19disabled_test_countEv,"x"
LHOTE212:
	.section	.text.unlikely._ZNK7testing8UnitTest21reportable_test_countEv,"x"
	.align 2
LCOLDB213:
	.section	.text$_ZNK7testing8UnitTest21reportable_test_countEv,"x"
LHOTB213:
	.align 2
	.globl	__ZNK7testing8UnitTest21reportable_test_countEv
	.def	__ZNK7testing8UnitTest21reportable_test_countEv;	.scl	2;	.type	32;	.endef
__ZNK7testing8UnitTest21reportable_test_countEv:
LFB10277:
	.cfi_startproc
	pushl	%ebp
	.cfi_def_cfa_offset 8
	.cfi_offset 5, -8
	movl	8(%ecx), %ecx
	movl	%esp, %ebp
	.cfi_def_cfa_register 5
	popl	%ebp
	.cfi_restore 5
	.cfi_def_cfa 4, 4
	jmp	__ZNK7testing8internal12UnitTestImpl21reportable_test_countEv
	.cfi_endproc
LFE10277:
	.section	.text.unlikely._ZNK7testing8UnitTest21reportable_test_countEv,"x"
LCOLDE213:
	.section	.text$_ZNK7testing8UnitTest21reportable_test_countEv,"x"
LHOTE213:
	.section	.text.unlikely._ZNK7testing8UnitTest16total_test_countEv,"x"
	.align 2
LCOLDB214:
	.section	.text$_ZNK7testing8UnitTest16total_test_countEv,"x"
LHOTB214:
	.align 2
	.globl	__ZNK7testing8UnitTest16total_test_countEv
	.def	__ZNK7testing8UnitTest16total_test_countEv;	.scl	2;	.type	32;	.endef
__ZNK7testing8UnitTest16total_test_countEv:
LFB10278:
	.cfi_startproc
	pushl	%ebp
	.cfi_def_cfa_offset 8
	.cfi_offset 5, -8
	movl	8(%ecx), %ecx
	movl	%esp, %ebp
	.cfi_def_cfa_register 5
	popl	%ebp
	.cfi_restore 5
	.cfi_def_cfa 4, 4
	jmp	__ZNK7testing8internal12UnitTestImpl16total_test_countEv
	.cfi_endproc
LFE10278:
	.section	.text.unlikely._ZNK7testing8UnitTest16total_test_countEv,"x"
LCOLDE214:
	.section	.text$_ZNK7testing8UnitTest16total_test_countEv,"x"
LHOTE214:
	.section	.text.unlikely._ZNK7testing8UnitTest17test_to_run_countEv,"x"
	.align 2
LCOLDB215:
	.section	.text$_ZNK7testing8UnitTest17test_to_run_countEv,"x"
LHOTB215:
	.align 2
	.globl	__ZNK7testing8UnitTest17test_to_run_countEv
	.def	__ZNK7testing8UnitTest17test_to_run_countEv;	.scl	2;	.type	32;	.endef
__ZNK7testing8UnitTest17test_to_run_countEv:
LFB10279:
	.cfi_startproc
	pushl	%ebp
	.cfi_def_cfa_offset 8
	.cfi_offset 5, -8
	movl	8(%ecx), %ecx
	movl	%esp, %ebp
	.cfi_def_cfa_register 5
	popl	%ebp
	.cfi_restore 5
	.cfi_def_cfa 4, 4
	jmp	__ZNK7testing8internal12UnitTestImpl17test_to_run_countEv
	.cfi_endproc
LFE10279:
	.section	.text.unlikely._ZNK7testing8UnitTest17test_to_run_countEv,"x"
LCOLDE215:
	.section	.text$_ZNK7testing8UnitTest17test_to_run_countEv,"x"
LHOTE215:
	.section	.text.unlikely._ZNK7testing8UnitTest15start_timestampEv,"x"
	.align 2
LCOLDB216:
	.section	.text$_ZNK7testing8UnitTest15start_timestampEv,"x"
LHOTB216:
	.align 2
	.globl	__ZNK7testing8UnitTest15start_timestampEv
	.def	__ZNK7testing8UnitTest15start_timestampEv;	.scl	2;	.type	32;	.endef
__ZNK7testing8UnitTest15start_timestampEv:
LFB10280:
	.cfi_startproc
	movl	8(%ecx), %eax
	pushl	%ebp
	.cfi_def_cfa_offset 8
	.cfi_offset 5, -8
	movl	%esp, %ebp
	.cfi_def_cfa_register 5
	movl	204(%eax), %edx
	movl	200(%eax), %eax
	popl	%ebp
	.cfi_restore 5
	.cfi_def_cfa 4, 4
	ret
	.cfi_endproc
LFE10280:
	.section	.text.unlikely._ZNK7testing8UnitTest15start_timestampEv,"x"
LCOLDE216:
	.section	.text$_ZNK7testing8UnitTest15start_timestampEv,"x"
LHOTE216:
	.section	.text.unlikely._ZNK7testing8UnitTest12elapsed_timeEv,"x"
	.align 2
LCOLDB217:
	.section	.text$_ZNK7testing8UnitTest12elapsed_timeEv,"x"
LHOTB217:
	.align 2
	.globl	__ZNK7testing8UnitTest12elapsed_timeEv
	.def	__ZNK7testing8UnitTest12elapsed_timeEv;	.scl	2;	.type	32;	.endef
__ZNK7testing8UnitTest12elapsed_timeEv:
LFB10281:
	.cfi_startproc
	movl	8(%ecx), %eax
	pushl	%ebp
	.cfi_def_cfa_offset 8
	.cfi_offset 5, -8
	movl	%esp, %ebp
	.cfi_def_cfa_register 5
	movl	212(%eax), %edx
	movl	208(%eax), %eax
	popl	%ebp
	.cfi_restore 5
	.cfi_def_cfa 4, 4
	ret
	.cfi_endproc
LFE10281:
	.section	.text.unlikely._ZNK7testing8UnitTest12elapsed_timeEv,"x"
LCOLDE217:
	.section	.text$_ZNK7testing8UnitTest12elapsed_timeEv,"x"
LHOTE217:
	.section	.text.unlikely._ZNK7testing8UnitTest18ad_hoc_test_resultEv,"x"
	.align 2
LCOLDB218:
	.section	.text$_ZNK7testing8UnitTest18ad_hoc_test_resultEv,"x"
LHOTB218:
	.align 2
	.globl	__ZNK7testing8UnitTest18ad_hoc_test_resultEv
	.def	__ZNK7testing8UnitTest18ad_hoc_test_resultEv;	.scl	2;	.type	32;	.endef
__ZNK7testing8UnitTest18ad_hoc_test_resultEv:
LFB10285:
	.cfi_startproc
	movl	8(%ecx), %eax
	pushl	%ebp
	.cfi_def_cfa_offset 8
	.cfi_offset 5, -8
	movl	%esp, %ebp
	.cfi_def_cfa_register 5
	subl	$-128, %eax
	popl	%ebp
	.cfi_restore 5
	.cfi_def_cfa 4, 4
	ret
	.cfi_endproc
LFE10285:
	.section	.text.unlikely._ZNK7testing8UnitTest18ad_hoc_test_resultEv,"x"
LCOLDE218:
	.section	.text$_ZNK7testing8UnitTest18ad_hoc_test_resultEv,"x"
LHOTE218:
	.section	.text.unlikely._ZN7testing8UnitTest9listenersEv,"x"
	.align 2
LCOLDB219:
	.section	.text$_ZN7testing8UnitTest9listenersEv,"x"
LHOTB219:
	.align 2
	.globl	__ZN7testing8UnitTest9listenersEv
	.def	__ZN7testing8UnitTest9listenersEv;	.scl	2;	.type	32;	.endef
__ZN7testing8UnitTest9listenersEv:
LFB10287:
	.cfi_startproc
	movl	8(%ecx), %eax
	pushl	%ebp
	.cfi_def_cfa_offset 8
	.cfi_offset 5, -8
	movl	%esp, %ebp
	.cfi_def_cfa_register 5
	addl	$168, %eax
	popl	%ebp
	.cfi_restore 5
	.cfi_def_cfa 4, 4
	ret
	.cfi_endproc
LFE10287:
	.section	.text.unlikely._ZN7testing8UnitTest9listenersEv,"x"
LCOLDE219:
	.section	.text$_ZN7testing8UnitTest9listenersEv,"x"
LHOTE219:
	.section	.text.unlikely._ZNK7testing8UnitTest20original_working_dirEv,"x"
	.align 2
LCOLDB220:
	.section	.text$_ZNK7testing8UnitTest20original_working_dirEv,"x"
LHOTB220:
	.align 2
	.globl	__ZNK7testing8UnitTest20original_working_dirEv
	.def	__ZNK7testing8UnitTest20original_working_dirEv;	.scl	2;	.type	32;	.endef
__ZNK7testing8UnitTest20original_working_dirEv:
LFB10301:
	.cfi_startproc
	movl	8(%ecx), %eax
	pushl	%ebp
	.cfi_def_cfa_offset 8
	.cfi_offset 5, -8
	movl	%esp, %ebp
	.cfi_def_cfa_register 5
	movl	8(%eax), %eax
	popl	%ebp
	.cfi_restore 5
	.cfi_def_cfa 4, 4
	ret
	.cfi_endproc
LFE10301:
	.section	.text.unlikely._ZNK7testing8UnitTest20original_working_dirEv,"x"
LCOLDE220:
	.section	.text$_ZNK7testing8UnitTest20original_working_dirEv,"x"
LHOTE220:
	.section	.text.unlikely._ZNK7testing8UnitTest17current_test_caseEv,"x"
	.align 2
LCOLDB221:
	.section	.text$_ZNK7testing8UnitTest17current_test_caseEv,"x"
LHOTB221:
	.align 2
	.globl	__ZNK7testing8UnitTest17current_test_caseEv
	.def	__ZNK7testing8UnitTest17current_test_caseEv;	.scl	2;	.type	32;	.endef
__ZNK7testing8UnitTest17current_test_caseEv:
LFB10302:
	.cfi_startproc
	movl	8(%ecx), %eax
	pushl	%ebp
	.cfi_def_cfa_offset 8
	.cfi_offset 5, -8
	movl	%esp, %ebp
	.cfi_def_cfa_register 5
	movl	116(%eax), %eax
	popl	%ebp
	.cfi_restore 5
	.cfi_def_cfa 4, 4
	ret
	.cfi_endproc
LFE10302:
	.section	.text.unlikely._ZNK7testing8UnitTest17current_test_caseEv,"x"
LCOLDE221:
	.section	.text$_ZNK7testing8UnitTest17current_test_caseEv,"x"
LHOTE221:
	.section	.text.unlikely._ZNK7testing8UnitTest17current_test_infoEv,"x"
	.align 2
LCOLDB222:
	.section	.text$_ZNK7testing8UnitTest17current_test_infoEv,"x"
LHOTB222:
	.align 2
	.globl	__ZNK7testing8UnitTest17current_test_infoEv
	.def	__ZNK7testing8UnitTest17current_test_infoEv;	.scl	2;	.type	32;	.endef
__ZNK7testing8UnitTest17current_test_infoEv:
LFB10303:
	.cfi_startproc
	movl	8(%ecx), %eax
	pushl	%ebp
	.cfi_def_cfa_offset 8
	.cfi_offset 5, -8
	movl	%esp, %ebp
	.cfi_def_cfa_register 5
	movl	120(%eax), %eax
	popl	%ebp
	.cfi_restore 5
	.cfi_def_cfa 4, 4
	ret
	.cfi_endproc
LFE10303:
	.section	.text.unlikely._ZNK7testing8UnitTest17current_test_infoEv,"x"
LCOLDE222:
	.section	.text$_ZNK7testing8UnitTest17current_test_infoEv,"x"
LHOTE222:
	.section	.text.unlikely._ZNK7testing8UnitTest11random_seedEv,"x"
	.align 2
LCOLDB223:
	.section	.text$_ZNK7testing8UnitTest11random_seedEv,"x"
LHOTB223:
	.align 2
	.globl	__ZNK7testing8UnitTest11random_seedEv
	.def	__ZNK7testing8UnitTest11random_seedEv;	.scl	2;	.type	32;	.endef
__ZNK7testing8UnitTest11random_seedEv:
LFB10304:
	.cfi_startproc
	movl	8(%ecx), %eax
	pushl	%ebp
	.cfi_def_cfa_offset 8
	.cfi_offset 5, -8
	movl	%esp, %ebp
	.cfi_def_cfa_register 5
	movl	188(%eax), %eax
	popl	%ebp
	.cfi_restore 5
	.cfi_def_cfa 4, 4
	ret
	.cfi_endproc
LFE10304:
	.section	.text.unlikely._ZNK7testing8UnitTest11random_seedEv,"x"
LCOLDE223:
	.section	.text$_ZNK7testing8UnitTest11random_seedEv,"x"
LHOTE223:
	.section	.text.unlikely._ZN7testing8UnitTest27parameterized_test_registryEv,"x"
	.align 2
LCOLDB224:
	.section	.text$_ZN7testing8UnitTest27parameterized_test_registryEv,"x"
LHOTB224:
	.align 2
	.globl	__ZN7testing8UnitTest27parameterized_test_registryEv
	.def	__ZN7testing8UnitTest27parameterized_test_registryEv;	.scl	2;	.type	32;	.endef
__ZN7testing8UnitTest27parameterized_test_registryEv:
LFB10305:
	.cfi_startproc
	movl	8(%ecx), %eax
	pushl	%ebp
	.cfi_def_cfa_offset 8
	.cfi_offset 5, -8
	movl	%esp, %ebp
	.cfi_def_cfa_register 5
	addl	$96, %eax
	popl	%ebp
	.cfi_restore 5
	.cfi_def_cfa 4, 4
	ret
	.cfi_endproc
LFE10305:
	.section	.text.unlikely._ZN7testing8UnitTest27parameterized_test_registryEv,"x"
LCOLDE224:
	.section	.text$_ZN7testing8UnitTest27parameterized_test_registryEv,"x"
LHOTE224:
	.section	.text.unlikely._ZN7testing8UnitTest13PopGTestTraceEv,"x"
	.align 2
LCOLDB225:
	.section	.text$_ZN7testing8UnitTest13PopGTestTraceEv,"x"
LHOTB225:
	.align 2
	.globl	__ZN7testing8UnitTest13PopGTestTraceEv
	.def	__ZN7testing8UnitTest13PopGTestTraceEv;	.scl	2;	.type	32;	.endef
__ZN7testing8UnitTest13PopGTestTraceEv:
LFB10314:
	.cfi_startproc
	pushl	%ebp
	.cfi_def_cfa_offset 8
	.cfi_offset 5, -8
	movl	8(%ecx), %eax
	movl	%esp, %ebp
	.cfi_def_cfa_register 5
	movl	228(%eax), %ecx
	leal	-32(%ecx), %edx
	subl	$24, %ecx
	movl	%edx, 228(%eax)
	popl	%ebp
	.cfi_restore 5
	.cfi_def_cfa 4, 4
	jmp	__ZNSt7__cxx1112basic_stringIcSt11char_traitsIcESaIcEE10_M_disposeEv
	.cfi_endproc
LFE10314:
	.section	.text.unlikely._ZN7testing8UnitTest13PopGTestTraceEv,"x"
LCOLDE225:
	.section	.text$_ZN7testing8UnitTest13PopGTestTraceEv,"x"
LHOTE225:
	.section	.text.unlikely._ZN7testing8internal12UnitTestImpl32SuppressTestEventsIfInSubprocessEv,"x"
	.align 2
LCOLDB226:
	.section	.text$_ZN7testing8internal12UnitTestImpl32SuppressTestEventsIfInSubprocessEv,"x"
LHOTB226:
	.align 2
	.globl	__ZN7testing8internal12UnitTestImpl32SuppressTestEventsIfInSubprocessEv
	.def	__ZN7testing8internal12UnitTestImpl32SuppressTestEventsIfInSubprocessEv;	.scl	2;	.type	32;	.endef
__ZN7testing8internal12UnitTestImpl32SuppressTestEventsIfInSubprocessEv:
LFB10332:
	.cfi_startproc
	cmpl	$0, 216(%ecx)
	pushl	%ebp
	.cfi_def_cfa_offset 8
	.cfi_offset 5, -8
	movl	%esp, %ebp
	.cfi_def_cfa_register 5
	je	L695
	movl	168(%ecx), %eax
	movb	$0, 4(%eax)
L695:
	popl	%ebp
	.cfi_restore 5
	.cfi_def_cfa 4, 4
	ret
	.cfi_endproc
LFE10332:
	.section	.text.unlikely._ZN7testing8internal12UnitTestImpl32SuppressTestEventsIfInSubprocessEv,"x"
LCOLDE226:
	.section	.text$_ZN7testing8internal12UnitTestImpl32SuppressTestEventsIfInSubprocessEv,"x"
LHOTE226:
	.section	.text$_ZNK7testing8internal14TestCaseNameIsclEPKNS_8TestCaseE,"x"
	.linkonce discard
	.align 2
LCOLDB227:
LHOTB227:
	.align 2
	.globl	__ZNK7testing8internal14TestCaseNameIsclEPKNS_8TestCaseE
	.def	__ZNK7testing8internal14TestCaseNameIsclEPKNS_8TestCaseE;	.scl	2;	.type	32;	.endef
__ZNK7testing8internal14TestCaseNameIsclEPKNS_8TestCaseE:
LFB10338:
	.cfi_startproc
	pushl	%ebp
	.cfi_def_cfa_offset 8
	.cfi_offset 5, -8
	xorl	%eax, %eax
	movl	%esp, %ebp
	.cfi_def_cfa_register 5
	subl	$24, %esp
	movl	8(%ebp), %edx
	testl	%edx, %edx
	je	L699
	movl	(%ecx), %eax
	movl	%eax, 4(%esp)
	movl	4(%edx), %eax
	movl	%eax, (%esp)
	call	_strcmp
	testl	%eax, %eax
	sete	%al
L699:
	leave
	.cfi_restore 5
	.cfi_def_cfa 4, 4
	ret	$4
	.cfi_endproc
LFE10338:
LCOLDE227:
LHOTE227:
	.section .rdata,"dr"
LC228:
	.ascii "w\0"
LC229:
	.ascii "Could not write to the test shard status file \"%s\" specified by the %s environment variable.\12\0"
	.section	.text.unlikely._ZN7testing8internal30WriteToShardStatusFileIfNeededEv,"x"
LCOLDB230:
	.section	.text$_ZN7testing8internal30WriteToShardStatusFileIfNeededEv,"x"
LHOTB230:
	.globl	__ZN7testing8internal30WriteToShardStatusFileIfNeededEv
	.def	__ZN7testing8internal30WriteToShardStatusFileIfNeededEv;	.scl	2;	.type	32;	.endef
__ZN7testing8internal30WriteToShardStatusFileIfNeededEv:
LFB10349:
	.cfi_startproc
	pushl	%ebp
	.cfi_def_cfa_offset 8
	.cfi_offset 5, -8
	movl	%esp, %ebp
	.cfi_def_cfa_register 5
	pushl	%ebx
	subl	$20, %esp
	.cfi_offset 3, -12
	movl	$__ZN7testingL20kTestShardStatusFileE, (%esp)
	call	_getenv
	testl	%eax, %eax
	je	L703
	movl	$LC228, 4(%esp)
	movl	%eax, (%esp)
	movl	%eax, %ebx
	call	_fopen
	testl	%eax, %eax
	jne	L705
	movl	$__ZN7testingL20kTestShardStatusFileE, 12(%esp)
	movl	%ebx, 8(%esp)
	movl	$LC229, 4(%esp)
	movl	$1, (%esp)
	call	__ZN7testing8internal13ColoredPrintfENS0_10GTestColorEPKcz
	movl	__imp___iob, %eax
	addl	$32, %eax
	movl	%eax, (%esp)
	call	_fflush
	movl	$1, (%esp)
	call	_exit
L705:
	movl	%eax, (%esp)
	call	_fclose
L703:
	addl	$20, %esp
	popl	%ebx
	.cfi_restore 3
	popl	%ebp
	.cfi_restore 5
	.cfi_def_cfa 4, 4
	ret
	.cfi_endproc
LFE10349:
	.section	.text.unlikely._ZN7testing8internal30WriteToShardStatusFileIfNeededEv,"x"
LCOLDE230:
	.section	.text$_ZN7testing8internal30WriteToShardStatusFileIfNeededEv,"x"
LHOTE230:
	.section	.text.unlikely._ZN7testing8internal20ShouldRunTestOnShardEiii,"x"
LCOLDB231:
	.section	.text$_ZN7testing8internal20ShouldRunTestOnShardEiii,"x"
LHOTB231:
	.globl	__ZN7testing8internal20ShouldRunTestOnShardEiii
	.def	__ZN7testing8internal20ShouldRunTestOnShardEiii;	.scl	2;	.type	32;	.endef
__ZN7testing8internal20ShouldRunTestOnShardEiii:
LFB10352:
	.cfi_startproc
	pushl	%ebp
	.cfi_def_cfa_offset 8
	.cfi_offset 5, -8
	movl	%esp, %ebp
	.cfi_def_cfa_register 5
	movl	16(%ebp), %eax
	cltd
	idivl	8(%ebp)
	cmpl	12(%ebp), %edx
	popl	%ebp
	.cfi_restore 5
	.cfi_def_cfa 4, 4
	sete	%al
	ret
	.cfi_endproc
LFE10352:
	.section	.text.unlikely._ZN7testing8internal20ShouldRunTestOnShardEiii,"x"
LCOLDE231:
	.section	.text$_ZN7testing8internal20ShouldRunTestOnShardEiii,"x"
LHOTE231:
	.section .rdata,"dr"
LC232:
	.ascii "%s.\0"
LC233:
	.ascii "  # %s = \0"
LC234:
	.ascii "  %s\0"
	.section	.text.unlikely._ZN7testing8internal12UnitTestImpl23ListTestsMatchingFilterEv,"x"
	.align 2
LCOLDB235:
	.section	.text$_ZN7testing8internal12UnitTestImpl23ListTestsMatchingFilterEv,"x"
LHOTB235:
	.align 2
	.globl	__ZN7testing8internal12UnitTestImpl23ListTestsMatchingFilterEv
	.def	__ZN7testing8internal12UnitTestImpl23ListTestsMatchingFilterEv;	.scl	2;	.type	32;	.endef
__ZN7testing8internal12UnitTestImpl23ListTestsMatchingFilterEv:
LFB10355:
	.cfi_startproc
	pushl	%ebp
	.cfi_def_cfa_offset 8
	.cfi_offset 5, -8
	movl	%esp, %ebp
	.cfi_def_cfa_register 5
	pushl	%edi
	pushl	%esi
	pushl	%ebx
	.cfi_offset 7, -12
	.cfi_offset 6, -16
	.cfi_offset 3, -20
	movl	%ecx, %edi
	subl	$44, %esp
	movl	$0, -28(%ebp)
L722:
	movl	72(%edi), %edx
	movl	76(%edi), %eax
	subl	%edx, %eax
	sarl	$2, %eax
	cmpl	%eax, -28(%ebp)
	jnb	L713
	movl	-28(%ebp), %eax
	movl	$0, -32(%ebp)
	movl	(%edx,%eax,4), %ebx
	xorl	%edx, %edx
L721:
	movl	32(%ebx), %ecx
	movl	36(%ebx), %eax
	subl	%ecx, %eax
	sarl	$2, %eax
	cmpl	%eax, -32(%ebp)
	jnb	L714
	movl	-32(%ebp), %eax
	movl	(%ecx,%eax,4), %esi
	cmpb	$0, 62(%esi)
	je	L715
	testb	%dl, %dl
	jne	L716
	movl	4(%ebx), %eax
	movl	$LC232, (%esp)
	movl	%eax, 4(%esp)
	call	__ZL6printfPKcz
	movl	28(%ebx), %eax
	testl	%eax, %eax
	je	L717
	cmpl	$0, (%eax)
	je	L717
	movl	$__ZN7testing8internalL15kTypeParamLabelE, 4(%esp)
	movl	$LC233, (%esp)
	call	__ZL6printfPKcz
	movl	28(%ebx), %edx
	xorl	%eax, %eax
	testl	%edx, %edx
	je	L718
	movl	(%edx), %eax
L718:
	call	__ZN7testing8internalL14PrintOnOneLineEPKci.constprop.577
L717:
	movl	$LC149, (%esp)
	call	__ZL6printfPKcz
L716:
	movl	24(%esi), %eax
	movl	$LC234, (%esp)
	movl	%eax, 4(%esp)
	call	__ZL6printfPKcz
	movl	52(%esi), %eax
	testl	%eax, %eax
	je	L719
	cmpl	$0, (%eax)
	je	L719
	movl	$__ZN7testing8internalL16kValueParamLabelE, 4(%esp)
	movl	$LC233, (%esp)
	call	__ZL6printfPKcz
	movl	52(%esi), %edx
	xorl	%eax, %eax
	testl	%edx, %edx
	je	L720
	movl	(%edx), %eax
L720:
	call	__ZN7testing8internalL14PrintOnOneLineEPKci.constprop.577
L719:
	movl	$LC149, (%esp)
	call	__ZL6printfPKcz
	movb	$1, %dl
L715:
	incl	-32(%ebp)
	jmp	L721
L714:
	incl	-28(%ebp)
	jmp	L722
L713:
	movl	__imp___iob, %eax
	addl	$32, %eax
	movl	%eax, (%esp)
	call	_fflush
	addl	$44, %esp
	popl	%ebx
	.cfi_restore 3
	popl	%esi
	.cfi_restore 6
	popl	%edi
	.cfi_restore 7
	popl	%ebp
	.cfi_restore 5
	.cfi_def_cfa 4, 4
	ret
	.cfi_endproc
LFE10355:
	.section	.text.unlikely._ZN7testing8internal12UnitTestImpl23ListTestsMatchingFilterEv,"x"
LCOLDE235:
	.section	.text$_ZN7testing8internal12UnitTestImpl23ListTestsMatchingFilterEv,"x"
LHOTE235:
	.section	.text.unlikely._ZN7testing8internal12UnitTestImpl25set_os_stack_trace_getterEPNS0_27OsStackTraceGetterInterfaceE,"x"
	.align 2
LCOLDB236:
	.section	.text$_ZN7testing8internal12UnitTestImpl25set_os_stack_trace_getterEPNS0_27OsStackTraceGetterInterfaceE,"x"
LHOTB236:
	.align 2
	.globl	__ZN7testing8internal12UnitTestImpl25set_os_stack_trace_getterEPNS0_27OsStackTraceGetterInterfaceE
	.def	__ZN7testing8internal12UnitTestImpl25set_os_stack_trace_getterEPNS0_27OsStackTraceGetterInterfaceE;	.scl	2;	.type	32;	.endef
__ZN7testing8internal12UnitTestImpl25set_os_stack_trace_getterEPNS0_27OsStackTraceGetterInterfaceE:
LFB10356:
	.cfi_startproc
	pushl	%ebp
	.cfi_def_cfa_offset 8
	.cfi_offset 5, -8
	movl	%ecx, %eax
	movl	%esp, %ebp
	.cfi_def_cfa_register 5
	pushl	%esi
	pushl	%ebx
	.cfi_offset 6, -12
	.cfi_offset 3, -16
	movl	8(%ebp), %esi
	movl	180(%ecx), %ecx
	cmpl	%esi, %ecx
	je	L732
	testl	%ecx, %ecx
	movl	%eax, %ebx
	je	L734
	movl	(%ecx), %eax
	call	*4(%eax)
L734:
	movl	%esi, 180(%ebx)
L732:
	popl	%ebx
	.cfi_restore 3
	popl	%esi
	.cfi_restore 6
	popl	%ebp
	.cfi_restore 5
	.cfi_def_cfa 4, 4
	ret	$4
	.cfi_endproc
LFE10356:
	.section	.text.unlikely._ZN7testing8internal12UnitTestImpl25set_os_stack_trace_getterEPNS0_27OsStackTraceGetterInterfaceE,"x"
LCOLDE236:
	.section	.text$_ZN7testing8internal12UnitTestImpl25set_os_stack_trace_getterEPNS0_27OsStackTraceGetterInterfaceE,"x"
LHOTE236:
	.section	.text.unlikely._ZN7testing8internal12UnitTestImpl21os_stack_trace_getterEv,"x"
	.align 2
LCOLDB237:
	.section	.text$_ZN7testing8internal12UnitTestImpl21os_stack_trace_getterEv,"x"
LHOTB237:
	.align 2
	.globl	__ZN7testing8internal12UnitTestImpl21os_stack_trace_getterEv
	.def	__ZN7testing8internal12UnitTestImpl21os_stack_trace_getterEv;	.scl	2;	.type	32;	.endef
__ZN7testing8internal12UnitTestImpl21os_stack_trace_getterEv:
LFB10357:
	.cfi_startproc
	pushl	%ebp
	.cfi_def_cfa_offset 8
	.cfi_offset 5, -8
	movl	%esp, %ebp
	.cfi_def_cfa_register 5
	pushl	%ebx
	.cfi_offset 3, -12
	movl	%ecx, %ebx
	subl	$20, %esp
	cmpl	$0, 180(%ecx)
	jne	L740
	movl	$12, (%esp)
	call	__Znwj
	movl	$__ZTVN7testing8internal18OsStackTraceGetterE+8, (%eax)
	movl	$0, 8(%eax)
	movl	%eax, 180(%ebx)
L740:
	movl	180(%ebx), %eax
	addl	$20, %esp
	popl	%ebx
	.cfi_restore 3
	popl	%ebp
	.cfi_restore 5
	.cfi_def_cfa 4, 4
	ret
	.cfi_endproc
LFE10357:
	.section	.text.unlikely._ZN7testing8internal12UnitTestImpl21os_stack_trace_getterEv,"x"
LCOLDE237:
	.section	.text$_ZN7testing8internal12UnitTestImpl21os_stack_trace_getterEv,"x"
LHOTE237:
	.section	.text.unlikely._ZN7testing8internal12UnitTestImpl19current_test_resultEv,"x"
	.align 2
LCOLDB238:
	.section	.text$_ZN7testing8internal12UnitTestImpl19current_test_resultEv,"x"
LHOTB238:
	.align 2
	.globl	__ZN7testing8internal12UnitTestImpl19current_test_resultEv
	.def	__ZN7testing8internal12UnitTestImpl19current_test_resultEv;	.scl	2;	.type	32;	.endef
__ZN7testing8internal12UnitTestImpl19current_test_resultEv:
LFB10358:
	.cfi_startproc
	pushl	%ebp
	.cfi_def_cfa_offset 8
	.cfi_offset 5, -8
	movl	120(%ecx), %edx
	subl	$-128, %ecx
	movl	%esp, %ebp
	.cfi_def_cfa_register 5
	leal	72(%edx), %eax
	testl	%edx, %edx
	popl	%ebp
	.cfi_restore 5
	.cfi_def_cfa 4, 4
	cmove	%ecx, %eax
	ret
	.cfi_endproc
LFE10358:
	.section	.text.unlikely._ZN7testing8internal12UnitTestImpl19current_test_resultEv,"x"
LCOLDE238:
	.section	.text$_ZN7testing8internal12UnitTestImpl19current_test_resultEv,"x"
LHOTE238:
	.section	.text.unlikely._ZN7testing8internal12UnitTestImpl14UnshuffleTestsEv,"x"
	.align 2
LCOLDB239:
	.section	.text$_ZN7testing8internal12UnitTestImpl14UnshuffleTestsEv,"x"
LHOTB239:
	.align 2
	.globl	__ZN7testing8internal12UnitTestImpl14UnshuffleTestsEv
	.def	__ZN7testing8internal12UnitTestImpl14UnshuffleTestsEv;	.scl	2;	.type	32;	.endef
__ZN7testing8internal12UnitTestImpl14UnshuffleTestsEv:
LFB10360:
	.cfi_startproc
	pushl	%ebp
	.cfi_def_cfa_offset 8
	.cfi_offset 5, -8
	movl	%esp, %ebp
	.cfi_def_cfa_register 5
	pushl	%esi
	.cfi_offset 6, -12
	movl	%ecx, %esi
	pushl	%ebx
	.cfi_offset 3, -16
	xorl	%ebx, %ebx
L748:
	movl	72(%esi), %edx
	movl	76(%esi), %eax
	subl	%edx, %eax
	sarl	$2, %eax
	cmpl	%eax, %ebx
	jnb	L746
	movl	(%edx,%ebx,4), %ecx
	call	__ZN7testing8TestCase14UnshuffleTestsEv
	movl	84(%esi), %eax
	movl	%ebx, (%eax,%ebx,4)
	incl	%ebx
	jmp	L748
L746:
	popl	%ebx
	.cfi_restore 3
	popl	%esi
	.cfi_restore 6
	popl	%ebp
	.cfi_restore 5
	.cfi_def_cfa 4, 4
	ret
	.cfi_endproc
LFE10360:
	.section	.text.unlikely._ZN7testing8internal12UnitTestImpl14UnshuffleTestsEv,"x"
LCOLDE239:
	.section	.text$_ZN7testing8internal12UnitTestImpl14UnshuffleTestsEv,"x"
LHOTE239:
	.section	.text.unlikely._ZN7testing8internal6IsTrueEb,"x"
LCOLDB240:
	.section	.text$_ZN7testing8internal6IsTrueEb,"x"
LHOTB240:
	.globl	__ZN7testing8internal6IsTrueEb
	.def	__ZN7testing8internal6IsTrueEb;	.scl	2;	.type	32;	.endef
__ZN7testing8internal6IsTrueEb:
LFB10362:
	.cfi_startproc
	pushl	%ebp
	.cfi_def_cfa_offset 8
	.cfi_offset 5, -8
	movl	%esp, %ebp
	.cfi_def_cfa_register 5
	movb	8(%ebp), %al
	popl	%ebp
	.cfi_restore 5
	.cfi_def_cfa 4, 4
	ret
	.cfi_endproc
LFE10362:
	.section	.text.unlikely._ZN7testing8internal6IsTrueEb,"x"
LCOLDE240:
	.section	.text$_ZN7testing8internal6IsTrueEb,"x"
LHOTE240:
	.section	.text.unlikely._ZN7testing8internal10AlwaysTrueEv,"x"
LCOLDB241:
	.section	.text$_ZN7testing8internal10AlwaysTrueEv,"x"
LHOTB241:
	.globl	__ZN7testing8internal10AlwaysTrueEv
	.def	__ZN7testing8internal10AlwaysTrueEv;	.scl	2;	.type	32;	.endef
__ZN7testing8internal10AlwaysTrueEv:
LFB10363:
	.cfi_startproc
	pushl	%ebp
	.cfi_def_cfa_offset 8
	.cfi_offset 5, -8
	movb	$1, %al
	movl	%esp, %ebp
	.cfi_def_cfa_register 5
	popl	%ebp
	.cfi_restore 5
	.cfi_def_cfa 4, 4
	ret
	.cfi_endproc
LFE10363:
	.section	.text.unlikely._ZN7testing8internal10AlwaysTrueEv,"x"
LCOLDE241:
	.section	.text$_ZN7testing8internal10AlwaysTrueEv,"x"
LHOTE241:
	.section	.text.unlikely._ZN7testing8internal10SkipPrefixEPKcPS2_,"x"
LCOLDB242:
	.section	.text$_ZN7testing8internal10SkipPrefixEPKcPS2_,"x"
LHOTB242:
	.globl	__ZN7testing8internal10SkipPrefixEPKcPS2_
	.def	__ZN7testing8internal10SkipPrefixEPKcPS2_;	.scl	2;	.type	32;	.endef
__ZN7testing8internal10SkipPrefixEPKcPS2_:
LFB10364:
	.cfi_startproc
	pushl	%ebp
	.cfi_def_cfa_offset 8
	.cfi_offset 5, -8
	xorl	%eax, %eax
	orl	$-1, %ecx
	movl	%esp, %ebp
	.cfi_def_cfa_register 5
	pushl	%edi
	pushl	%esi
	pushl	%ebx
	subl	$28, %esp
	.cfi_offset 7, -12
	.cfi_offset 6, -16
	.cfi_offset 3, -20
	movl	8(%ebp), %edx
	movl	12(%ebp), %esi
	movl	%edx, %edi
	repnz scasb
	movl	(%esi), %edi
	movl	%edx, 4(%esp)
	notl	%ecx
	leal	-1(%ecx), %ebx
	movl	%edi, (%esp)
	movl	%ebx, 8(%esp)
	call	_strncmp
	xorl	%edx, %edx
	testl	%eax, %eax
	jne	L755
	addl	%edi, %ebx
	movb	$1, %dl
	movl	%ebx, (%esi)
L755:
	addl	$28, %esp
	movb	%dl, %al
	popl	%ebx
	.cfi_restore 3
	popl	%esi
	.cfi_restore 6
	popl	%edi
	.cfi_restore 7
	popl	%ebp
	.cfi_restore 5
	.cfi_def_cfa 4, 4
	ret
	.cfi_endproc
LFE10364:
	.section	.text.unlikely._ZN7testing8internal10SkipPrefixEPKcPS2_,"x"
LCOLDE242:
	.section	.text$_ZN7testing8internal10SkipPrefixEPKcPS2_,"x"
LHOTE242:
	.section .rdata,"dr"
LC243:
	.ascii "--\0"
LC244:
	.ascii "gtest_internal_\0"
LC245:
	.ascii "-\0"
LC246:
	.ascii "/\0"
LC247:
	.ascii "gtest-\0"
	.section	.text.unlikely._ZN7testing8internalL23HasGoogleTestFlagPrefixEPKc,"x"
LCOLDB248:
	.section	.text$_ZN7testing8internalL23HasGoogleTestFlagPrefixEPKc,"x"
LHOTB248:
	.def	__ZN7testing8internalL23HasGoogleTestFlagPrefixEPKc;	.scl	3;	.type	32;	.endef
__ZN7testing8internalL23HasGoogleTestFlagPrefixEPKc:
LFB10369:
	.cfi_startproc
	pushl	%ebp
	.cfi_def_cfa_offset 8
	.cfi_offset 5, -8
	movl	%esp, %ebp
	.cfi_def_cfa_register 5
	pushl	%ebx
	.cfi_offset 3, -12
	leal	-12(%ebp), %ebx
	subl	$36, %esp
	movl	%eax, -12(%ebp)
	movl	%ebx, 4(%esp)
	movl	$LC243, (%esp)
	call	__ZN7testing8internal10SkipPrefixEPKcPS2_
	testb	%al, %al
	je	L760
L763:
	movl	%ebx, 4(%esp)
	movl	$LC244, (%esp)
	call	__ZN7testing8internal10SkipPrefixEPKcPS2_
	testb	%al, %al
	jne	L761
	jmp	L767
L760:
	movl	%ebx, 4(%esp)
	movl	$LC245, (%esp)
	call	__ZN7testing8internal10SkipPrefixEPKcPS2_
	testb	%al, %al
	jne	L763
	movl	%ebx, 4(%esp)
	movl	$LC246, (%esp)
	call	__ZN7testing8internal10SkipPrefixEPKcPS2_
	testb	%al, %al
	jne	L763
L761:
	xorl	%eax, %eax
	jmp	L764
L767:
	movl	%ebx, 4(%esp)
	movl	$LC146, (%esp)
	call	__ZN7testing8internal10SkipPrefixEPKcPS2_
	testb	%al, %al
	jne	L764
	movl	%ebx, 4(%esp)
	movl	$LC247, (%esp)
	call	__ZN7testing8internal10SkipPrefixEPKcPS2_
L764:
	addl	$36, %esp
	popl	%ebx
	.cfi_restore 3
	popl	%ebp
	.cfi_restore 5
	.cfi_def_cfa 4, 4
	ret
	.cfi_endproc
LFE10369:
	.section	.text.unlikely._ZN7testing8internalL23HasGoogleTestFlagPrefixEPKc,"x"
LCOLDE248:
	.section	.text$_ZN7testing8internalL23HasGoogleTestFlagPrefixEPKc,"x"
LHOTE248:
	.section	.text.unlikely._ZN7testing8internal14ParseFlagValueEPKcS2_b,"x"
LCOLDB249:
	.section	.text$_ZN7testing8internal14ParseFlagValueEPKcS2_b,"x"
LHOTB249:
	.globl	__ZN7testing8internal14ParseFlagValueEPKcS2_b
	.def	__ZN7testing8internal14ParseFlagValueEPKcS2_b;	.scl	2;	.type	32;	.endef
__ZN7testing8internal14ParseFlagValueEPKcS2_b:
LFB10365:
	.cfi_startproc
	pushl	%ebp
	.cfi_def_cfa_offset 8
	.cfi_offset 5, -8
	movl	%esp, %ebp
	.cfi_def_cfa_register 5
	pushl	%edi
	pushl	%esi
	pushl	%ebx
	subl	$124, %esp
	.cfi_offset 7, -12
	.cfi_offset 6, -16
	.cfi_offset 3, -20
	movl	8(%ebp), %esi
	movl	12(%ebp), %ebx
	movl	16(%ebp), %edi
	testl	%esi, %esi
	je	L772
	testl	%ebx, %ebx
	je	L772
	leal	-72(%ebp), %ecx
	movl	$LC243, (%esp)
	call	__ZNSt7__cxx1112basic_stringIcSt11char_traitsIcESaIcEEC2EPKcRKS3_.isra.402
	pushl	%eax
	leal	-72(%ebp), %ecx
	movl	$LC146, (%esp)
	call	__ZNSt7__cxx1112basic_stringIcSt11char_traitsIcESaIcEE6appendEPKc
	pushl	%edx
	leal	-48(%ebp), %ecx
	movl	%eax, (%esp)
	call	__ZNSt7__cxx1112basic_stringIcSt11char_traitsIcESaIcEEC1EOS4_
	pushl	%ecx
	leal	-48(%ebp), %ecx
	movl	%ebx, (%esp)
	call	__ZNSt7__cxx1112basic_stringIcSt11char_traitsIcESaIcEE6appendEPKc
	pushl	%ebx
	leal	-96(%ebp), %ecx
	movl	%eax, (%esp)
	call	__ZNSt7__cxx1112basic_stringIcSt11char_traitsIcESaIcEEC1EOS4_
	leal	-48(%ebp), %ecx
	pushl	%eax
	call	__ZNSt7__cxx1112basic_stringIcSt11char_traitsIcESaIcEE10_M_disposeEv
	leal	-72(%ebp), %ecx
	call	__ZNSt7__cxx1112basic_stringIcSt11char_traitsIcESaIcEE10_M_disposeEv
	movl	-96(%ebp), %eax
	movl	-92(%ebp), %ebx
	movl	%esi, (%esp)
	movl	%ebx, 8(%esp)
	movl	%eax, 4(%esp)
	call	_strncmp
	movl	%eax, %edx
	xorl	%eax, %eax
	testl	%edx, %edx
	jne	L770
	movl	%edi, %eax
	leal	(%esi,%ebx), %edx
	testb	%al, %al
	je	L771
	cmpb	$0, (%edx)
	movl	%edx, %eax
	je	L770
L771:
	cmpb	$61, (%edx)
	leal	1(%edx), %ecx
	movl	$0, %eax
	cmove	%ecx, %eax
L770:
	leal	-96(%ebp), %ecx
	movl	%eax, -108(%ebp)
	call	__ZNSt7__cxx1112basic_stringIcSt11char_traitsIcESaIcEE10_M_disposeEv
	movl	-108(%ebp), %eax
	jmp	L769
L772:
	xorl	%eax, %eax
L769:
	leal	-12(%ebp), %esp
	popl	%ebx
	.cfi_restore 3
	popl	%esi
	.cfi_restore 6
	popl	%edi
	.cfi_restore 7
	popl	%ebp
	.cfi_restore 5
	.cfi_def_cfa 4, 4
	ret
	.cfi_endproc
LFE10365:
	.section	.text.unlikely._ZN7testing8internal14ParseFlagValueEPKcS2_b,"x"
LCOLDE249:
	.section	.text$_ZN7testing8internal14ParseFlagValueEPKcS2_b,"x"
LHOTE249:
	.section	.text.unlikely._ZN7testing8internal13ParseBoolFlagEPKcS2_Pb,"x"
LCOLDB250:
	.section	.text$_ZN7testing8internal13ParseBoolFlagEPKcS2_Pb,"x"
LHOTB250:
	.globl	__ZN7testing8internal13ParseBoolFlagEPKcS2_Pb
	.def	__ZN7testing8internal13ParseBoolFlagEPKcS2_Pb;	.scl	2;	.type	32;	.endef
__ZN7testing8internal13ParseBoolFlagEPKcS2_Pb:
LFB10366:
	.cfi_startproc
	pushl	%ebp
	.cfi_def_cfa_offset 8
	.cfi_offset 5, -8
	movl	%esp, %ebp
	.cfi_def_cfa_register 5
	subl	$24, %esp
	movl	12(%ebp), %eax
	movl	$1, 8(%esp)
	movl	%eax, 4(%esp)
	movl	8(%ebp), %eax
	movl	%eax, (%esp)
	call	__ZN7testing8internal14ParseFlagValueEPKcS2_b
	xorl	%edx, %edx
	testl	%eax, %eax
	je	L778
	movb	(%eax), %dl
	movb	%dl, %al
	andl	$-33, %eax
	cmpb	$70, %al
	setne	%cl
	cmpb	$48, %dl
	movl	16(%ebp), %edx
	setne	%al
	andl	%ecx, %eax
	movb	%al, (%edx)
	movb	$1, %dl
L778:
	movb	%dl, %al
	leave
	.cfi_restore 5
	.cfi_def_cfa 4, 4
	ret
	.cfi_endproc
LFE10366:
	.section	.text.unlikely._ZN7testing8internal13ParseBoolFlagEPKcS2_Pb,"x"
LCOLDE250:
	.section	.text$_ZN7testing8internal13ParseBoolFlagEPKcS2_Pb,"x"
LHOTE250:
	.section	.text.unlikely._ZN7testing8internal15ParseStringFlagEPKcS2_PNSt7__cxx1112basic_stringIcSt11char_traitsIcESaIcEEE,"x"
LCOLDB251:
	.section	.text$_ZN7testing8internal15ParseStringFlagEPKcS2_PNSt7__cxx1112basic_stringIcSt11char_traitsIcESaIcEEE,"x"
LHOTB251:
	.globl	__ZN7testing8internal15ParseStringFlagEPKcS2_PNSt7__cxx1112basic_stringIcSt11char_traitsIcESaIcEEE
	.def	__ZN7testing8internal15ParseStringFlagEPKcS2_PNSt7__cxx1112basic_stringIcSt11char_traitsIcESaIcEEE;	.scl	2;	.type	32;	.endef
__ZN7testing8internal15ParseStringFlagEPKcS2_PNSt7__cxx1112basic_stringIcSt11char_traitsIcESaIcEEE:
LFB10368:
	.cfi_startproc
	pushl	%ebp
	.cfi_def_cfa_offset 8
	.cfi_offset 5, -8
	movl	%esp, %ebp
	.cfi_def_cfa_register 5
	subl	$24, %esp
	movl	12(%ebp), %eax
	movl	$0, 8(%esp)
	movl	%eax, 4(%esp)
	movl	8(%ebp), %eax
	movl	%eax, (%esp)
	call	__ZN7testing8internal14ParseFlagValueEPKcS2_b
	xorl	%edx, %edx
	testl	%eax, %eax
	je	L783
	movl	16(%ebp), %ecx
	movl	%eax, (%esp)
	call	__ZNSt7__cxx1112basic_stringIcSt11char_traitsIcESaIcEEaSEPKc
	pushl	%eax
	movb	$1, %dl
L783:
	movb	%dl, %al
	leave
	.cfi_restore 5
	.cfi_def_cfa 4, 4
	ret
	.cfi_endproc
LFE10368:
	.section	.text.unlikely._ZN7testing8internal15ParseStringFlagEPKcS2_PNSt7__cxx1112basic_stringIcSt11char_traitsIcESaIcEEE,"x"
LCOLDE251:
	.section	.text$_ZN7testing8internal15ParseStringFlagEPKcS2_PNSt7__cxx1112basic_stringIcSt11char_traitsIcESaIcEEE,"x"
LHOTE251:
	.section	.text.unlikely._ZN7testing8internal16InDeathTestChildEv,"x"
LCOLDB252:
	.section	.text$_ZN7testing8internal16InDeathTestChildEv,"x"
LHOTB252:
	.globl	__ZN7testing8internal16InDeathTestChildEv
	.def	__ZN7testing8internal16InDeathTestChildEv;	.scl	2;	.type	32;	.endef
__ZN7testing8internal16InDeathTestChildEv:
LFB10377:
	.cfi_startproc
	cmpl	$0, __ZN7testing8internal35FLAGS_gtest_internal_run_death_testB5cxx11E+4
	pushl	%ebp
	.cfi_def_cfa_offset 8
	.cfi_offset 5, -8
	movl	%esp, %ebp
	.cfi_def_cfa_register 5
	popl	%ebp
	.cfi_restore 5
	.cfi_def_cfa 4, 4
	setne	%al
	ret
	.cfi_endproc
LFE10377:
	.section	.text.unlikely._ZN7testing8internal16InDeathTestChildEv,"x"
LCOLDE252:
	.section	.text$_ZN7testing8internal16InDeathTestChildEv,"x"
LHOTE252:
	.section	.text.unlikely._ZN7testing14ExitedWithCodeC2Ei,"x"
	.align 2
LCOLDB253:
	.section	.text$_ZN7testing14ExitedWithCodeC2Ei,"x"
LHOTB253:
	.align 2
	.globl	__ZN7testing14ExitedWithCodeC2Ei
	.def	__ZN7testing14ExitedWithCodeC2Ei;	.scl	2;	.type	32;	.endef
__ZN7testing14ExitedWithCodeC2Ei:
LFB10379:
	.cfi_startproc
	pushl	%ebp
	.cfi_def_cfa_offset 8
	.cfi_offset 5, -8
	movl	%esp, %ebp
	.cfi_def_cfa_register 5
	movl	8(%ebp), %eax
	popl	%ebp
	.cfi_restore 5
	.cfi_def_cfa 4, 4
	movl	%eax, (%ecx)
	ret	$4
	.cfi_endproc
LFE10379:
	.section	.text.unlikely._ZN7testing14ExitedWithCodeC2Ei,"x"
LCOLDE253:
	.section	.text$_ZN7testing14ExitedWithCodeC2Ei,"x"
LHOTE253:
	.globl	__ZN7testing14ExitedWithCodeC1Ei
	.def	__ZN7testing14ExitedWithCodeC1Ei;	.scl	2;	.type	32;	.endef
	.set	__ZN7testing14ExitedWithCodeC1Ei,__ZN7testing14ExitedWithCodeC2Ei
	.section	.text.unlikely._ZNK7testing14ExitedWithCodeclEi,"x"
	.align 2
LCOLDB254:
	.section	.text$_ZNK7testing14ExitedWithCodeclEi,"x"
LHOTB254:
	.align 2
	.globl	__ZNK7testing14ExitedWithCodeclEi
	.def	__ZNK7testing14ExitedWithCodeclEi;	.scl	2;	.type	32;	.endef
__ZNK7testing14ExitedWithCodeclEi:
LFB10381:
	.cfi_startproc
	pushl	%ebp
	.cfi_def_cfa_offset 8
	.cfi_offset 5, -8
	movl	%esp, %ebp
	.cfi_def_cfa_register 5
	movl	8(%ebp), %eax
	cmpl	%eax, (%ecx)
	popl	%ebp
	.cfi_restore 5
	.cfi_def_cfa 4, 4
	sete	%al
	ret	$4
	.cfi_endproc
LFE10381:
	.section	.text.unlikely._ZNK7testing14ExitedWithCodeclEi,"x"
LCOLDE254:
	.section	.text$_ZNK7testing14ExitedWithCodeclEi,"x"
LHOTE254:
	.section	.text.unlikely._ZN7testing8internal20ExitedUnsuccessfullyEi,"x"
LCOLDB255:
	.section	.text$_ZN7testing8internal20ExitedUnsuccessfullyEi,"x"
LHOTB255:
	.globl	__ZN7testing8internal20ExitedUnsuccessfullyEi
	.def	__ZN7testing8internal20ExitedUnsuccessfullyEi;	.scl	2;	.type	32;	.endef
__ZN7testing8internal20ExitedUnsuccessfullyEi:
LFB10383:
	.cfi_startproc
	pushl	%ebp
	.cfi_def_cfa_offset 8
	.cfi_offset 5, -8
	movl	%esp, %ebp
	.cfi_def_cfa_register 5
	cmpl	$0, 8(%ebp)
	popl	%ebp
	.cfi_restore 5
	.cfi_def_cfa 4, 4
	setne	%al
	ret
	.cfi_endproc
LFE10383:
	.section	.text.unlikely._ZN7testing8internal20ExitedUnsuccessfullyEi,"x"
LCOLDE255:
	.section	.text$_ZN7testing8internal20ExitedUnsuccessfullyEi,"x"
LHOTE255:
	.section	.text.unlikely._ZN7testing8internal23GetLastErrnoDescriptionB5cxx11Ev,"x"
LCOLDB256:
	.section	.text$_ZN7testing8internal23GetLastErrnoDescriptionB5cxx11Ev,"x"
LHOTB256:
	.globl	__ZN7testing8internal23GetLastErrnoDescriptionB5cxx11Ev
	.def	__ZN7testing8internal23GetLastErrnoDescriptionB5cxx11Ev;	.scl	2;	.type	32;	.endef
__ZN7testing8internal23GetLastErrnoDescriptionB5cxx11Ev:
LFB10385:
	.cfi_startproc
	pushl	%ebp
	.cfi_def_cfa_offset 8
	.cfi_offset 5, -8
	movl	%esp, %ebp
	.cfi_def_cfa_register 5
	pushl	%ebx
	subl	$20, %esp
	.cfi_offset 3, -12
	movl	__imp___errno, %ebx
	call	*%ebx
	cmpl	$0, (%eax)
	movl	$LC72, %edx
	je	L796
	call	*%ebx
	movl	(%eax), %eax
	movl	%eax, (%esp)
	call	_strerror
	movl	%eax, %edx
L796:
	movl	8(%ebp), %ecx
	movl	%edx, (%esp)
	call	__ZNSt7__cxx1112basic_stringIcSt11char_traitsIcESaIcEEC2EPKcRKS3_.isra.402
	movl	-4(%ebp), %ebx
	pushl	%eax
	movl	8(%ebp), %eax
	leave
	.cfi_restore 5
	.cfi_restore 3
	.cfi_def_cfa 4, 4
	ret
	.cfi_endproc
LFE10385:
	.section	.text.unlikely._ZN7testing8internal23GetLastErrnoDescriptionB5cxx11Ev,"x"
LCOLDE256:
	.section	.text$_ZN7testing8internal23GetLastErrnoDescriptionB5cxx11Ev,"x"
LHOTE256:
	.section	.text.unlikely._ZN7testing8internal9DeathTest11LastMessageEv,"x"
	.align 2
LCOLDB257:
	.section	.text$_ZN7testing8internal9DeathTest11LastMessageEv,"x"
LHOTB257:
	.align 2
	.globl	__ZN7testing8internal9DeathTest11LastMessageEv
	.def	__ZN7testing8internal9DeathTest11LastMessageEv;	.scl	2;	.type	32;	.endef
__ZN7testing8internal9DeathTest11LastMessageEv:
LFB10391:
	.cfi_startproc
	pushl	%ebp
	.cfi_def_cfa_offset 8
	.cfi_offset 5, -8
	movl	__ZN7testing8internal9DeathTest24last_death_test_message_B5cxx11E, %eax
	movl	%esp, %ebp
	.cfi_def_cfa_register 5
	popl	%ebp
	.cfi_restore 5
	.cfi_def_cfa 4, 4
	ret
	.cfi_endproc
LFE10391:
	.section	.text.unlikely._ZN7testing8internal9DeathTest11LastMessageEv,"x"
LCOLDE257:
	.section	.text$_ZN7testing8internal9DeathTest11LastMessageEv,"x"
LHOTE257:
	.section	.text.unlikely._ZN7testing8internal9DeathTest27set_last_death_test_messageERKNSt7__cxx1112basic_stringIcSt11char_traitsIcESaIcEEE,"x"
	.align 2
LCOLDB258:
	.section	.text$_ZN7testing8internal9DeathTest27set_last_death_test_messageERKNSt7__cxx1112basic_stringIcSt11char_traitsIcESaIcEEE,"x"
LHOTB258:
	.align 2
	.globl	__ZN7testing8internal9DeathTest27set_last_death_test_messageERKNSt7__cxx1112basic_stringIcSt11char_traitsIcESaIcEEE
	.def	__ZN7testing8internal9DeathTest27set_last_death_test_messageERKNSt7__cxx1112basic_stringIcSt11char_traitsIcESaIcEEE;	.scl	2;	.type	32;	.endef
__ZN7testing8internal9DeathTest27set_last_death_test_messageERKNSt7__cxx1112basic_stringIcSt11char_traitsIcESaIcEEE:
LFB10392:
	.cfi_startproc
	pushl	%ebp
	.cfi_def_cfa_offset 8
	.cfi_offset 5, -8
	movl	$__ZN7testing8internal9DeathTest24last_death_test_message_B5cxx11E, %ecx
	movl	%esp, %ebp
	.cfi_def_cfa_register 5
	subl	$24, %esp
	movl	8(%ebp), %eax
	movl	%eax, (%esp)
	call	__ZNSt7__cxx1112basic_stringIcSt11char_traitsIcESaIcEE9_M_assignERKS4_
	pushl	%eax
	leave
	.cfi_restore 5
	.cfi_def_cfa 4, 4
	ret
	.cfi_endproc
LFE10392:
	.section	.text.unlikely._ZN7testing8internal9DeathTest27set_last_death_test_messageERKNSt7__cxx1112basic_stringIcSt11char_traitsIcESaIcEEE,"x"
LCOLDE258:
	.section	.text$_ZN7testing8internal9DeathTest27set_last_death_test_messageERKNSt7__cxx1112basic_stringIcSt11char_traitsIcESaIcEEE,"x"
LHOTE258:
	.section	.text.unlikely._ZNK7testing8internal8FilePath21FindLastPathSeparatorEv,"x"
	.align 2
LCOLDB259:
	.section	.text$_ZNK7testing8internal8FilePath21FindLastPathSeparatorEv,"x"
LHOTB259:
	.align 2
	.globl	__ZNK7testing8internal8FilePath21FindLastPathSeparatorEv
	.def	__ZNK7testing8internal8FilePath21FindLastPathSeparatorEv;	.scl	2;	.type	32;	.endef
__ZNK7testing8internal8FilePath21FindLastPathSeparatorEv:
LFB10430:
	.cfi_startproc
	pushl	%ebp
	.cfi_def_cfa_offset 8
	.cfi_offset 5, -8
	movl	%esp, %ebp
	.cfi_def_cfa_register 5
	pushl	%esi
	pushl	%ebx
	subl	$16, %esp
	.cfi_offset 6, -12
	.cfi_offset 3, -16
	movl	(%ecx), %esi
	movl	$92, 4(%esp)
	movl	%esi, (%esp)
	call	_strrchr
	movl	$47, 4(%esp)
	movl	%esi, (%esp)
	movl	%eax, %ebx
	call	_strrchr
	testl	%eax, %eax
	movl	%ebx, %edx
	je	L805
	testl	%ebx, %ebx
	je	L809
	cmpl	%eax, %ebx
	jnb	L805
L809:
	movl	%eax, %edx
L805:
	addl	$16, %esp
	movl	%edx, %eax
	popl	%ebx
	.cfi_restore 3
	popl	%esi
	.cfi_restore 6
	popl	%ebp
	.cfi_restore 5
	.cfi_def_cfa 4, 4
	ret
	.cfi_endproc
LFE10430:
	.section	.text.unlikely._ZNK7testing8internal8FilePath21FindLastPathSeparatorEv,"x"
LCOLDE259:
	.section	.text$_ZNK7testing8internal8FilePath21FindLastPathSeparatorEv,"x"
LHOTE259:
	.section	.text.unlikely._ZNK7testing8internal8FilePath21FileOrDirectoryExistsEv,"x"
	.align 2
LCOLDB260:
	.section	.text$_ZNK7testing8internal8FilePath21FileOrDirectoryExistsEv,"x"
LHOTB260:
	.align 2
	.globl	__ZNK7testing8internal8FilePath21FileOrDirectoryExistsEv
	.def	__ZNK7testing8internal8FilePath21FileOrDirectoryExistsEv;	.scl	2;	.type	32;	.endef
__ZNK7testing8internal8FilePath21FileOrDirectoryExistsEv:
LFB10435:
	.cfi_startproc
	pushl	%ebp
	.cfi_def_cfa_offset 8
	.cfi_offset 5, -8
	movl	%esp, %ebp
	.cfi_def_cfa_register 5
	subl	$72, %esp
	leal	-44(%ebp), %eax
	movl	%eax, 4(%esp)
	movl	(%ecx), %eax
	movl	%eax, (%esp)
	call	*__imp___stat
	testl	%eax, %eax
	leave
	.cfi_restore 5
	.cfi_def_cfa 4, 4
	sete	%al
	ret
	.cfi_endproc
LFE10435:
	.section	.text.unlikely._ZNK7testing8internal8FilePath21FileOrDirectoryExistsEv,"x"
LCOLDE260:
	.section	.text$_ZNK7testing8internal8FilePath21FileOrDirectoryExistsEv,"x"
LHOTE260:
	.section	.text.unlikely._ZNK7testing8internal8FilePath14IsAbsolutePathEv,"x"
	.align 2
LCOLDB261:
	.section	.text$_ZNK7testing8internal8FilePath14IsAbsolutePathEv,"x"
LHOTB261:
	.align 2
	.globl	__ZNK7testing8internal8FilePath14IsAbsolutePathEv
	.def	__ZNK7testing8internal8FilePath14IsAbsolutePathEv;	.scl	2;	.type	32;	.endef
__ZNK7testing8internal8FilePath14IsAbsolutePathEv:
LFB10438:
	.cfi_startproc
	pushl	%ebp
	.cfi_def_cfa_offset 8
	.cfi_offset 5, -8
	xorl	%eax, %eax
	cmpl	$2, 4(%ecx)
	movl	%esp, %ebp
	.cfi_def_cfa_register 5
	jbe	L815
	movl	(%ecx), %ecx
	movb	(%ecx), %dl
	andl	$-33, %edx
	subl	$65, %edx
	cmpb	$25, %dl
	ja	L815
	cmpb	$58, 1(%ecx)
	jne	L815
	movb	2(%ecx), %dl
	cmpb	$92, %dl
	sete	%cl
	cmpb	$47, %dl
	sete	%al
	orl	%ecx, %eax
L815:
	popl	%ebp
	.cfi_restore 5
	.cfi_def_cfa 4, 4
	ret
	.cfi_endproc
LFE10438:
	.section	.text.unlikely._ZNK7testing8internal8FilePath14IsAbsolutePathEv,"x"
LCOLDE261:
	.section	.text$_ZNK7testing8internal8FilePath14IsAbsolutePathEv,"x"
LHOTE261:
	.section	.text.unlikely._ZNK7testing8internal8FilePath15IsRootDirectoryEv,"x"
	.align 2
LCOLDB262:
	.section	.text$_ZNK7testing8internal8FilePath15IsRootDirectoryEv,"x"
LHOTB262:
	.align 2
	.globl	__ZNK7testing8internal8FilePath15IsRootDirectoryEv
	.def	__ZNK7testing8internal8FilePath15IsRootDirectoryEv;	.scl	2;	.type	32;	.endef
__ZNK7testing8internal8FilePath15IsRootDirectoryEv:
LFB10437:
	.cfi_startproc
	cmpl	$3, 4(%ecx)
	pushl	%ebp
	.cfi_def_cfa_offset 8
	.cfi_offset 5, -8
	movl	%esp, %ebp
	.cfi_def_cfa_register 5
	jne	L821
	popl	%ebp
	.cfi_remember_state
	.cfi_restore 5
	.cfi_def_cfa 4, 4
	jmp	__ZNK7testing8internal8FilePath14IsAbsolutePathEv
L821:
	.cfi_restore_state
	xorl	%eax, %eax
	popl	%ebp
	.cfi_restore 5
	.cfi_def_cfa 4, 4
	ret
	.cfi_endproc
LFE10437:
	.section	.text.unlikely._ZNK7testing8internal8FilePath15IsRootDirectoryEv,"x"
LCOLDE262:
	.section	.text$_ZNK7testing8internal8FilePath15IsRootDirectoryEv,"x"
LHOTE262:
	.section	.text.unlikely._ZNK7testing8internal8FilePath11IsDirectoryEv,"x"
	.align 2
LCOLDB263:
	.section	.text$_ZNK7testing8internal8FilePath11IsDirectoryEv,"x"
LHOTB263:
	.align 2
	.globl	__ZNK7testing8internal8FilePath11IsDirectoryEv
	.def	__ZNK7testing8internal8FilePath11IsDirectoryEv;	.scl	2;	.type	32;	.endef
__ZNK7testing8internal8FilePath11IsDirectoryEv:
LFB10440:
	.cfi_startproc
	pushl	%ebp
	.cfi_def_cfa_offset 8
	.cfi_offset 5, -8
	movl	4(%ecx), %edx
	xorl	%eax, %eax
	movl	%esp, %ebp
	.cfi_def_cfa_register 5
	testl	%edx, %edx
	je	L824
	movl	(%ecx), %eax
	movb	-1(%eax,%edx), %dl
	cmpb	$92, %dl
	sete	%cl
	cmpb	$47, %dl
	sete	%al
	orl	%ecx, %eax
L824:
	popl	%ebp
	.cfi_restore 5
	.cfi_def_cfa 4, 4
	ret
	.cfi_endproc
LFE10440:
	.section	.text.unlikely._ZNK7testing8internal8FilePath11IsDirectoryEv,"x"
LCOLDE263:
	.section	.text$_ZNK7testing8internal8FilePath11IsDirectoryEv,"x"
LHOTE263:
	.section	.text.unlikely._ZN7testing8internal8FilePath9NormalizeEv,"x"
	.align 2
LCOLDB264:
	.section	.text$_ZN7testing8internal8FilePath9NormalizeEv,"x"
LHOTB264:
	.align 2
	.globl	__ZN7testing8internal8FilePath9NormalizeEv
	.def	__ZN7testing8internal8FilePath9NormalizeEv;	.scl	2;	.type	32;	.endef
__ZN7testing8internal8FilePath9NormalizeEv:
LFB10444:
	.cfi_startproc
	pushl	%ebp
	.cfi_def_cfa_offset 8
	.cfi_offset 5, -8
	movl	%esp, %ebp
	.cfi_def_cfa_register 5
	pushl	%edi
	pushl	%esi
	pushl	%ebx
	.cfi_offset 7, -12
	.cfi_offset 6, -16
	.cfi_offset 3, -20
	movl	%ecx, %esi
	subl	$44, %esp
	movl	(%ecx), %ebx
	testl	%ebx, %ebx
	jne	L830
	movl	$LC72, (%esp)
	call	__ZNSt7__cxx1112basic_stringIcSt11char_traitsIcESaIcEEaSEPKc
	pushl	%edx
	jmp	L829
L830:
	movl	4(%ecx), %eax
	incl	%eax
	movl	%eax, (%esp)
	call	__Znaj
	movl	%eax, -28(%ebp)
	movl	4(%esi), %eax
	movb	$92, %dl
	movl	-28(%ebp), %edi
	leal	1(%eax), %ecx
	xorl	%eax, %eax
	rep stosb
	movl	-28(%ebp), %edi
L838:
	movb	(%ebx), %al
	testb	%al, %al
	je	L832
	movb	%al, (%edi)
	movb	(%ebx), %cl
	cmpb	$92, %cl
	je	L833
	cmpb	$47, %cl
	je	L833
	incl	%ebx
	jmp	L834
L833:
	cmpb	$47, %al
	cmove	%edx, %eax
	movb	%al, (%edi)
L837:
	movb	(%ebx), %al
	cmpb	$92, %al
	je	L839
	cmpb	$47, %al
	jne	L834
L839:
	incl	%ebx
	jmp	L837
L834:
	incl	%edi
	jmp	L838
L832:
	movl	-28(%ebp), %eax
	movb	$0, (%edi)
	movl	%esi, %ecx
	movl	%eax, (%esp)
	call	__ZNSt7__cxx1112basic_stringIcSt11char_traitsIcESaIcEEaSEPKc
	pushl	%eax
	movl	-28(%ebp), %eax
	movl	%eax, (%esp)
	call	__ZdaPv
L829:
	leal	-12(%ebp), %esp
	popl	%ebx
	.cfi_restore 3
	popl	%esi
	.cfi_restore 6
	popl	%edi
	.cfi_restore 7
	popl	%ebp
	.cfi_restore 5
	.cfi_def_cfa 4, 4
	ret
	.cfi_endproc
LFE10444:
	.section	.text.unlikely._ZN7testing8internal8FilePath9NormalizeEv,"x"
LCOLDE264:
	.section	.text$_ZN7testing8internal8FilePath9NormalizeEv,"x"
LHOTE264:
	.section	.text$_ZN7testing8internal8FilePathC4ERKNSt7__cxx1112basic_stringIcSt11char_traitsIcESaIcEEE,"x"
	.align 2
LCOLDB265:
LHOTB265:
	.align 2
	.def	__ZN7testing8internal8FilePathC4ERKNSt7__cxx1112basic_stringIcSt11char_traitsIcESaIcEEE;	.scl	3;	.type	32;	.endef
__ZN7testing8internal8FilePathC4ERKNSt7__cxx1112basic_stringIcSt11char_traitsIcESaIcEEE:
LFB2852:
	.cfi_startproc
	pushl	%ebp
	.cfi_def_cfa_offset 8
	.cfi_offset 5, -8
	movl	%esp, %ebp
	.cfi_def_cfa_register 5
	pushl	%ebx
	.cfi_offset 3, -12
	movl	%ecx, %ebx
	subl	$20, %esp
	movl	8(%ebp), %eax
	movl	%eax, (%esp)
	call	__ZNSt7__cxx1112basic_stringIcSt11char_traitsIcESaIcEEC1ERKS4_
	pushl	%eax
	movl	%ebx, %ecx
	call	__ZN7testing8internal8FilePath9NormalizeEv
	movl	-4(%ebp), %ebx
	leave
	.cfi_restore 5
	.cfi_restore 3
	.cfi_def_cfa 4, 4
	ret	$4
	.cfi_endproc
LFE2852:
LCOLDE265:
LHOTE265:
	.section	.text.unlikely._ZN7testing8internal8FilePath13GetCurrentDirEv,"x"
	.align 2
LCOLDB266:
	.section	.text$_ZN7testing8internal8FilePath13GetCurrentDirEv,"x"
LHOTB266:
	.align 2
	.globl	__ZN7testing8internal8FilePath13GetCurrentDirEv
	.def	__ZN7testing8internal8FilePath13GetCurrentDirEv;	.scl	2;	.type	32;	.endef
__ZN7testing8internal8FilePath13GetCurrentDirEv:
LFB10428:
	.cfi_startproc
	pushl	%ebp
	.cfi_def_cfa_offset 8
	.cfi_offset 5, -8
	xorl	%eax, %eax
	movl	$261, %ecx
	movl	%esp, %ebp
	.cfi_def_cfa_register 5
	pushl	%edi
	pushl	%esi
	.cfi_offset 7, -12
	.cfi_offset 6, -16
	leal	-285(%ebp), %edi
	pushl	%ebx
	.cfi_offset 3, -20
	leal	-285(%ebp), %ebx
	leal	-312(%ebp), %esi
	subl	$316, %esp
	rep stosb
	movl	%ebx, (%esp)
	movl	$261, 4(%esp)
	call	*__imp___getcwd
	testl	%eax, %eax
	movl	$LC72, %eax
	movl	%esi, %ecx
	cmove	%eax, %ebx
	movl	%ebx, (%esp)
	call	__ZNSt7__cxx1112basic_stringIcSt11char_traitsIcESaIcEEC2EPKcRKS3_.isra.402
	movl	8(%ebp), %ecx
	pushl	%eax
	movl	%esi, (%esp)
	call	__ZN7testing8internal8FilePathC4ERKNSt7__cxx1112basic_stringIcSt11char_traitsIcESaIcEEE
	pushl	%edx
	movl	%esi, %ecx
	call	__ZNSt7__cxx1112basic_stringIcSt11char_traitsIcESaIcEE10_M_disposeEv
	movl	8(%ebp), %eax
	leal	-12(%ebp), %esp
	popl	%ebx
	.cfi_restore 3
	popl	%esi
	.cfi_restore 6
	popl	%edi
	.cfi_restore 7
	popl	%ebp
	.cfi_restore 5
	.cfi_def_cfa 4, 4
	ret
	.cfi_endproc
LFE10428:
	.section	.text.unlikely._ZN7testing8internal8FilePath13GetCurrentDirEv,"x"
LCOLDE266:
	.section	.text$_ZN7testing8internal8FilePath13GetCurrentDirEv,"x"
LHOTE266:
	.section	.text.unlikely._ZNK7testing8internal8FilePath14RemoveFileNameEv,"x"
	.align 2
LCOLDB267:
	.section	.text$_ZNK7testing8internal8FilePath14RemoveFileNameEv,"x"
LHOTB267:
	.align 2
	.globl	__ZNK7testing8internal8FilePath14RemoveFileNameEv
	.def	__ZNK7testing8internal8FilePath14RemoveFileNameEv;	.scl	2;	.type	32;	.endef
__ZNK7testing8internal8FilePath14RemoveFileNameEv:
LFB10432:
	.cfi_startproc
	pushl	%ebp
	.cfi_def_cfa_offset 8
	.cfi_offset 5, -8
	movl	%esp, %ebp
	.cfi_def_cfa_register 5
	pushl	%esi
	pushl	%ebx
	.cfi_offset 6, -12
	.cfi_offset 3, -16
	movl	%ecx, %esi
	subl	$64, %esp
	movl	8(%ebp), %ebx
	movl	%ebx, %ecx
	call	__ZNK7testing8internal8FilePath21FindLastPathSeparatorEv
	leal	-48(%ebp), %edx
	testl	%eax, %eax
	movl	$0, -52(%ebp)
	movb	$0, -48(%ebp)
	movl	%edx, -56(%ebp)
	je	L851
	movl	(%ebx), %edx
	leal	-24(%ebp), %ecx
	leal	-32(%ebp), %ebx
	incl	%eax
	movl	%eax, 4(%esp)
	movl	%ecx, -32(%ebp)
	movl	%ebx, %ecx
	movl	%edx, (%esp)
	call	__ZNSt7__cxx1112basic_stringIcSt11char_traitsIcESaIcEE12_M_constructIPKcEEvT_S8_St20forward_iterator_tag.isra.400
	pushl	%ecx
	pushl	%ecx
	leal	-56(%ebp), %ecx
	movl	%ebx, (%esp)
	call	__ZNSt7__cxx1112basic_stringIcSt11char_traitsIcESaIcEE4swapERS4_
	pushl	%eax
	movl	%ebx, %ecx
	call	__ZNSt7__cxx1112basic_stringIcSt11char_traitsIcESaIcEE10_M_disposeEv
	jmp	L852
L851:
	leal	-56(%ebp), %ecx
	movl	$__ZN7testing8internalL23kCurrentDirectoryStringE, (%esp)
	call	__ZNSt7__cxx1112basic_stringIcSt11char_traitsIcESaIcEEaSEPKc
	pushl	%edx
L852:
	leal	-56(%ebp), %ebx
	movl	%esi, %ecx
	movl	%ebx, (%esp)
