	.file	"gtest-all.cc"
	.section	.text$_ZSt9uppercaseRSt8ios_base,"x"
	.linkonce discard
.LCOLDB1:
.LHOTB1:
	.globl	_ZSt9uppercaseRSt8ios_base
	.def	_ZSt9uppercaseRSt8ios_base;	.scl	2;	.type	32;	.endef
	.seh_proc	_ZSt9uppercaseRSt8ios_base
_ZSt9uppercaseRSt8ios_base:
	.seh_endprologue
	orl	$16384, 24(%rcx)
	movq	%rcx, %rax
	ret
	.seh_endproc
.LCOLDE1:
.LHOTE1:
	.section	.text$_ZSt3hexRSt8ios_base,"x"
	.linkonce discard
.LCOLDB2:
.LHOTB2:
	.globl	_ZSt3hexRSt8ios_base
	.def	_ZSt3hexRSt8ios_base;	.scl	2;	.type	32;	.endef
	.seh_proc	_ZSt3hexRSt8ios_base
_ZSt3hexRSt8ios_base:
	.seh_endprologue
	movl	24(%rcx), %edx
	andl	$-75, %edx
	movq	%rcx, %rax
	orl	$8, %edx
	movl	%edx, 24(%rcx)
	ret
	.seh_endproc
.LCOLDE2:
.LHOTE2:
	.section	.text$_ZN7testing4Test11DeleteSelf_Ev,"x"
	.linkonce discard
	.align 2
.LCOLDB3:
.LHOTB3:
	.align 2
	.globl	_ZN7testing4Test11DeleteSelf_Ev
	.def	_ZN7testing4Test11DeleteSelf_Ev;	.scl	2;	.type	32;	.endef
	.seh_proc	_ZN7testing4Test11DeleteSelf_Ev
_ZN7testing4Test11DeleteSelf_Ev:
	.seh_endprologue
	testq	%rcx, %rcx
	je	.L3
	movq	(%rcx), %rax
	rex.W jmp *8(%rax)
.L3:
	ret
	.seh_endproc
.LCOLDE3:
.LHOTE3:
	.section	.text$_ZN7testing4Test5SetupEv,"x"
	.linkonce discard
	.align 2
.LCOLDB4:
.LHOTB4:
	.align 2
	.globl	_ZN7testing4Test5SetupEv
	.def	_ZN7testing4Test5SetupEv;	.scl	2;	.type	32;	.endef
	.seh_proc	_ZN7testing4Test5SetupEv
_ZN7testing4Test5SetupEv:
	.seh_endprologue
	xorl	%eax, %eax
	ret
	.seh_endproc
.LCOLDE4:
.LHOTE4:
	.section	.text$_ZN7testing8TestCase16RunSetUpTestCaseEv,"x"
	.linkonce discard
	.align 2
.LCOLDB5:
.LHOTB5:
	.align 2
	.globl	_ZN7testing8TestCase16RunSetUpTestCaseEv
	.def	_ZN7testing8TestCase16RunSetUpTestCaseEv;	.scl	2;	.type	32;	.endef
	.seh_proc	_ZN7testing8TestCase16RunSetUpTestCaseEv
_ZN7testing8TestCase16RunSetUpTestCaseEv:
	.seh_endprologue
	rex.W jmp *96(%rcx)
	.seh_endproc
.LCOLDE5:
.LHOTE5:
	.section	.text$_ZN7testing8TestCase19RunTearDownTestCaseEv,"x"
	.linkonce discard
	.align 2
.LCOLDB6:
.LHOTB6:
	.align 2
	.globl	_ZN7testing8TestCase19RunTearDownTestCaseEv
	.def	_ZN7testing8TestCase19RunTearDownTestCaseEv;	.scl	2;	.type	32;	.endef
	.seh_proc	_ZN7testing8TestCase19RunTearDownTestCaseEv
_ZN7testing8TestCase19RunTearDownTestCaseEv:
	.seh_endprologue
	rex.W jmp *104(%rcx)
	.seh_endproc
.LCOLDE6:
.LHOTE6:
	.section	.text$_ZN7testing8TestCase22TestReportableDisabledEPKNS_8TestInfoE,"x"
	.linkonce discard
.LCOLDB7:
.LHOTB7:
	.globl	_ZN7testing8TestCase22TestReportableDisabledEPKNS_8TestInfoE
	.def	_ZN7testing8TestCase22TestReportableDisabledEPKNS_8TestInfoE;	.scl	2;	.type	32;	.endef
	.seh_proc	_ZN7testing8TestCase22TestReportableDisabledEPKNS_8TestInfoE
_ZN7testing8TestCase22TestReportableDisabledEPKNS_8TestInfoE:
	.seh_endprologue
	xorl	%eax, %eax
	cmpb	$0, 90(%rcx)
	je	.L10
	movb	89(%rcx), %al
.L10:
	ret
	.seh_endproc
.LCOLDE7:
.LHOTE7:
	.section	.text$_ZN7testing8TestCase12TestDisabledEPKNS_8TestInfoE,"x"
	.linkonce discard
.LCOLDB8:
.LHOTB8:
	.globl	_ZN7testing8TestCase12TestDisabledEPKNS_8TestInfoE
	.def	_ZN7testing8TestCase12TestDisabledEPKNS_8TestInfoE;	.scl	2;	.type	32;	.endef
	.seh_proc	_ZN7testing8TestCase12TestDisabledEPKNS_8TestInfoE
_ZN7testing8TestCase12TestDisabledEPKNS_8TestInfoE:
	.seh_endprologue
	movb	89(%rcx), %al
	ret
	.seh_endproc
.LCOLDE8:
.LHOTE8:
	.section	.text$_ZN7testing8TestCase14TestReportableEPKNS_8TestInfoE,"x"
	.linkonce discard
.LCOLDB9:
.LHOTB9:
	.globl	_ZN7testing8TestCase14TestReportableEPKNS_8TestInfoE
	.def	_ZN7testing8TestCase14TestReportableEPKNS_8TestInfoE;	.scl	2;	.type	32;	.endef
	.seh_proc	_ZN7testing8TestCase14TestReportableEPKNS_8TestInfoE
_ZN7testing8TestCase14TestReportableEPKNS_8TestInfoE:
	.seh_endprologue
	movb	90(%rcx), %al
	ret
	.seh_endproc
.LCOLDE9:
.LHOTE9:
	.section	.text$_ZN7testing8TestCase13ShouldRunTestEPKNS_8TestInfoE,"x"
	.linkonce discard
.LCOLDB10:
.LHOTB10:
	.globl	_ZN7testing8TestCase13ShouldRunTestEPKNS_8TestInfoE
	.def	_ZN7testing8TestCase13ShouldRunTestEPKNS_8TestInfoE;	.scl	2;	.type	32;	.endef
	.seh_proc	_ZN7testing8TestCase13ShouldRunTestEPKNS_8TestInfoE
_ZN7testing8TestCase13ShouldRunTestEPKNS_8TestInfoE:
	.seh_endprologue
	movb	88(%rcx), %al
	ret
	.seh_endproc
.LCOLDE10:
.LHOTE10:
	.section	.text$_ZN7testing22EmptyTestEventListener18OnTestProgramStartERKNS_8UnitTestE,"x"
	.linkonce discard
	.align 2
.LCOLDB11:
.LHOTB11:
	.align 2
	.globl	_ZN7testing22EmptyTestEventListener18OnTestProgramStartERKNS_8UnitTestE
	.def	_ZN7testing22EmptyTestEventListener18OnTestProgramStartERKNS_8UnitTestE;	.scl	2;	.type	32;	.endef
	.seh_proc	_ZN7testing22EmptyTestEventListener18OnTestProgramStartERKNS_8UnitTestE
_ZN7testing22EmptyTestEventListener18OnTestProgramStartERKNS_8UnitTestE:
	.seh_endprologue
	ret
	.seh_endproc
.LCOLDE11:
.LHOTE11:
	.section	.text$_ZN7testing22EmptyTestEventListener20OnTestIterationStartERKNS_8UnitTestEi,"x"
	.linkonce discard
	.align 2
.LCOLDB12:
.LHOTB12:
	.align 2
	.globl	_ZN7testing22EmptyTestEventListener20OnTestIterationStartERKNS_8UnitTestEi
	.def	_ZN7testing22EmptyTestEventListener20OnTestIterationStartERKNS_8UnitTestEi;	.scl	2;	.type	32;	.endef
	.seh_proc	_ZN7testing22EmptyTestEventListener20OnTestIterationStartERKNS_8UnitTestEi
_ZN7testing22EmptyTestEventListener20OnTestIterationStartERKNS_8UnitTestEi:
	.seh_endprologue
	ret
	.seh_endproc
.LCOLDE12:
.LHOTE12:
	.section	.text$_ZN7testing22EmptyTestEventListener24OnEnvironmentsSetUpStartERKNS_8UnitTestE,"x"
	.linkonce discard
	.align 2
.LCOLDB13:
.LHOTB13:
	.align 2
	.globl	_ZN7testing22EmptyTestEventListener24OnEnvironmentsSetUpStartERKNS_8UnitTestE
	.def	_ZN7testing22EmptyTestEventListener24OnEnvironmentsSetUpStartERKNS_8UnitTestE;	.scl	2;	.type	32;	.endef
	.seh_proc	_ZN7testing22EmptyTestEventListener24OnEnvironmentsSetUpStartERKNS_8UnitTestE
_ZN7testing22EmptyTestEventListener24OnEnvironmentsSetUpStartERKNS_8UnitTestE:
	.seh_endprologue
	ret
	.seh_endproc
.LCOLDE13:
.LHOTE13:
	.section	.text$_ZN7testing22EmptyTestEventListener22OnEnvironmentsSetUpEndERKNS_8UnitTestE,"x"
	.linkonce discard
	.align 2
.LCOLDB14:
.LHOTB14:
	.align 2
	.globl	_ZN7testing22EmptyTestEventListener22OnEnvironmentsSetUpEndERKNS_8UnitTestE
	.def	_ZN7testing22EmptyTestEventListener22OnEnvironmentsSetUpEndERKNS_8UnitTestE;	.scl	2;	.type	32;	.endef
	.seh_proc	_ZN7testing22EmptyTestEventListener22OnEnvironmentsSetUpEndERKNS_8UnitTestE
_ZN7testing22EmptyTestEventListener22OnEnvironmentsSetUpEndERKNS_8UnitTestE:
	.seh_endprologue
	ret
	.seh_endproc
.LCOLDE14:
.LHOTE14:
	.section	.text$_ZN7testing22EmptyTestEventListener15OnTestCaseStartERKNS_8TestCaseE,"x"
	.linkonce discard
	.align 2
.LCOLDB15:
.LHOTB15:
	.align 2
	.globl	_ZN7testing22EmptyTestEventListener15OnTestCaseStartERKNS_8TestCaseE
	.def	_ZN7testing22EmptyTestEventListener15OnTestCaseStartERKNS_8TestCaseE;	.scl	2;	.type	32;	.endef
	.seh_proc	_ZN7testing22EmptyTestEventListener15OnTestCaseStartERKNS_8TestCaseE
_ZN7testing22EmptyTestEventListener15OnTestCaseStartERKNS_8TestCaseE:
	.seh_endprologue
	ret
	.seh_endproc
.LCOLDE15:
.LHOTE15:
	.section	.text$_ZN7testing22EmptyTestEventListener11OnTestStartERKNS_8TestInfoE,"x"
	.linkonce discard
	.align 2
.LCOLDB16:
.LHOTB16:
	.align 2
	.globl	_ZN7testing22EmptyTestEventListener11OnTestStartERKNS_8TestInfoE
	.def	_ZN7testing22EmptyTestEventListener11OnTestStartERKNS_8TestInfoE;	.scl	2;	.type	32;	.endef
	.seh_proc	_ZN7testing22EmptyTestEventListener11OnTestStartERKNS_8TestInfoE
_ZN7testing22EmptyTestEventListener11OnTestStartERKNS_8TestInfoE:
	.seh_endprologue
	ret
	.seh_endproc
.LCOLDE16:
.LHOTE16:
	.section	.text$_ZN7testing22EmptyTestEventListener16OnTestPartResultERKNS_14TestPartResultE,"x"
	.linkonce discard
	.align 2
.LCOLDB17:
.LHOTB17:
	.align 2
	.globl	_ZN7testing22EmptyTestEventListener16OnTestPartResultERKNS_14TestPartResultE
	.def	_ZN7testing22EmptyTestEventListener16OnTestPartResultERKNS_14TestPartResultE;	.scl	2;	.type	32;	.endef
	.seh_proc	_ZN7testing22EmptyTestEventListener16OnTestPartResultERKNS_14TestPartResultE
_ZN7testing22EmptyTestEventListener16OnTestPartResultERKNS_14TestPartResultE:
	.seh_endprologue
	ret
	.seh_endproc
.LCOLDE17:
.LHOTE17:
	.section	.text$_ZN7testing22EmptyTestEventListener9OnTestEndERKNS_8TestInfoE,"x"
	.linkonce discard
	.align 2
.LCOLDB18:
.LHOTB18:
	.align 2
	.globl	_ZN7testing22EmptyTestEventListener9OnTestEndERKNS_8TestInfoE
	.def	_ZN7testing22EmptyTestEventListener9OnTestEndERKNS_8TestInfoE;	.scl	2;	.type	32;	.endef
	.seh_proc	_ZN7testing22EmptyTestEventListener9OnTestEndERKNS_8TestInfoE
_ZN7testing22EmptyTestEventListener9OnTestEndERKNS_8TestInfoE:
	.seh_endprologue
	ret
	.seh_endproc
.LCOLDE18:
.LHOTE18:
	.section	.text$_ZN7testing22EmptyTestEventListener13OnTestCaseEndERKNS_8TestCaseE,"x"
	.linkonce discard
	.align 2
.LCOLDB19:
.LHOTB19:
	.align 2
	.globl	_ZN7testing22EmptyTestEventListener13OnTestCaseEndERKNS_8TestCaseE
	.def	_ZN7testing22EmptyTestEventListener13OnTestCaseEndERKNS_8TestCaseE;	.scl	2;	.type	32;	.endef
	.seh_proc	_ZN7testing22EmptyTestEventListener13OnTestCaseEndERKNS_8TestCaseE
_ZN7testing22EmptyTestEventListener13OnTestCaseEndERKNS_8TestCaseE:
	.seh_endprologue
	ret
	.seh_endproc
.LCOLDE19:
.LHOTE19:
	.section	.text$_ZN7testing22EmptyTestEventListener27OnEnvironmentsTearDownStartERKNS_8UnitTestE,"x"
	.linkonce discard
	.align 2
.LCOLDB20:
.LHOTB20:
	.align 2
	.globl	_ZN7testing22EmptyTestEventListener27OnEnvironmentsTearDownStartERKNS_8UnitTestE
	.def	_ZN7testing22EmptyTestEventListener27OnEnvironmentsTearDownStartERKNS_8UnitTestE;	.scl	2;	.type	32;	.endef
	.seh_proc	_ZN7testing22EmptyTestEventListener27OnEnvironmentsTearDownStartERKNS_8UnitTestE
_ZN7testing22EmptyTestEventListener27OnEnvironmentsTearDownStartERKNS_8UnitTestE:
	.seh_endprologue
	ret
	.seh_endproc
.LCOLDE20:
.LHOTE20:
	.section	.text$_ZN7testing22EmptyTestEventListener25OnEnvironmentsTearDownEndERKNS_8UnitTestE,"x"
	.linkonce discard
	.align 2
.LCOLDB21:
.LHOTB21:
	.align 2
	.globl	_ZN7testing22EmptyTestEventListener25OnEnvironmentsTearDownEndERKNS_8UnitTestE
	.def	_ZN7testing22EmptyTestEventListener25OnEnvironmentsTearDownEndERKNS_8UnitTestE;	.scl	2;	.type	32;	.endef
	.seh_proc	_ZN7testing22EmptyTestEventListener25OnEnvironmentsTearDownEndERKNS_8UnitTestE
_ZN7testing22EmptyTestEventListener25OnEnvironmentsTearDownEndERKNS_8UnitTestE:
	.seh_endprologue
	ret
	.seh_endproc
.LCOLDE21:
.LHOTE21:
	.section	.text$_ZN7testing22EmptyTestEventListener18OnTestIterationEndERKNS_8UnitTestEi,"x"
	.linkonce discard
	.align 2
.LCOLDB22:
.LHOTB22:
	.align 2
	.globl	_ZN7testing22EmptyTestEventListener18OnTestIterationEndERKNS_8UnitTestEi
	.def	_ZN7testing22EmptyTestEventListener18OnTestIterationEndERKNS_8UnitTestEi;	.scl	2;	.type	32;	.endef
	.seh_proc	_ZN7testing22EmptyTestEventListener18OnTestIterationEndERKNS_8UnitTestEi
_ZN7testing22EmptyTestEventListener18OnTestIterationEndERKNS_8UnitTestEi:
	.seh_endprologue
	ret
	.seh_endproc
.LCOLDE22:
.LHOTE22:
	.section	.text$_ZN7testing22EmptyTestEventListener16OnTestProgramEndERKNS_8UnitTestE,"x"
	.linkonce discard
	.align 2
.LCOLDB23:
.LHOTB23:
	.align 2
	.globl	_ZN7testing22EmptyTestEventListener16OnTestProgramEndERKNS_8UnitTestE
	.def	_ZN7testing22EmptyTestEventListener16OnTestProgramEndERKNS_8UnitTestE;	.scl	2;	.type	32;	.endef
	.seh_proc	_ZN7testing22EmptyTestEventListener16OnTestProgramEndERKNS_8UnitTestE
_ZN7testing22EmptyTestEventListener16OnTestProgramEndERKNS_8UnitTestE:
	.seh_endprologue
	ret
	.seh_endproc
.LCOLDE23:
.LHOTE23:
	.section	.text.unlikely._ZN7testing8internalL17ShouldRunTestCaseEPKNS_8TestCaseE,"x"
.LCOLDB24:
	.section	.text$_ZN7testing8internalL17ShouldRunTestCaseEPKNS_8TestCaseE,"x"
.LHOTB24:
	.def	_ZN7testing8internalL17ShouldRunTestCaseEPKNS_8TestCaseE;	.scl	3;	.type	32;	.endef
	.seh_proc	_ZN7testing8internalL17ShouldRunTestCaseEPKNS_8TestCaseE
_ZN7testing8internalL17ShouldRunTestCaseEPKNS_8TestCaseE:
	.seh_endprologue
	movb	112(%rcx), %al
	ret
	.seh_endproc
	.section	.text.unlikely._ZN7testing8internalL17ShouldRunTestCaseEPKNS_8TestCaseE,"x"
.LCOLDE24:
	.section	.text$_ZN7testing8internalL17ShouldRunTestCaseEPKNS_8TestCaseE,"x"
.LHOTE24:
	.section	.text.unlikely._ZN7testing8internal38DefaultPerThreadTestPartResultReporter20ReportTestPartResultERKNS_14TestPartResultE,"x"
	.align 2
.LCOLDB25:
	.section	.text$_ZN7testing8internal38DefaultPerThreadTestPartResultReporter20ReportTestPartResultERKNS_14TestPartResultE,"x"
.LHOTB25:
	.align 2
	.globl	_ZN7testing8internal38DefaultPerThreadTestPartResultReporter20ReportTestPartResultERKNS_14TestPartResultE
	.def	_ZN7testing8internal38DefaultPerThreadTestPartResultReporter20ReportTestPartResultERKNS_14TestPartResultE;	.scl	2;	.type	32;	.endef
	.seh_proc	_ZN7testing8internal38DefaultPerThreadTestPartResultReporter20ReportTestPartResultERKNS_14TestPartResultE
_ZN7testing8internal38DefaultPerThreadTestPartResultReporter20ReportTestPartResultERKNS_14TestPartResultE:
	.seh_endprologue
	movq	8(%rcx), %rax
	movq	80(%rax), %rcx
	movq	(%rcx), %rax
	rex.W jmp *16(%rax)
	.seh_endproc
	.section	.text.unlikely._ZN7testing8internal38DefaultPerThreadTestPartResultReporter20ReportTestPartResultERKNS_14TestPartResultE,"x"
.LCOLDE25:
	.section	.text$_ZN7testing8internal38DefaultPerThreadTestPartResultReporter20ReportTestPartResultERKNS_14TestPartResultE,"x"
.LHOTE25:
	.section	.text.unlikely._ZNK7testing8TestCase16total_test_countEv,"x"
	.align 2
.LCOLDB26:
	.section	.text$_ZNK7testing8TestCase16total_test_countEv,"x"
.LHOTB26:
	.align 2
	.globl	_ZNK7testing8TestCase16total_test_countEv
	.def	_ZNK7testing8TestCase16total_test_countEv;	.scl	2;	.type	32;	.endef
	.seh_proc	_ZNK7testing8TestCase16total_test_countEv
_ZNK7testing8TestCase16total_test_countEv:
	.seh_endprologue
	movq	56(%rcx), %rax
	subq	48(%rcx), %rax
	sarq	$3, %rax
	ret
	.seh_endproc
	.section	.text.unlikely._ZNK7testing8TestCase16total_test_countEv,"x"
.LCOLDE26:
	.section	.text$_ZNK7testing8TestCase16total_test_countEv,"x"
.LHOTE26:
	.section	.text$_ZN7testing8internal27PrettyUnitTestResultPrinter18OnTestProgramStartERKNS_8UnitTestE,"x"
	.linkonce discard
	.align 2
.LCOLDB27:
.LHOTB27:
	.align 2
	.globl	_ZN7testing8internal27PrettyUnitTestResultPrinter18OnTestProgramStartERKNS_8UnitTestE
	.def	_ZN7testing8internal27PrettyUnitTestResultPrinter18OnTestProgramStartERKNS_8UnitTestE;	.scl	2;	.type	32;	.endef
	.seh_proc	_ZN7testing8internal27PrettyUnitTestResultPrinter18OnTestProgramStartERKNS_8UnitTestE
_ZN7testing8internal27PrettyUnitTestResultPrinter18OnTestProgramStartERKNS_8UnitTestE:
	.seh_endprologue
	ret
	.seh_endproc
.LCOLDE27:
.LHOTE27:
	.section	.text$_ZN7testing8internal27PrettyUnitTestResultPrinter22OnEnvironmentsSetUpEndERKNS_8UnitTestE,"x"
	.linkonce discard
	.align 2
.LCOLDB28:
.LHOTB28:
	.align 2
	.globl	_ZN7testing8internal27PrettyUnitTestResultPrinter22OnEnvironmentsSetUpEndERKNS_8UnitTestE
	.def	_ZN7testing8internal27PrettyUnitTestResultPrinter22OnEnvironmentsSetUpEndERKNS_8UnitTestE;	.scl	2;	.type	32;	.endef
	.seh_proc	_ZN7testing8internal27PrettyUnitTestResultPrinter22OnEnvironmentsSetUpEndERKNS_8UnitTestE
_ZN7testing8internal27PrettyUnitTestResultPrinter22OnEnvironmentsSetUpEndERKNS_8UnitTestE:
	.seh_endprologue
	ret
	.seh_endproc
.LCOLDE28:
.LHOTE28:
	.section	.text$_ZN7testing8internal27PrettyUnitTestResultPrinter25OnEnvironmentsTearDownEndERKNS_8UnitTestE,"x"
	.linkonce discard
	.align 2
.LCOLDB29:
.LHOTB29:
	.align 2
	.globl	_ZN7testing8internal27PrettyUnitTestResultPrinter25OnEnvironmentsTearDownEndERKNS_8UnitTestE
	.def	_ZN7testing8internal27PrettyUnitTestResultPrinter25OnEnvironmentsTearDownEndERKNS_8UnitTestE;	.scl	2;	.type	32;	.endef
	.seh_proc	_ZN7testing8internal27PrettyUnitTestResultPrinter25OnEnvironmentsTearDownEndERKNS_8UnitTestE
_ZN7testing8internal27PrettyUnitTestResultPrinter25OnEnvironmentsTearDownEndERKNS_8UnitTestE:
	.seh_endprologue
	ret
	.seh_endproc
.LCOLDE29:
.LHOTE29:
	.section	.text$_ZN7testing8internal27PrettyUnitTestResultPrinter16OnTestProgramEndERKNS_8UnitTestE,"x"
	.linkonce discard
	.align 2
.LCOLDB30:
.LHOTB30:
	.align 2
	.globl	_ZN7testing8internal27PrettyUnitTestResultPrinter16OnTestProgramEndERKNS_8UnitTestE
	.def	_ZN7testing8internal27PrettyUnitTestResultPrinter16OnTestProgramEndERKNS_8UnitTestE;	.scl	2;	.type	32;	.endef
	.seh_proc	_ZN7testing8internal27PrettyUnitTestResultPrinter16OnTestProgramEndERKNS_8UnitTestE
_ZN7testing8internal27PrettyUnitTestResultPrinter16OnTestProgramEndERKNS_8UnitTestE:
	.seh_endprologue
	ret
	.seh_endproc
.LCOLDE30:
.LHOTE30:
	.section	.text$_ZN7testing22EmptyTestEventListenerD1Ev,"x"
	.linkonce discard
	.align 2
.LCOLDB31:
.LHOTB31:
	.align 2
	.globl	_ZN7testing22EmptyTestEventListenerD1Ev
	.def	_ZN7testing22EmptyTestEventListenerD1Ev;	.scl	2;	.type	32;	.endef
	.seh_proc	_ZN7testing22EmptyTestEventListenerD1Ev
_ZN7testing22EmptyTestEventListenerD1Ev:
	.seh_endprologue
	ret
	.seh_endproc
.LCOLDE31:
.LHOTE31:
	.section	.text.unlikely._ZN7testing8internal18OsStackTraceGetter16UponLeavingGTestEv,"x"
	.align 2
.LCOLDB32:
	.section	.text$_ZN7testing8internal18OsStackTraceGetter16UponLeavingGTestEv,"x"
.LHOTB32:
	.align 2
	.globl	_ZN7testing8internal18OsStackTraceGetter16UponLeavingGTestEv
	.def	_ZN7testing8internal18OsStackTraceGetter16UponLeavingGTestEv;	.scl	2;	.type	32;	.endef
	.seh_proc	_ZN7testing8internal18OsStackTraceGetter16UponLeavingGTestEv
_ZN7testing8internal18OsStackTraceGetter16UponLeavingGTestEv:
	.seh_endprologue
	ret
	.seh_endproc
	.section	.text.unlikely._ZN7testing8internal18OsStackTraceGetter16UponLeavingGTestEv,"x"
.LCOLDE32:
	.section	.text$_ZN7testing8internal18OsStackTraceGetter16UponLeavingGTestEv,"x"
.LHOTE32:
	.globl	_ZN7testing4Test5SetUpEv
	.def	_ZN7testing4Test5SetUpEv;	.scl	2;	.type	32;	.endef
	.set	_ZN7testing4Test5SetUpEv,_ZN7testing8internal18OsStackTraceGetter16UponLeavingGTestEv
	.globl	_ZN7testing4Test8TearDownEv
	.def	_ZN7testing4Test8TearDownEv;	.scl	2;	.type	32;	.endef
	.set	_ZN7testing4Test8TearDownEv,_ZN7testing8internal18OsStackTraceGetter16UponLeavingGTestEv
	.section	.text.unlikely._ZN7testing8UnitTestD2Ev,"x"
	.align 2
.LCOLDB33:
	.section	.text$_ZN7testing8UnitTestD2Ev,"x"
.LHOTB33:
	.align 2
	.globl	_ZN7testing8UnitTestD2Ev
	.def	_ZN7testing8UnitTestD2Ev;	.scl	2;	.type	32;	.endef
	.seh_proc	_ZN7testing8UnitTestD2Ev
_ZN7testing8UnitTestD2Ev:
	.seh_endprologue
	leaq	16+_ZTVN7testing8UnitTestE(%rip), %rax
	movq	%rax, (%rcx)
	movq	16(%rcx), %rcx
	testq	%rcx, %rcx
	je	.L37
	movq	(%rcx), %rax
	rex.W jmp *8(%rax)
.L37:
	ret
	.seh_endproc
	.section	.text.unlikely._ZN7testing8UnitTestD2Ev,"x"
.LCOLDE33:
	.section	.text$_ZN7testing8UnitTestD2Ev,"x"
.LHOTE33:
	.globl	_ZN7testing8UnitTestD1Ev
	.def	_ZN7testing8UnitTestD1Ev;	.scl	2;	.type	32;	.endef
	.set	_ZN7testing8UnitTestD1Ev,_ZN7testing8UnitTestD2Ev
	.section	.text.unlikely.__tcf_0,"x"
.LCOLDB34:
	.section	.text$__tcf_0,"x"
.LHOTB34:
	.def	__tcf_0;	.scl	3;	.type	32;	.endef
	.seh_proc	__tcf_0
__tcf_0:
	.seh_endprologue
	leaq	_ZZN7testing8UnitTest11GetInstanceEvE8instance(%rip), %rcx
	jmp	_ZN7testing8UnitTestD1Ev
	.seh_endproc
	.section	.text.unlikely.__tcf_0,"x"
.LCOLDE34:
	.section	.text$__tcf_0,"x"
.LHOTE34:
	.section	.text.unlikely._ZN7testing8internalL16SetUpEnvironmentEPNS_11EnvironmentE,"x"
.LCOLDB35:
	.section	.text$_ZN7testing8internalL16SetUpEnvironmentEPNS_11EnvironmentE,"x"
.LHOTB35:
	.def	_ZN7testing8internalL16SetUpEnvironmentEPNS_11EnvironmentE;	.scl	3;	.type	32;	.endef
	.seh_proc	_ZN7testing8internalL16SetUpEnvironmentEPNS_11EnvironmentE
_ZN7testing8internalL16SetUpEnvironmentEPNS_11EnvironmentE:
	.seh_endprologue
	movq	(%rcx), %rax
	rex.W jmp *16(%rax)
	.seh_endproc
	.section	.text.unlikely._ZN7testing8internalL16SetUpEnvironmentEPNS_11EnvironmentE,"x"
.LCOLDE35:
	.section	.text$_ZN7testing8internalL16SetUpEnvironmentEPNS_11EnvironmentE,"x"
.LHOTE35:
	.section	.text.unlikely._ZN7testing8internalL19TearDownEnvironmentEPNS_11EnvironmentE,"x"
.LCOLDB36:
	.section	.text$_ZN7testing8internalL19TearDownEnvironmentEPNS_11EnvironmentE,"x"
.LHOTB36:
	.def	_ZN7testing8internalL19TearDownEnvironmentEPNS_11EnvironmentE;	.scl	3;	.type	32;	.endef
	.seh_proc	_ZN7testing8internalL19TearDownEnvironmentEPNS_11EnvironmentE
_ZN7testing8internalL19TearDownEnvironmentEPNS_11EnvironmentE:
	.seh_endprologue
	movq	(%rcx), %rax
	rex.W jmp *24(%rax)
	.seh_endproc
	.section	.text.unlikely._ZN7testing8internalL19TearDownEnvironmentEPNS_11EnvironmentE,"x"
.LCOLDE36:
	.section	.text$_ZN7testing8internalL19TearDownEnvironmentEPNS_11EnvironmentE,"x"
.LHOTE36:
	.section	.text.unlikely._ZN7testing8internal24HasNewFatalFailureHelper20ReportTestPartResultERKNS_14TestPartResultE,"x"
	.align 2
.LCOLDB37:
	.section	.text$_ZN7testing8internal24HasNewFatalFailureHelper20ReportTestPartResultERKNS_14TestPartResultE,"x"
.LHOTB37:
	.align 2
	.globl	_ZN7testing8internal24HasNewFatalFailureHelper20ReportTestPartResultERKNS_14TestPartResultE
	.def	_ZN7testing8internal24HasNewFatalFailureHelper20ReportTestPartResultERKNS_14TestPartResultE;	.scl	2;	.type	32;	.endef
	.seh_proc	_ZN7testing8internal24HasNewFatalFailureHelper20ReportTestPartResultERKNS_14TestPartResultE
_ZN7testing8internal24HasNewFatalFailureHelper20ReportTestPartResultERKNS_14TestPartResultE:
	.seh_endprologue
	cmpl	$2, (%rdx)
	jne	.L43
	movb	$1, 8(%rcx)
.L43:
	movq	16(%rcx), %rcx
	movq	(%rcx), %rax
	rex.W jmp *16(%rax)
	.seh_endproc
	.section	.text.unlikely._ZN7testing8internal24HasNewFatalFailureHelper20ReportTestPartResultERKNS_14TestPartResultE,"x"
.LCOLDE37:
	.section	.text$_ZN7testing8internal24HasNewFatalFailureHelper20ReportTestPartResultERKNS_14TestPartResultE,"x"
.LHOTE37:
	.section	.text.unlikely._ZN7testing8internalL6DeleteINS_17TestEventListenerEEEvPT_,"x"
.LCOLDB38:
	.section	.text$_ZN7testing8internalL6DeleteINS_17TestEventListenerEEEvPT_,"x"
.LHOTB38:
	.def	_ZN7testing8internalL6DeleteINS_17TestEventListenerEEEvPT_;	.scl	3;	.type	32;	.endef
	.seh_proc	_ZN7testing8internalL6DeleteINS_17TestEventListenerEEEvPT_
_ZN7testing8internalL6DeleteINS_17TestEventListenerEEEvPT_:
	.seh_endprologue
	testq	%rcx, %rcx
	je	.L44
	movq	(%rcx), %rax
	rex.W jmp *8(%rax)
.L44:
	ret
	.seh_endproc
	.section	.text.unlikely._ZN7testing8internalL6DeleteINS_17TestEventListenerEEEvPT_,"x"
.LCOLDE38:
	.section	.text$_ZN7testing8internalL6DeleteINS_17TestEventListenerEEEvPT_,"x"
.LHOTE38:
	.section	.text.unlikely._ZN7testing8internalL6DeleteINS_8TestCaseEEEvPT_,"x"
.LCOLDB39:
	.section	.text$_ZN7testing8internalL6DeleteINS_8TestCaseEEEvPT_,"x"
.LHOTB39:
	.def	_ZN7testing8internalL6DeleteINS_8TestCaseEEEvPT_;	.scl	3;	.type	32;	.endef
	.seh_proc	_ZN7testing8internalL6DeleteINS_8TestCaseEEEvPT_
_ZN7testing8internalL6DeleteINS_8TestCaseEEEvPT_:
	.seh_endprologue
	testq	%rcx, %rcx
	je	.L46
	movq	(%rcx), %rax
	rex.W jmp *8(%rax)
.L46:
	ret
	.seh_endproc
	.section	.text.unlikely._ZN7testing8internalL6DeleteINS_8TestCaseEEEvPT_,"x"
.LCOLDE39:
	.section	.text$_ZN7testing8internalL6DeleteINS_8TestCaseEEEvPT_,"x"
.LHOTE39:
	.section	.text.unlikely._ZN7testing8internalL6DeleteINS_11EnvironmentEEEvPT_,"x"
.LCOLDB40:
	.section	.text$_ZN7testing8internalL6DeleteINS_11EnvironmentEEEvPT_,"x"
.LHOTB40:
	.def	_ZN7testing8internalL6DeleteINS_11EnvironmentEEEvPT_;	.scl	3;	.type	32;	.endef
	.seh_proc	_ZN7testing8internalL6DeleteINS_11EnvironmentEEEvPT_
_ZN7testing8internalL6DeleteINS_11EnvironmentEEEvPT_:
	.seh_endprologue
	testq	%rcx, %rcx
	je	.L48
	movq	(%rcx), %rax
	rex.W jmp *8(%rax)
.L48:
	ret
	.seh_endproc
	.section	.text.unlikely._ZN7testing8internalL6DeleteINS_11EnvironmentEEEvPT_,"x"
.LCOLDE40:
	.section	.text$_ZN7testing8internalL6DeleteINS_11EnvironmentEEEvPT_,"x"
.LHOTE40:
	.section	.text$_ZN7testing8internal23DefaultDeathTestFactoryD1Ev,"x"
	.linkonce discard
	.align 2
.LCOLDB41:
.LHOTB41:
	.align 2
	.globl	_ZN7testing8internal23DefaultDeathTestFactoryD1Ev
	.def	_ZN7testing8internal23DefaultDeathTestFactoryD1Ev;	.scl	2;	.type	32;	.endef
	.seh_proc	_ZN7testing8internal23DefaultDeathTestFactoryD1Ev
_ZN7testing8internal23DefaultDeathTestFactoryD1Ev:
	.seh_endprologue
	ret
	.seh_endproc
.LCOLDE41:
.LHOTE41:
	.section	.text$_ZN7testing8internal18OsStackTraceGetterD1Ev,"x"
	.linkonce discard
	.align 2
.LCOLDB42:
.LHOTB42:
	.align 2
	.globl	_ZN7testing8internal18OsStackTraceGetterD1Ev
	.def	_ZN7testing8internal18OsStackTraceGetterD1Ev;	.scl	2;	.type	32;	.endef
	.seh_proc	_ZN7testing8internal18OsStackTraceGetterD1Ev
_ZN7testing8internal18OsStackTraceGetterD1Ev:
	.seh_endprologue
	ret
	.seh_endproc
.LCOLDE42:
.LHOTE42:
	.section	.text$_ZN7testing8internal27PrettyUnitTestResultPrinterD1Ev,"x"
	.linkonce discard
	.align 2
.LCOLDB43:
.LHOTB43:
	.align 2
	.globl	_ZN7testing8internal27PrettyUnitTestResultPrinterD1Ev
	.def	_ZN7testing8internal27PrettyUnitTestResultPrinterD1Ev;	.scl	2;	.type	32;	.endef
	.seh_proc	_ZN7testing8internal27PrettyUnitTestResultPrinterD1Ev
_ZN7testing8internal27PrettyUnitTestResultPrinterD1Ev:
	.seh_endprologue
	ret
	.seh_endproc
.LCOLDE43:
.LHOTE43:
	.section	.text$_ZN7testing8internal38DefaultPerThreadTestPartResultReporterD1Ev,"x"
	.linkonce discard
	.align 2
.LCOLDB44:
.LHOTB44:
	.align 2
	.globl	_ZN7testing8internal38DefaultPerThreadTestPartResultReporterD1Ev
	.def	_ZN7testing8internal38DefaultPerThreadTestPartResultReporterD1Ev;	.scl	2;	.type	32;	.endef
	.seh_proc	_ZN7testing8internal38DefaultPerThreadTestPartResultReporterD1Ev
_ZN7testing8internal38DefaultPerThreadTestPartResultReporterD1Ev:
	.seh_endprologue
	ret
	.seh_endproc
.LCOLDE44:
.LHOTE44:
	.section	.text$_ZN7testing8internal35DefaultGlobalTestPartResultReporterD1Ev,"x"
	.linkonce discard
	.align 2
.LCOLDB45:
.LHOTB45:
	.align 2
	.globl	_ZN7testing8internal35DefaultGlobalTestPartResultReporterD1Ev
	.def	_ZN7testing8internal35DefaultGlobalTestPartResultReporterD1Ev;	.scl	2;	.type	32;	.endef
	.seh_proc	_ZN7testing8internal35DefaultGlobalTestPartResultReporterD1Ev
_ZN7testing8internal35DefaultGlobalTestPartResultReporterD1Ev:
	.seh_endprologue
	ret
	.seh_endproc
.LCOLDE45:
.LHOTE45:
	.section	.text.unlikely.__tcf_2,"x"
.LCOLDB46:
	.section	.text$__tcf_2,"x"
.LHOTB46:
	.def	__tcf_2;	.scl	3;	.type	32;	.endef
	.seh_proc	__tcf_2
__tcf_2:
	.seh_endprologue
	leaq	_ZN7testing17FLAGS_gtest_colorB5cxx11E(%rip), %rcx
	jmp	_ZNSt7__cxx1112basic_stringIcSt11char_traitsIcESaIcEE10_M_disposeEv
	.seh_endproc
	.section	.text.unlikely.__tcf_2,"x"
.LCOLDE46:
	.section	.text$__tcf_2,"x"
.LHOTE46:
	.section	.text.unlikely.__tcf_3,"x"
.LCOLDB47:
	.section	.text$__tcf_3,"x"
.LHOTB47:
	.def	__tcf_3;	.scl	3;	.type	32;	.endef
	.seh_proc	__tcf_3
__tcf_3:
	.seh_endprologue
	leaq	_ZN7testing18FLAGS_gtest_filterB5cxx11E(%rip), %rcx
	jmp	_ZNSt7__cxx1112basic_stringIcSt11char_traitsIcESaIcEE10_M_disposeEv
	.seh_endproc
	.section	.text.unlikely.__tcf_3,"x"
.LCOLDE47:
	.section	.text$__tcf_3,"x"
.LHOTE47:
	.section	.text.unlikely.__tcf_4,"x"
.LCOLDB48:
	.section	.text$__tcf_4,"x"
.LHOTB48:
	.def	__tcf_4;	.scl	3;	.type	32;	.endef
	.seh_proc	__tcf_4
__tcf_4:
	.seh_endprologue
	leaq	_ZN7testing18FLAGS_gtest_outputB5cxx11E(%rip), %rcx
	jmp	_ZNSt7__cxx1112basic_stringIcSt11char_traitsIcESaIcEE10_M_disposeEv
	.seh_endproc
	.section	.text.unlikely.__tcf_4,"x"
.LCOLDE48:
	.section	.text$__tcf_4,"x"
.LHOTE48:
	.section	.text.unlikely.__tcf_5,"x"
.LCOLDB49:
	.section	.text$__tcf_5,"x"
.LHOTB49:
	.def	__tcf_5;	.scl	3;	.type	32;	.endef
	.seh_proc	__tcf_5
__tcf_5:
	.seh_endprologue
	leaq	_ZN7testing28FLAGS_gtest_stream_result_toB5cxx11E(%rip), %rcx
	jmp	_ZNSt7__cxx1112basic_stringIcSt11char_traitsIcESaIcEE10_M_disposeEv
	.seh_endproc
	.section	.text.unlikely.__tcf_5,"x"
.LCOLDE49:
	.section	.text$__tcf_5,"x"
.LHOTE49:
	.section	.text.unlikely.__tcf_6,"x"
.LCOLDB50:
	.section	.text$__tcf_6,"x"
.LHOTB50:
	.def	__tcf_6;	.scl	3;	.type	32;	.endef
	.seh_proc	__tcf_6
__tcf_6:
	.seh_endprologue
	leaq	_ZN7testing8internal17g_executable_pathB5cxx11E(%rip), %rcx
	jmp	_ZNSt7__cxx1112basic_stringIcSt11char_traitsIcESaIcEE10_M_disposeEv
	.seh_endproc
	.section	.text.unlikely.__tcf_6,"x"
.LCOLDE50:
	.section	.text$__tcf_6,"x"
.LHOTE50:
	.section	.text.unlikely.__tcf_7,"x"
.LCOLDB51:
	.section	.text$__tcf_7,"x"
.LHOTB51:
	.def	__tcf_7;	.scl	3;	.type	32;	.endef
	.seh_proc	__tcf_7
__tcf_7:
	.seh_endprologue
	leaq	_ZN7testing28FLAGS_gtest_death_test_styleB5cxx11E(%rip), %rcx
	jmp	_ZNSt7__cxx1112basic_stringIcSt11char_traitsIcESaIcEE10_M_disposeEv
	.seh_endproc
	.section	.text.unlikely.__tcf_7,"x"
.LCOLDE51:
	.section	.text$__tcf_7,"x"
.LHOTE51:
	.section	.text.unlikely.__tcf_8,"x"
.LCOLDB52:
	.section	.text$__tcf_8,"x"
.LHOTB52:
	.def	__tcf_8;	.scl	3;	.type	32;	.endef
	.seh_proc	__tcf_8
__tcf_8:
	.seh_endprologue
	leaq	_ZN7testing8internal35FLAGS_gtest_internal_run_death_testB5cxx11E(%rip), %rcx
	jmp	_ZNSt7__cxx1112basic_stringIcSt11char_traitsIcESaIcEE10_M_disposeEv
	.seh_endproc
	.section	.text.unlikely.__tcf_8,"x"
.LCOLDE52:
	.section	.text$__tcf_8,"x"
.LHOTE52:
	.section	.text.unlikely.__tcf_9,"x"
.LCOLDB53:
	.section	.text$__tcf_9,"x"
.LHOTB53:
	.def	__tcf_9;	.scl	3;	.type	32;	.endef
	.seh_proc	__tcf_9
__tcf_9:
	.seh_endprologue
	leaq	_ZN7testing8internal9DeathTest24last_death_test_message_B5cxx11E(%rip), %rcx
	jmp	_ZNSt7__cxx1112basic_stringIcSt11char_traitsIcESaIcEE10_M_disposeEv
	.seh_endproc
	.section	.text.unlikely.__tcf_9,"x"
.LCOLDE53:
	.section	.text$__tcf_9,"x"
.LHOTE53:
	.section	.text.unlikely._ZN7testing8UnitTestD0Ev,"x"
	.align 2
.LCOLDB54:
	.section	.text$_ZN7testing8UnitTestD0Ev,"x"
.LHOTB54:
	.align 2
	.globl	_ZN7testing8UnitTestD0Ev
	.def	_ZN7testing8UnitTestD0Ev;	.scl	2;	.type	32;	.endef
	.seh_proc	_ZN7testing8UnitTestD0Ev
_ZN7testing8UnitTestD0Ev:
	pushq	%rbx
	.seh_pushreg	%rbx
	subq	$32, %rsp
	.seh_stackalloc	32
	.seh_endprologue
	movq	%rcx, %rbx
	call	_ZN7testing8UnitTestD1Ev
	movq	%rbx, %rcx
	addq	$32, %rsp
	popq	%rbx
	jmp	_ZdlPv
	.seh_endproc
	.section	.text.unlikely._ZN7testing8UnitTestD0Ev,"x"
.LCOLDE54:
	.section	.text$_ZN7testing8UnitTestD0Ev,"x"
.LHOTE54:
	.section	.text$_ZN7testing22EmptyTestEventListenerD0Ev,"x"
	.linkonce discard
	.align 2
.LCOLDB55:
.LHOTB55:
	.align 2
	.globl	_ZN7testing22EmptyTestEventListenerD0Ev
	.def	_ZN7testing22EmptyTestEventListenerD0Ev;	.scl	2;	.type	32;	.endef
	.seh_proc	_ZN7testing22EmptyTestEventListenerD0Ev
_ZN7testing22EmptyTestEventListenerD0Ev:
	.seh_endprologue
	jmp	_ZdlPv
	.seh_endproc
.LCOLDE55:
.LHOTE55:
	.section	.text$_ZN7testing8internal23DefaultDeathTestFactoryD0Ev,"x"
	.linkonce discard
	.align 2
.LCOLDB56:
.LHOTB56:
	.align 2
	.globl	_ZN7testing8internal23DefaultDeathTestFactoryD0Ev
	.def	_ZN7testing8internal23DefaultDeathTestFactoryD0Ev;	.scl	2;	.type	32;	.endef
	.seh_proc	_ZN7testing8internal23DefaultDeathTestFactoryD0Ev
_ZN7testing8internal23DefaultDeathTestFactoryD0Ev:
	.seh_endprologue
	jmp	_ZdlPv
	.seh_endproc
.LCOLDE56:
.LHOTE56:
	.section	.text$_ZN7testing8internal18OsStackTraceGetterD0Ev,"x"
	.linkonce discard
	.align 2
.LCOLDB57:
.LHOTB57:
	.align 2
	.globl	_ZN7testing8internal18OsStackTraceGetterD0Ev
	.def	_ZN7testing8internal18OsStackTraceGetterD0Ev;	.scl	2;	.type	32;	.endef
	.seh_proc	_ZN7testing8internal18OsStackTraceGetterD0Ev
_ZN7testing8internal18OsStackTraceGetterD0Ev:
	.seh_endprologue
	jmp	_ZdlPv
	.seh_endproc
.LCOLDE57:
.LHOTE57:
	.section	.text$_ZN7testing8internal27PrettyUnitTestResultPrinterD0Ev,"x"
	.linkonce discard
	.align 2
.LCOLDB58:
.LHOTB58:
	.align 2
	.globl	_ZN7testing8internal27PrettyUnitTestResultPrinterD0Ev
	.def	_ZN7testing8internal27PrettyUnitTestResultPrinterD0Ev;	.scl	2;	.type	32;	.endef
	.seh_proc	_ZN7testing8internal27PrettyUnitTestResultPrinterD0Ev
_ZN7testing8internal27PrettyUnitTestResultPrinterD0Ev:
	.seh_endprologue
	jmp	_ZdlPv
	.seh_endproc
.LCOLDE58:
.LHOTE58:
	.section	.text$_ZN7testing8internal38DefaultPerThreadTestPartResultReporterD0Ev,"x"
	.linkonce discard
	.align 2
.LCOLDB59:
.LHOTB59:
	.align 2
	.globl	_ZN7testing8internal38DefaultPerThreadTestPartResultReporterD0Ev
	.def	_ZN7testing8internal38DefaultPerThreadTestPartResultReporterD0Ev;	.scl	2;	.type	32;	.endef
	.seh_proc	_ZN7testing8internal38DefaultPerThreadTestPartResultReporterD0Ev
_ZN7testing8internal38DefaultPerThreadTestPartResultReporterD0Ev:
	.seh_endprologue
	jmp	_ZdlPv
	.seh_endproc
.LCOLDE59:
.LHOTE59:
	.section	.text$_ZN7testing8internal35DefaultGlobalTestPartResultReporterD0Ev,"x"
	.linkonce discard
	.align 2
.LCOLDB60:
.LHOTB60:
	.align 2
	.globl	_ZN7testing8internal35DefaultGlobalTestPartResultReporterD0Ev
	.def	_ZN7testing8internal35DefaultGlobalTestPartResultReporterD0Ev;	.scl	2;	.type	32;	.endef
	.seh_proc	_ZN7testing8internal35DefaultGlobalTestPartResultReporterD0Ev
_ZN7testing8internal35DefaultGlobalTestPartResultReporterD0Ev:
	.seh_endprologue
	jmp	_ZdlPv
	.seh_endproc
.LCOLDE60:
.LHOTE60:
	.section	.text.unlikely._ZL7fprintfP6_iobufPKcz,"x"
.LCOLDB61:
	.section	.text$_ZL7fprintfP6_iobufPKcz,"x"
.LHOTB61:
	.def	_ZL7fprintfP6_iobufPKcz;	.scl	3;	.type	32;	.endef
	.seh_proc	_ZL7fprintfP6_iobufPKcz
_ZL7fprintfP6_iobufPKcz:
	subq	$56, %rsp
	.seh_stackalloc	56
	.seh_endprologue
	movq	%r8, 80(%rsp)
	leaq	80(%rsp), %r8
	movq	%r9, 88(%rsp)
	movq	%r8, 40(%rsp)
	call	__mingw_vfprintf
	addq	$56, %rsp
	ret
	.seh_endproc
	.section	.text.unlikely._ZL7fprintfP6_iobufPKcz,"x"
.LCOLDE61:
	.section	.text$_ZL7fprintfP6_iobufPKcz,"x"
.LHOTE61:
	.section	.text.unlikely._ZL6printfPKcz,"x"
.LCOLDB62:
	.section	.text$_ZL6printfPKcz,"x"
.LHOTB62:
	.def	_ZL6printfPKcz;	.scl	3;	.type	32;	.endef
	.seh_proc	_ZL6printfPKcz
_ZL6printfPKcz:
	subq	$56, %rsp
	.seh_stackalloc	56
	.seh_endprologue
	movq	%rdx, 72(%rsp)
	leaq	72(%rsp), %rdx
	movq	%r8, 80(%rsp)
	movq	%r9, 88(%rsp)
	movq	%rdx, 40(%rsp)
	call	__mingw_vprintf
	addq	$56, %rsp
	ret
	.seh_endproc
	.section	.text.unlikely._ZL6printfPKcz,"x"
.LCOLDE62:
	.section	.text$_ZL6printfPKcz,"x"
.LHOTE62:
	.section .rdata,"dr"
.LC63:
	.ascii "[  DEATH   ] \0"
	.section	.text.unlikely._ZN7testing8internalL21FormatDeathTestOutputERKNSt7__cxx1112basic_stringIcSt11char_traitsIcESaIcEEE,"x"
.LCOLDB64:
	.section	.text$_ZN7testing8internalL21FormatDeathTestOutputERKNSt7__cxx1112basic_stringIcSt11char_traitsIcESaIcEEE,"x"
.LHOTB64:
	.def	_ZN7testing8internalL21FormatDeathTestOutputERKNSt7__cxx1112basic_stringIcSt11char_traitsIcESaIcEEE;	.scl	3;	.type	32;	.endef
	.seh_proc	_ZN7testing8internalL21FormatDeathTestOutputERKNSt7__cxx1112basic_stringIcSt11char_traitsIcESaIcEEE
_ZN7testing8internalL21FormatDeathTestOutputERKNSt7__cxx1112basic_stringIcSt11char_traitsIcESaIcEEE:
	pushq	%r12
	.seh_pushreg	%r12
	pushq	%rbp
	.seh_pushreg	%rbp
	pushq	%rdi
	.seh_pushreg	%rdi
	pushq	%rsi
	.seh_pushreg	%rsi
	pushq	%rbx
	.seh_pushreg	%rbx
	subq	$80, %rsp
	.seh_stackalloc	80
	.seh_endprologue
	xorl	%ebp, %ebp
	leaq	16(%rcx), %rax
	movq	%rcx, %rbx
	movq	%rdx, %r12
	movb	$0, 16(%rcx)
	movq	%rax, (%rcx)
	leaq	48(%rsp), %rdi
	movq	$0, 8(%rcx)
.L74:
	movq	%rbp, %r8
	movl	$10, %edx
	movq	%r12, %rcx
	call	_ZNKSt7__cxx1112basic_stringIcSt11char_traitsIcESaIcEE4findEcy
	leaq	.LC63(%rip), %rdx
	movq	%rbx, %rcx
	movq	%rax, 40(%rsp)
	call	_ZNSt7__cxx1112basic_stringIcSt11char_traitsIcESaIcEEpLEPKc
	movq	40(%rsp), %r9
	cmpq	$-1, %r9
	je	.L76
	leaq	1(%r9), %rsi
	movq	%rbp, %r8
	movq	%r12, %rdx
	movq	%rsi, %r9
	movq	%rdi, %rcx
	subq	%rbp, %r9
	movq	%rsi, %rbp
	call	_ZNKSt7__cxx1112basic_stringIcSt11char_traitsIcESaIcEE6substrEyy
	movq	%rdi, %rdx
	movq	%rbx, %rcx
	call	_ZNSt7__cxx1112basic_stringIcSt11char_traitsIcESaIcEEpLERKS4_
	movq	%rdi, %rcx
	call	_ZNSt7__cxx1112basic_stringIcSt11char_traitsIcESaIcEE10_M_disposeEv
	jmp	.L74
.L76:
	movq	%rbp, %r8
	movq	%r12, %rdx
	movq	%rdi, %rcx
	call	_ZNKSt7__cxx1112basic_stringIcSt11char_traitsIcESaIcEE6substrEyy
	movq	%rdi, %rdx
	movq	%rbx, %rcx
	call	_ZNSt7__cxx1112basic_stringIcSt11char_traitsIcESaIcEEpLERKS4_
	movq	%rdi, %rcx
	call	_ZNSt7__cxx1112basic_stringIcSt11char_traitsIcESaIcEE10_M_disposeEv
	movq	%rbx, %rax
	addq	$80, %rsp
	popq	%rbx
	popq	%rsi
	popq	%rdi
	popq	%rbp
	popq	%r12
	ret
	.seh_endproc
	.section	.text.unlikely._ZN7testing8internalL21FormatDeathTestOutputERKNSt7__cxx1112basic_stringIcSt11char_traitsIcESaIcEEE,"x"
.LCOLDE64:
	.section	.text$_ZN7testing8internalL21FormatDeathTestOutputERKNSt7__cxx1112basic_stringIcSt11char_traitsIcESaIcEEE,"x"
.LHOTE64:
	.section	.text.unlikely.__tcf_1,"x"
.LCOLDB65:
	.section	.text$__tcf_1,"x"
.LHOTB65:
	.def	__tcf_1;	.scl	3;	.type	32;	.endef
	.seh_proc	__tcf_1
__tcf_1:
	.seh_endprologue
	leaq	_ZStL8__ioinit(%rip), %rcx
	jmp	_ZNSt8ios_base4InitD1Ev
	.seh_endproc
	.section	.text.unlikely.__tcf_1,"x"
.LCOLDE65:
	.section	.text$__tcf_1,"x"
.LHOTE65:
	.section .rdata,"dr"
.LC66:
	.ascii "(null)\0"
	.section	.text.unlikely._ZN7testing7MessagelsIKcEERS0_RKPT_.isra.124,"x"
	.align 2
.LCOLDB67:
	.section	.text$_ZN7testing7MessagelsIKcEERS0_RKPT_.isra.124,"x"
.LHOTB67:
	.align 2
	.def	_ZN7testing7MessagelsIKcEERS0_RKPT_.isra.124;	.scl	3;	.type	32;	.endef
	.seh_proc	_ZN7testing7MessagelsIKcEERS0_RKPT_.isra.124
_ZN7testing7MessagelsIKcEERS0_RKPT_.isra.124:
	pushq	%rbx
	.seh_pushreg	%rbx
	subq	$32, %rsp
	.seh_stackalloc	32
	.seh_endprologue
	testq	%rdx, %rdx
	movq	%rcx, %rbx
	movq	(%rcx), %rcx
	jne	.L79
	leaq	.LC66(%rip), %rdx
	addq	$16, %rcx
	jmp	.L81
.L79:
	addq	$16, %rcx
.L81:
	call	_ZStlsISt11char_traitsIcEERSt13basic_ostreamIcT_ES5_PKc
	movq	%rbx, %rax
	addq	$32, %rsp
	popq	%rbx
	ret
	.seh_endproc
	.section	.text.unlikely._ZN7testing7MessagelsIKcEERS0_RKPT_.isra.124,"x"
.LCOLDE67:
	.section	.text$_ZN7testing7MessagelsIKcEERS0_RKPT_.isra.124,"x"
.LHOTE67:
	.section	.text.unlikely._ZNSt12_Vector_baseIPN7testing8TestCaseESaIS2_EE13_M_deallocateEPS2_y.isra.365,"x"
	.align 2
.LCOLDB68:
	.section	.text$_ZNSt12_Vector_baseIPN7testing8TestCaseESaIS2_EE13_M_deallocateEPS2_y.isra.365,"x"
.LHOTB68:
	.align 2
	.def	_ZNSt12_Vector_baseIPN7testing8TestCaseESaIS2_EE13_M_deallocateEPS2_y.isra.365;	.scl	3;	.type	32;	.endef
	.seh_proc	_ZNSt12_Vector_baseIPN7testing8TestCaseESaIS2_EE13_M_deallocateEPS2_y.isra.365
_ZNSt12_Vector_baseIPN7testing8TestCaseESaIS2_EE13_M_deallocateEPS2_y.isra.365:
	.seh_endprologue
	testq	%rcx, %rcx
	je	.L82
	jmp	_ZdlPv
.L82:
	ret
	.seh_endproc
	.section	.text.unlikely._ZNSt12_Vector_baseIPN7testing8TestCaseESaIS2_EE13_M_deallocateEPS2_y.isra.365,"x"
.LCOLDE68:
	.section	.text$_ZNSt12_Vector_baseIPN7testing8TestCaseESaIS2_EE13_M_deallocateEPS2_y.isra.365,"x"
.LHOTE68:
	.def	_ZNSt12_Vector_baseIPN7testing8internal29ParameterizedTestCaseInfoBaseESaIS3_EE13_M_deallocateEPS3_y.isra.293;	.scl	3;	.type	32;	.endef
	.set	_ZNSt12_Vector_baseIPN7testing8internal29ParameterizedTestCaseInfoBaseESaIS3_EE13_M_deallocateEPS3_y.isra.293,_ZNSt12_Vector_baseIPN7testing8TestCaseESaIS2_EE13_M_deallocateEPS2_y.isra.365
	.def	_ZNSt12_Vector_baseIN7testing14TestPartResultESaIS1_EE13_M_deallocateEPS1_y.isra.302;	.scl	3;	.type	32;	.endef
	.set	_ZNSt12_Vector_baseIN7testing14TestPartResultESaIS1_EE13_M_deallocateEPS1_y.isra.302,_ZNSt12_Vector_baseIPN7testing8TestCaseESaIS2_EE13_M_deallocateEPS2_y.isra.365
	.def	_ZNSt12_Vector_baseIN7testing12TestPropertyESaIS1_EE13_M_deallocateEPS1_y.isra.309;	.scl	3;	.type	32;	.endef
	.set	_ZNSt12_Vector_baseIN7testing12TestPropertyESaIS1_EE13_M_deallocateEPS1_y.isra.309,_ZNSt12_Vector_baseIPN7testing8TestCaseESaIS2_EE13_M_deallocateEPS2_y.isra.365
	.def	_ZNSt12_Vector_baseINSt7__cxx1112basic_stringIcSt11char_traitsIcESaIcEEESaIS5_EE13_M_deallocateEPS5_y.isra.313;	.scl	3;	.type	32;	.endef
	.set	_ZNSt12_Vector_baseINSt7__cxx1112basic_stringIcSt11char_traitsIcESaIcEEESaIS5_EE13_M_deallocateEPS5_y.isra.313,_ZNSt12_Vector_baseIPN7testing8TestCaseESaIS2_EE13_M_deallocateEPS2_y.isra.365
	.def	_ZNSt12_Vector_baseIPN7testing8TestInfoESaIS2_EE13_M_deallocateEPS2_y.isra.327;	.scl	3;	.type	32;	.endef
	.set	_ZNSt12_Vector_baseIPN7testing8TestInfoESaIS2_EE13_M_deallocateEPS2_y.isra.327,_ZNSt12_Vector_baseIPN7testing8TestCaseESaIS2_EE13_M_deallocateEPS2_y.isra.365
	.def	_ZNSt12_Vector_baseIiSaIiEE13_M_deallocateEPiy.isra.335;	.scl	3;	.type	32;	.endef
	.set	_ZNSt12_Vector_baseIiSaIiEE13_M_deallocateEPiy.isra.335,_ZNSt12_Vector_baseIPN7testing8TestCaseESaIS2_EE13_M_deallocateEPS2_y.isra.365
	.def	_ZNSt12_Vector_baseIPN7testing17TestEventListenerESaIS2_EE13_M_deallocateEPS2_y.isra.343;	.scl	3;	.type	32;	.endef
	.set	_ZNSt12_Vector_baseIPN7testing17TestEventListenerESaIS2_EE13_M_deallocateEPS2_y.isra.343,_ZNSt12_Vector_baseIPN7testing8TestCaseESaIS2_EE13_M_deallocateEPS2_y.isra.365
	.def	_ZNSt12_Vector_baseIPN7testing11EnvironmentESaIS2_EE13_M_deallocateEPS2_y.isra.350;	.scl	3;	.type	32;	.endef
	.set	_ZNSt12_Vector_baseIPN7testing11EnvironmentESaIS2_EE13_M_deallocateEPS2_y.isra.350,_ZNSt12_Vector_baseIPN7testing8TestCaseESaIS2_EE13_M_deallocateEPS2_y.isra.365
	.def	_ZNSt12_Vector_baseIN7testing8internal9TraceInfoESaIS2_EE13_M_deallocateEPS2_y.isra.355;	.scl	3;	.type	32;	.endef
	.set	_ZNSt12_Vector_baseIN7testing8internal9TraceInfoESaIS2_EE13_M_deallocateEPS2_y.isra.355,_ZNSt12_Vector_baseIPN7testing8TestCaseESaIS2_EE13_M_deallocateEPS2_y.isra.365
	.section .rdata,"dr"
.LC69:
	.ascii "basic_string::_M_construct null not valid\0"
	.section	.text.unlikely._ZNSt7__cxx1112basic_stringIcSt11char_traitsIcESaIcEE12_M_constructIPcEEvT_S7_St20forward_iterator_tag.isra.413,"x"
	.align 2
.LCOLDB70:
	.section	.text$_ZNSt7__cxx1112basic_stringIcSt11char_traitsIcESaIcEE12_M_constructIPcEEvT_S7_St20forward_iterator_tag.isra.413,"x"
.LHOTB70:
	.align 2
	.def	_ZNSt7__cxx1112basic_stringIcSt11char_traitsIcESaIcEE12_M_constructIPcEEvT_S7_St20forward_iterator_tag.isra.413;	.scl	3;	.type	32;	.endef
	.seh_proc	_ZNSt7__cxx1112basic_stringIcSt11char_traitsIcESaIcEE12_M_constructIPcEEvT_S7_St20forward_iterator_tag.isra.413
_ZNSt7__cxx1112basic_stringIcSt11char_traitsIcESaIcEE12_M_constructIPcEEvT_S7_St20forward_iterator_tag.isra.413:
	pushq	%rdi
	.seh_pushreg	%rdi
	pushq	%rsi
	.seh_pushreg	%rsi
	pushq	%rbx
	.seh_pushreg	%rbx
	subq	$48, %rsp
	.seh_stackalloc	48
	.seh_endprologue
	movq	%rcx, %rbx
	movq	%rdx, %rsi
	movq	%r8, %rdi
	testq	%rdx, %rdx
	jne	.L87
	testq	%r8, %r8
	jne	.L85
.L87:
	movq	%rdi, %rax
	subq	%rsi, %rax
	movq	%rax, 40(%rsp)
	cmpq	$15, %rax
	jbe	.L89
	leaq	40(%rsp), %rdx
	xorl	%r8d, %r8d
	movq	%rbx, %rcx
	call	_ZNSt7__cxx1112basic_stringIcSt11char_traitsIcESaIcEE9_M_createERyy
	movq	%rax, (%rbx)
	movq	40(%rsp), %rax
	movq	%rax, 16(%rbx)
.L89:
	movq	(%rbx), %rcx
	movq	%rsi, %rdx
	movq	%rdi, %r8
	call	_ZNSt7__cxx1112basic_stringIcSt11char_traitsIcESaIcEE13_S_copy_charsEPcS5_S5_
	movq	40(%rsp), %rax
	movq	(%rbx), %rdx
	movq	%rax, 8(%rbx)
	movb	$0, (%rdx,%rax)
	addq	$48, %rsp
	popq	%rbx
	popq	%rsi
	popq	%rdi
	ret
.L85:
	leaq	.LC69(%rip), %rcx
	call	_ZSt19__throw_logic_errorPKc
	nop
	.seh_endproc
	.section	.text.unlikely._ZNSt7__cxx1112basic_stringIcSt11char_traitsIcESaIcEE12_M_constructIPcEEvT_S7_St20forward_iterator_tag.isra.413,"x"
.LCOLDE70:
	.section	.text$_ZNSt7__cxx1112basic_stringIcSt11char_traitsIcESaIcEE12_M_constructIPcEEvT_S7_St20forward_iterator_tag.isra.413,"x"
.LHOTE70:
	.def	_ZNSt7__cxx1112basic_stringIcSt11char_traitsIcESaIcEE12_M_constructIPKcEEvT_S8_St20forward_iterator_tag.isra.404;	.scl	3;	.type	32;	.endef
	.set	_ZNSt7__cxx1112basic_stringIcSt11char_traitsIcESaIcEE12_M_constructIPKcEEvT_S8_St20forward_iterator_tag.isra.404,_ZNSt7__cxx1112basic_stringIcSt11char_traitsIcESaIcEE12_M_constructIPcEEvT_S7_St20forward_iterator_tag.isra.413
	.section	.text.unlikely._ZNSt7__cxx1112basic_stringIcSt11char_traitsIcESaIcEEC2EPKcRKS3_.isra.406,"x"
	.align 2
.LCOLDB71:
	.section	.text$_ZNSt7__cxx1112basic_stringIcSt11char_traitsIcESaIcEEC2EPKcRKS3_.isra.406,"x"
.LHOTB71:
	.align 2
	.def	_ZNSt7__cxx1112basic_stringIcSt11char_traitsIcESaIcEEC2EPKcRKS3_.isra.406;	.scl	3;	.type	32;	.endef
	.seh_proc	_ZNSt7__cxx1112basic_stringIcSt11char_traitsIcESaIcEEC2EPKcRKS3_.isra.406
_ZNSt7__cxx1112basic_stringIcSt11char_traitsIcESaIcEEC2EPKcRKS3_.isra.406:
	pushq	%rdi
	.seh_pushreg	%rdi
	.seh_endprologue
	orq	$-1, %r8
	leaq	16(%rcx), %rax
	movq	%rcx, %r9
	movq	%rax, (%rcx)
	testq	%rdx, %rdx
	je	.L95
	xorl	%eax, %eax
	movq	%r8, %rcx
	movq	%rdx, %rdi
	repnz scasb
	movq	%rcx, %rax
	notq	%rax
	leaq	-1(%rdx,%rax), %r8
.L95:
	movq	%r9, %rcx
	popq	%rdi
	jmp	_ZNSt7__cxx1112basic_stringIcSt11char_traitsIcESaIcEE12_M_constructIPKcEEvT_S8_St20forward_iterator_tag.isra.404
	.seh_endproc
	.section	.text.unlikely._ZNSt7__cxx1112basic_stringIcSt11char_traitsIcESaIcEEC2EPKcRKS3_.isra.406,"x"
.LCOLDE71:
	.section	.text$_ZNSt7__cxx1112basic_stringIcSt11char_traitsIcESaIcEEC2EPKcRKS3_.isra.406,"x"
.LHOTE71:
	.section .rdata,"dr"
.LC72:
	.ascii "\0"
	.section	.text.unlikely._ZN7testing8internal18OsStackTraceGetter17CurrentStackTraceB5cxx11Eii,"x"
	.align 2
.LCOLDB73:
	.section	.text$_ZN7testing8internal18OsStackTraceGetter17CurrentStackTraceB5cxx11Eii,"x"
.LHOTB73:
	.align 2
	.globl	_ZN7testing8internal18OsStackTraceGetter17CurrentStackTraceB5cxx11Eii
	.def	_ZN7testing8internal18OsStackTraceGetter17CurrentStackTraceB5cxx11Eii;	.scl	2;	.type	32;	.endef
	.seh_proc	_ZN7testing8internal18OsStackTraceGetter17CurrentStackTraceB5cxx11Eii
_ZN7testing8internal18OsStackTraceGetter17CurrentStackTraceB5cxx11Eii:
	pushq	%rbx
	.seh_pushreg	%rbx
	subq	$32, %rsp
	.seh_stackalloc	32
	.seh_endprologue
	leaq	.LC72(%rip), %rdx
	movq	%rcx, %rbx
	call	_ZNSt7__cxx1112basic_stringIcSt11char_traitsIcESaIcEEC2EPKcRKS3_.isra.406
	movq	%rbx, %rax
	addq	$32, %rsp
	popq	%rbx
	ret
	.seh_endproc
	.section	.text.unlikely._ZN7testing8internal18OsStackTraceGetter17CurrentStackTraceB5cxx11Eii,"x"
.LCOLDE73:
	.section	.text$_ZN7testing8internal18OsStackTraceGetter17CurrentStackTraceB5cxx11Eii,"x"
.LHOTE73:
	.section	.text.unlikely._ZNSt12_Vector_baseIPN7testing8TestCaseESaIS2_EE11_M_allocateEy.isra.490,"x"
	.align 2
.LCOLDB74:
	.section	.text$_ZNSt12_Vector_baseIPN7testing8TestCaseESaIS2_EE11_M_allocateEy.isra.490,"x"
.LHOTB74:
	.align 2
	.def	_ZNSt12_Vector_baseIPN7testing8TestCaseESaIS2_EE11_M_allocateEy.isra.490;	.scl	3;	.type	32;	.endef
	.seh_proc	_ZNSt12_Vector_baseIPN7testing8TestCaseESaIS2_EE11_M_allocateEy.isra.490
_ZNSt12_Vector_baseIPN7testing8TestCaseESaIS2_EE11_M_allocateEy.isra.490:
	subq	$40, %rsp
	.seh_stackalloc	40
	.seh_endprologue
	testq	%rcx, %rcx
	je	.L100
	movabsq	$2305843009213693951, %rax
	cmpq	%rax, %rcx
	jbe	.L101
	call	_ZSt17__throw_bad_allocv
.L101:
	salq	$3, %rcx
	addq	$40, %rsp
	jmp	_Znwy
.L100:
	xorl	%eax, %eax
	addq	$40, %rsp
	ret
	.seh_endproc
	.section	.text.unlikely._ZNSt12_Vector_baseIPN7testing8TestCaseESaIS2_EE11_M_allocateEy.isra.490,"x"
.LCOLDE74:
	.section	.text$_ZNSt12_Vector_baseIPN7testing8TestCaseESaIS2_EE11_M_allocateEy.isra.490,"x"
.LHOTE74:
	.def	_ZNSt12_Vector_baseIPN7testing8TestInfoESaIS2_EE11_M_allocateEy.isra.459;	.scl	3;	.type	32;	.endef
	.set	_ZNSt12_Vector_baseIPN7testing8TestInfoESaIS2_EE11_M_allocateEy.isra.459,_ZNSt12_Vector_baseIPN7testing8TestCaseESaIS2_EE11_M_allocateEy.isra.490
	.def	_ZNSt12_Vector_baseIPN7testing17TestEventListenerESaIS2_EE11_M_allocateEy.isra.466;	.scl	3;	.type	32;	.endef
	.set	_ZNSt12_Vector_baseIPN7testing17TestEventListenerESaIS2_EE11_M_allocateEy.isra.466,_ZNSt12_Vector_baseIPN7testing8TestCaseESaIS2_EE11_M_allocateEy.isra.490
	.def	_ZNSt12_Vector_baseIPN7testing11EnvironmentESaIS2_EE11_M_allocateEy.isra.473;	.scl	3;	.type	32;	.endef
	.set	_ZNSt12_Vector_baseIPN7testing11EnvironmentESaIS2_EE11_M_allocateEy.isra.473,_ZNSt12_Vector_baseIPN7testing8TestCaseESaIS2_EE11_M_allocateEy.isra.490
	.section .rdata,"dr"
.LC75:
	.ascii "...\0"
.LC76:
	.ascii "\\n\0"
.LC77:
	.ascii "%c\0"
	.section	.text.unlikely._ZN7testing8internalL14PrintOnOneLineEPKci.constprop.581,"x"
.LCOLDB78:
	.section	.text$_ZN7testing8internalL14PrintOnOneLineEPKci.constprop.581,"x"
.LHOTB78:
	.def	_ZN7testing8internalL14PrintOnOneLineEPKci.constprop.581;	.scl	3;	.type	32;	.endef
	.seh_proc	_ZN7testing8internalL14PrintOnOneLineEPKci.constprop.581
_ZN7testing8internalL14PrintOnOneLineEPKci.constprop.581:
	pushq	%rsi
	.seh_pushreg	%rsi
	pushq	%rbx
	.seh_pushreg	%rbx
	subq	$40, %rsp
	.seh_stackalloc	40
	.seh_endprologue
	movq	%rcx, %rsi
	testq	%rcx, %rcx
	je	.L102
	xorl	%ebx, %ebx
.L107:
	movsbl	(%rsi), %edx
	testb	%dl, %dl
	je	.L102
	cmpl	$249, %ebx
	jle	.L104
	leaq	.LC75(%rip), %rcx
	addq	$40, %rsp
	popq	%rbx
	popq	%rsi
	jmp	_ZL6printfPKcz
.L104:
	cmpb	$10, %dl
	jne	.L105
	leaq	.LC76(%rip), %rcx
	addl	$2, %ebx
	call	_ZL6printfPKcz
	jmp	.L106
.L105:
	leaq	.LC77(%rip), %rcx
	incl	%ebx
	call	_ZL6printfPKcz
.L106:
	incq	%rsi
	jmp	.L107
.L102:
	addq	$40, %rsp
	popq	%rbx
	popq	%rsi
	ret
	.seh_endproc
	.section	.text.unlikely._ZN7testing8internalL14PrintOnOneLineEPKci.constprop.581,"x"
.LCOLDE78:
	.section	.text$_ZN7testing8internalL14PrintOnOneLineEPKci.constprop.581,"x"
.LHOTE78:
	.section	.text.unlikely._ZN7testing8internal17TestEventRepeaterD2Ev,"x"
	.align 2
.LCOLDB79:
	.section	.text$_ZN7testing8internal17TestEventRepeaterD2Ev,"x"
.LHOTB79:
	.align 2
	.globl	_ZN7testing8internal17TestEventRepeaterD2Ev
	.def	_ZN7testing8internal17TestEventRepeaterD2Ev;	.scl	2;	.type	32;	.endef
	.seh_proc	_ZN7testing8internal17TestEventRepeaterD2Ev
_ZN7testing8internal17TestEventRepeaterD2Ev:
	pushq	%rdi
	.seh_pushreg	%rdi
	pushq	%rsi
	.seh_pushreg	%rsi
	pushq	%rbx
	.seh_pushreg	%rbx
	subq	$32, %rsp
	.seh_stackalloc	32
	.seh_endprologue
	leaq	16+_ZTVN7testing8internal17TestEventRepeaterE(%rip), %rax
	movq	24(%rcx), %rdi
	movq	16(%rcx), %rsi
	movq	%rcx, %rbx
	movq	%rax, (%rcx)
.L116:
	cmpq	%rsi, %rdi
	je	.L115
	movq	(%rsi), %rcx
	addq	$8, %rsi
	call	_ZN7testing8internalL6DeleteINS_17TestEventListenerEEEvPT_
	jmp	.L116
.L115:
	movq	16(%rbx), %rcx
	addq	$32, %rsp
	popq	%rbx
	popq	%rsi
	popq	%rdi
	jmp	_ZNSt12_Vector_baseIPN7testing17TestEventListenerESaIS2_EE13_M_deallocateEPS2_y.isra.343
	.seh_endproc
	.section	.text.unlikely._ZN7testing8internal17TestEventRepeaterD2Ev,"x"
.LCOLDE79:
	.section	.text$_ZN7testing8internal17TestEventRepeaterD2Ev,"x"
.LHOTE79:
	.globl	_ZN7testing8internal17TestEventRepeaterD1Ev
	.def	_ZN7testing8internal17TestEventRepeaterD1Ev;	.scl	2;	.type	32;	.endef
	.set	_ZN7testing8internal17TestEventRepeaterD1Ev,_ZN7testing8internal17TestEventRepeaterD2Ev
	.section	.text.unlikely._ZN7testing8internal17TestEventRepeaterD0Ev,"x"
	.align 2
.LCOLDB80:
	.section	.text$_ZN7testing8internal17TestEventRepeaterD0Ev,"x"
.LHOTB80:
	.align 2
	.globl	_ZN7testing8internal17TestEventRepeaterD0Ev
	.def	_ZN7testing8internal17TestEventRepeaterD0Ev;	.scl	2;	.type	32;	.endef
	.seh_proc	_ZN7testing8internal17TestEventRepeaterD0Ev
_ZN7testing8internal17TestEventRepeaterD0Ev:
	pushq	%rbx
	.seh_pushreg	%rbx
	subq	$32, %rsp
	.seh_stackalloc	32
	.seh_endprologue
	movq	%rcx, %rbx
	call	_ZN7testing8internal17TestEventRepeaterD1Ev
	movq	%rbx, %rcx
	addq	$32, %rsp
	popq	%rbx
	jmp	_ZdlPv
	.seh_endproc
	.section	.text.unlikely._ZN7testing8internal17TestEventRepeaterD0Ev,"x"
.LCOLDE80:
	.section	.text$_ZN7testing8internal17TestEventRepeaterD0Ev,"x"
.LHOTE80:
	.section	.text.unlikely._ZN7testing8internalL19SumOverTestCaseListERKSt6vectorIPNS_8TestCaseESaIS3_EEMS2_KFivE.constprop.596,"x"
.LCOLDB81:
	.section	.text$_ZN7testing8internalL19SumOverTestCaseListERKSt6vectorIPNS_8TestCaseESaIS3_EEMS2_KFivE.constprop.596,"x"
.LHOTB81:
	.def	_ZN7testing8internalL19SumOverTestCaseListERKSt6vectorIPNS_8TestCaseESaIS3_EEMS2_KFivE.constprop.596;	.scl	3;	.type	32;	.endef
	.seh_proc	_ZN7testing8internalL19SumOverTestCaseListERKSt6vectorIPNS_8TestCaseESaIS3_EEMS2_KFivE.constprop.596
_ZN7testing8internalL19SumOverTestCaseListERKSt6vectorIPNS_8TestCaseESaIS3_EEMS2_KFivE.constprop.596:
	pushq	%r12
	.seh_pushreg	%r12
	pushq	%rbp
	.seh_pushreg	%rbp
	pushq	%rdi
	.seh_pushreg	%rdi
	pushq	%rsi
	.seh_pushreg	%rsi
	pushq	%rbx
	.seh_pushreg	%rbx
	subq	$32, %rsp
	.seh_stackalloc	32
	.seh_endprologue
	xorl	%ebx, %ebx
	xorl	%esi, %esi
	movq	(%rdx), %rdi
	movq	%rdi, %rbp
	movq	%rcx, %r12
	andl	$1, %ebp
.L121:
	movq	(%r12), %rdx
	movq	8(%r12), %rax
	subq	%rdx, %rax
	sarq	$3, %rax
	cmpq	%rbx, %rax
	jbe	.L119
	movq	(%rdx,%rbx,8), %rcx
	movq	%rdi, %rax
	testq	%rbp, %rbp
	je	.L120
	movq	(%rcx), %rax
	movq	-1(%rax,%rdi), %rax
.L120:
	call	*%rax
	incq	%rbx
	addl	%eax, %esi
	jmp	.L121
.L119:
	movl	%esi, %eax
	addq	$32, %rsp
	popq	%rbx
	popq	%rsi
	popq	%rdi
	popq	%rbp
	popq	%r12
	ret
	.seh_endproc
	.section	.text.unlikely._ZN7testing8internalL19SumOverTestCaseListERKSt6vectorIPNS_8TestCaseESaIS3_EEMS2_KFivE.constprop.596,"x"
.LCOLDE81:
	.section	.text$_ZN7testing8internalL19SumOverTestCaseListERKSt6vectorIPNS_8TestCaseESaIS3_EEMS2_KFivE.constprop.596,"x"
.LHOTE81:
	.section	.text.unlikely._ZN7testing8internal17TestEventRepeater15OnTestCaseStartERKNS_8TestCaseE,"x"
	.align 2
.LCOLDB82:
	.section	.text$_ZN7testing8internal17TestEventRepeater15OnTestCaseStartERKNS_8TestCaseE,"x"
.LHOTB82:
	.align 2
	.globl	_ZN7testing8internal17TestEventRepeater15OnTestCaseStartERKNS_8TestCaseE
	.def	_ZN7testing8internal17TestEventRepeater15OnTestCaseStartERKNS_8TestCaseE;	.scl	2;	.type	32;	.endef
	.seh_proc	_ZN7testing8internal17TestEventRepeater15OnTestCaseStartERKNS_8TestCaseE
_ZN7testing8internal17TestEventRepeater15OnTestCaseStartERKNS_8TestCaseE:
	pushq	%rdi
	.seh_pushreg	%rdi
	pushq	%rsi
	.seh_pushreg	%rsi
	pushq	%rbx
	.seh_pushreg	%rbx
	subq	$32, %rsp
	.seh_stackalloc	32
	.seh_endprologue
	cmpb	$0, 8(%rcx)
	movq	%rcx, %rsi
	movq	%rdx, %rdi
	je	.L124
	xorl	%ebx, %ebx
.L126:
	movq	16(%rsi), %rdx
	movq	24(%rsi), %rax
	subq	%rdx, %rax
	sarq	$3, %rax
	cmpq	%rbx, %rax
	jbe	.L124
	movq	(%rdx,%rbx,8), %rcx
	movq	%rdi, %rdx
	incq	%rbx
	movq	(%rcx), %rax
	call	*48(%rax)
	jmp	.L126
.L124:
	addq	$32, %rsp
	popq	%rbx
	popq	%rsi
	popq	%rdi
	ret
	.seh_endproc
	.section	.text.unlikely._ZN7testing8internal17TestEventRepeater15OnTestCaseStartERKNS_8TestCaseE,"x"
.LCOLDE82:
	.section	.text$_ZN7testing8internal17TestEventRepeater15OnTestCaseStartERKNS_8TestCaseE,"x"
.LHOTE82:
	.section	.text.unlikely._ZN7testing8internal17TestEventRepeater18OnTestProgramStartERKNS_8UnitTestE,"x"
	.align 2
.LCOLDB83:
	.section	.text$_ZN7testing8internal17TestEventRepeater18OnTestProgramStartERKNS_8UnitTestE,"x"
.LHOTB83:
	.align 2
	.globl	_ZN7testing8internal17TestEventRepeater18OnTestProgramStartERKNS_8UnitTestE
	.def	_ZN7testing8internal17TestEventRepeater18OnTestProgramStartERKNS_8UnitTestE;	.scl	2;	.type	32;	.endef
	.seh_proc	_ZN7testing8internal17TestEventRepeater18OnTestProgramStartERKNS_8UnitTestE
_ZN7testing8internal17TestEventRepeater18OnTestProgramStartERKNS_8UnitTestE:
	pushq	%rdi
	.seh_pushreg	%rdi
	pushq	%rsi
	.seh_pushreg	%rsi
	pushq	%rbx
	.seh_pushreg	%rbx
	subq	$32, %rsp
	.seh_stackalloc	32
	.seh_endprologue
	cmpb	$0, 8(%rcx)
	movq	%rcx, %rsi
	movq	%rdx, %rdi
	je	.L127
	xorl	%ebx, %ebx
.L129:
	movq	16(%rsi), %rdx
	movq	24(%rsi), %rax
	subq	%rdx, %rax
	sarq	$3, %rax
	cmpq	%rbx, %rax
	jbe	.L127
	movq	(%rdx,%rbx,8), %rcx
	movq	%rdi, %rdx
	incq	%rbx
	movq	(%rcx), %rax
	call	*16(%rax)
	jmp	.L129
.L127:
	addq	$32, %rsp
	popq	%rbx
	popq	%rsi
	popq	%rdi
	ret
	.seh_endproc
	.section	.text.unlikely._ZN7testing8internal17TestEventRepeater18OnTestProgramStartERKNS_8UnitTestE,"x"
.LCOLDE83:
	.section	.text$_ZN7testing8internal17TestEventRepeater18OnTestProgramStartERKNS_8UnitTestE,"x"
.LHOTE83:
	.section .rdata,"dr"
.LC84:
	.ascii "%02X\0"
	.section	.text.unlikely._ZL8snprintfPcyPKcz.constprop.614,"x"
.LCOLDB85:
	.section	.text$_ZL8snprintfPcyPKcz.constprop.614,"x"
.LHOTB85:
	.def	_ZL8snprintfPcyPKcz.constprop.614;	.scl	3;	.type	32;	.endef
	.seh_proc	_ZL8snprintfPcyPKcz.constprop.614
_ZL8snprintfPcyPKcz.constprop.614:
	subq	$56, %rsp
	.seh_stackalloc	56
	.seh_endprologue
	leaq	.LC84(%rip), %r8
	movl	$5, %edx
	movq	%r9, 88(%rsp)
	leaq	88(%rsp), %r9
	movq	%r9, 40(%rsp)
	call	__mingw_vsnprintf
	addq	$56, %rsp
	ret
	.seh_endproc
	.section	.text.unlikely._ZL8snprintfPcyPKcz.constprop.614,"x"
.LCOLDE85:
	.section	.text$_ZL8snprintfPcyPKcz.constprop.614,"x"
.LHOTE85:
	.section	.text.unlikely._ZN7testing12_GLOBAL__N_126PrintByteSegmentInObjectToEPKhyyPSo.constprop.577,"x"
.LCOLDB86:
	.section	.text$_ZN7testing12_GLOBAL__N_126PrintByteSegmentInObjectToEPKhyyPSo.constprop.577,"x"
.LHOTB86:
	.def	_ZN7testing12_GLOBAL__N_126PrintByteSegmentInObjectToEPKhyyPSo.constprop.577;	.scl	3;	.type	32;	.endef
	.seh_proc	_ZN7testing12_GLOBAL__N_126PrintByteSegmentInObjectToEPKhyyPSo.constprop.577
_ZN7testing12_GLOBAL__N_126PrintByteSegmentInObjectToEPKhyyPSo.constprop.577:
	pushq	%r13
	.seh_pushreg	%r13
	pushq	%r12
	.seh_pushreg	%r12
	pushq	%rbp
	.seh_pushreg	%rbp
	pushq	%rdi
	.seh_pushreg	%rdi
	pushq	%rsi
	.seh_pushreg	%rsi
	pushq	%rbx
	.seh_pushreg	%rbx
	subq	$56, %rsp
	.seh_stackalloc	56
	.seh_endprologue
	xorl	%ebx, %ebx
	movq	%rdx, %r12
	movq	%r8, %r13
	movq	%r9, %rsi
	movb	$0, 47(%rsp)
	movl	$0, 43(%rsp)
	leaq	(%rcx,%rdx), %rdi
	leaq	43(%rsp), %rbp
.L135:
	cmpq	%r13, %rbx
	je	.L131
	leaq	(%rbx,%r12), %rax
	testq	%rbx, %rbx
	je	.L133
	movl	$32, %edx
	testb	$1, %al
	je	.L139
	movl	$45, %edx
.L139:
	movq	%rsi, %rcx
	call	_ZStlsISt11char_traitsIcEERSt13basic_ostreamIcT_ES5_c
.L133:
	movzbl	(%rdi,%rbx), %r9d
	movl	$5, %edx
	movq	%rbp, %rcx
	incq	%rbx
	leaq	.LC84(%rip), %r8
	call	_ZL8snprintfPcyPKcz.constprop.614
	movq	%rbp, %rdx
	movq	%rsi, %rcx
	call	_ZStlsISt11char_traitsIcEERSt13basic_ostreamIcT_ES5_PKc
	jmp	.L135
.L131:
	addq	$56, %rsp
	popq	%rbx
	popq	%rsi
	popq	%rdi
	popq	%rbp
	popq	%r12
	popq	%r13
	ret
	.seh_endproc
	.section	.text.unlikely._ZN7testing12_GLOBAL__N_126PrintByteSegmentInObjectToEPKhyyPSo.constprop.577,"x"
.LCOLDE86:
	.section	.text$_ZN7testing12_GLOBAL__N_126PrintByteSegmentInObjectToEPKhyyPSo.constprop.577,"x"
.LHOTE86:
	.section	.text.unlikely._ZN7testing8internal17TestEventRepeater18OnTestIterationEndERKNS_8UnitTestEi,"x"
	.align 2
.LCOLDB87:
	.section	.text$_ZN7testing8internal17TestEventRepeater18OnTestIterationEndERKNS_8UnitTestEi,"x"
.LHOTB87:
	.align 2
	.globl	_ZN7testing8internal17TestEventRepeater18OnTestIterationEndERKNS_8UnitTestEi
	.def	_ZN7testing8internal17TestEventRepeater18OnTestIterationEndERKNS_8UnitTestEi;	.scl	2;	.type	32;	.endef
	.seh_proc	_ZN7testing8internal17TestEventRepeater18OnTestIterationEndERKNS_8UnitTestEi
_ZN7testing8internal17TestEventRepeater18OnTestIterationEndERKNS_8UnitTestEi:
	pushq	%r12
	.seh_pushreg	%r12
	pushq	%rbp
	.seh_pushreg	%rbp
	pushq	%rdi
	.seh_pushreg	%rdi
	pushq	%rsi
	.seh_pushreg	%rsi
	pushq	%rbx
	.seh_pushreg	%rbx
	subq	$32, %rsp
	.seh_stackalloc	32
	.seh_endprologue
	cmpb	$0, 8(%rcx)
	movq	%rcx, %r12
	movq	%rdx, %rdi
	movl	%r8d, %ebp
	je	.L140
	movq	24(%rcx), %rbx
	subq	16(%rcx), %rbx
	sarq	$3, %rbx
	decl	%ebx
	movslq	%ebx, %rsi
	salq	$3, %rsi
.L142:
	testl	%ebx, %ebx
	js	.L140
	movq	16(%r12), %rax
	movl	%ebp, %r8d
	movq	%rdi, %rdx
	decl	%ebx
	movq	(%rax,%rsi), %rcx
	subq	$8, %rsi
	movq	(%rcx), %rax
	call	*104(%rax)
	jmp	.L142
.L140:
	addq	$32, %rsp
	popq	%rbx
	popq	%rsi
	popq	%rdi
	popq	%rbp
	popq	%r12
	ret
	.seh_endproc
	.section	.text.unlikely._ZN7testing8internal17TestEventRepeater18OnTestIterationEndERKNS_8UnitTestEi,"x"
.LCOLDE87:
	.section	.text$_ZN7testing8internal17TestEventRepeater18OnTestIterationEndERKNS_8UnitTestEi,"x"
.LHOTE87:
	.section	.text.unlikely._ZN7testing8internal17TestEventRepeater20OnTestIterationStartERKNS_8UnitTestEi,"x"
	.align 2
.LCOLDB88:
	.section	.text$_ZN7testing8internal17TestEventRepeater20OnTestIterationStartERKNS_8UnitTestEi,"x"
.LHOTB88:
	.align 2
	.globl	_ZN7testing8internal17TestEventRepeater20OnTestIterationStartERKNS_8UnitTestEi
	.def	_ZN7testing8internal17TestEventRepeater20OnTestIterationStartERKNS_8UnitTestEi;	.scl	2;	.type	32;	.endef
	.seh_proc	_ZN7testing8internal17TestEventRepeater20OnTestIterationStartERKNS_8UnitTestEi
_ZN7testing8internal17TestEventRepeater20OnTestIterationStartERKNS_8UnitTestEi:
	pushq	%rbp
	.seh_pushreg	%rbp
	pushq	%rdi
	.seh_pushreg	%rdi
	pushq	%rsi
	.seh_pushreg	%rsi
	pushq	%rbx
	.seh_pushreg	%rbx
	subq	$40, %rsp
	.seh_stackalloc	40
	.seh_endprologue
	cmpb	$0, 8(%rcx)
	movq	%rcx, %rsi
	movq	%rdx, %rdi
	movl	%r8d, %ebp
	je	.L143
	xorl	%ebx, %ebx
.L145:
	movq	16(%rsi), %rdx
	movq	24(%rsi), %rax
	subq	%rdx, %rax
	sarq	$3, %rax
	cmpq	%rbx, %rax
	jbe	.L143
	movq	(%rdx,%rbx,8), %rcx
	movl	%ebp, %r8d
	movq	%rdi, %rdx
	incq	%rbx
	movq	(%rcx), %rax
	call	*24(%rax)
	jmp	.L145
.L143:
	addq	$40, %rsp
	popq	%rbx
	popq	%rsi
	popq	%rdi
	popq	%rbp
	ret
	.seh_endproc
	.section	.text.unlikely._ZN7testing8internal17TestEventRepeater20OnTestIterationStartERKNS_8UnitTestEi,"x"
.LCOLDE88:
	.section	.text$_ZN7testing8internal17TestEventRepeater20OnTestIterationStartERKNS_8UnitTestEi,"x"
.LHOTE88:
	.section	.text.unlikely._ZN7testing8internal17TestEventRepeater16OnTestProgramEndERKNS_8UnitTestE,"x"
	.align 2
.LCOLDB89:
	.section	.text$_ZN7testing8internal17TestEventRepeater16OnTestProgramEndERKNS_8UnitTestE,"x"
.LHOTB89:
	.align 2
	.globl	_ZN7testing8internal17TestEventRepeater16OnTestProgramEndERKNS_8UnitTestE
	.def	_ZN7testing8internal17TestEventRepeater16OnTestProgramEndERKNS_8UnitTestE;	.scl	2;	.type	32;	.endef
	.seh_proc	_ZN7testing8internal17TestEventRepeater16OnTestProgramEndERKNS_8UnitTestE
_ZN7testing8internal17TestEventRepeater16OnTestProgramEndERKNS_8UnitTestE:
	pushq	%r12
	.seh_pushreg	%r12
	pushq	%rbp
	.seh_pushreg	%rbp
	pushq	%rdi
	.seh_pushreg	%rdi
	pushq	%rsi
	.seh_pushreg	%rsi
	pushq	%rbx
	.seh_pushreg	%rbx
	subq	$32, %rsp
	.seh_stackalloc	32
	.seh_endprologue
	cmpb	$0, 8(%rcx)
	movq	%rcx, %rsi
	movq	%rdx, %r12
	je	.L146
	movq	24(%rcx), %rbx
	xorl	%edi, %edi
	subq	16(%rcx), %rbx
	sarq	$3, %rbx
	decl	%ebx
	movslq	%ebx, %rbp
	salq	$3, %rbp
.L148:
	testl	%ebx, %ebx
	js	.L146
	movq	%rdi, %rax
	addq	16(%rsi), %rax
	movq	%r12, %rdx
	decl	%ebx
	subq	$8, %rdi
	movq	(%rax,%rbp), %rcx
	movq	(%rcx), %rax
	call	*112(%rax)
	jmp	.L148
.L146:
	addq	$32, %rsp
	popq	%rbx
	popq	%rsi
	popq	%rdi
	popq	%rbp
	popq	%r12
	ret
	.seh_endproc
	.section	.text.unlikely._ZN7testing8internal17TestEventRepeater16OnTestProgramEndERKNS_8UnitTestE,"x"
.LCOLDE89:
	.section	.text$_ZN7testing8internal17TestEventRepeater16OnTestProgramEndERKNS_8UnitTestE,"x"
.LHOTE89:
	.section	.text.unlikely._ZN7testing8internal17TestEventRepeater13OnTestCaseEndERKNS_8TestCaseE,"x"
	.align 2
.LCOLDB90:
	.section	.text$_ZN7testing8internal17TestEventRepeater13OnTestCaseEndERKNS_8TestCaseE,"x"
.LHOTB90:
	.align 2
	.globl	_ZN7testing8internal17TestEventRepeater13OnTestCaseEndERKNS_8TestCaseE
	.def	_ZN7testing8internal17TestEventRepeater13OnTestCaseEndERKNS_8TestCaseE;	.scl	2;	.type	32;	.endef
	.seh_proc	_ZN7testing8internal17TestEventRepeater13OnTestCaseEndERKNS_8TestCaseE
_ZN7testing8internal17TestEventRepeater13OnTestCaseEndERKNS_8TestCaseE:
	pushq	%r12
	.seh_pushreg	%r12
	pushq	%rbp
	.seh_pushreg	%rbp
	pushq	%rdi
	.seh_pushreg	%rdi
	pushq	%rsi
	.seh_pushreg	%rsi
	pushq	%rbx
	.seh_pushreg	%rbx
	subq	$32, %rsp
	.seh_stackalloc	32
	.seh_endprologue
	cmpb	$0, 8(%rcx)
	movq	%rcx, %rsi
	movq	%rdx, %r12
	je	.L149
	movq	24(%rcx), %rbx
	xorl	%edi, %edi
	subq	16(%rcx), %rbx
	sarq	$3, %rbx
	decl	%ebx
	movslq	%ebx, %rbp
	salq	$3, %rbp
.L151:
	testl	%ebx, %ebx
	js	.L149
	movq	%rdi, %rax
	addq	16(%rsi), %rax
	movq	%r12, %rdx
	decl	%ebx
	subq	$8, %rdi
	movq	(%rax,%rbp), %rcx
	movq	(%rcx), %rax
	call	*80(%rax)
	jmp	.L151
.L149:
	addq	$32, %rsp
	popq	%rbx
	popq	%rsi
	popq	%rdi
	popq	%rbp
	popq	%r12
	ret
	.seh_endproc
	.section	.text.unlikely._ZN7testing8internal17TestEventRepeater13OnTestCaseEndERKNS_8TestCaseE,"x"
.LCOLDE90:
	.section	.text$_ZN7testing8internal17TestEventRepeater13OnTestCaseEndERKNS_8TestCaseE,"x"
.LHOTE90:
	.section	.text.unlikely._ZN7testing8internal17TestEventRepeater9OnTestEndERKNS_8TestInfoE,"x"
	.align 2
.LCOLDB91:
	.section	.text$_ZN7testing8internal17TestEventRepeater9OnTestEndERKNS_8TestInfoE,"x"
.LHOTB91:
	.align 2
	.globl	_ZN7testing8internal17TestEventRepeater9OnTestEndERKNS_8TestInfoE
	.def	_ZN7testing8internal17TestEventRepeater9OnTestEndERKNS_8TestInfoE;	.scl	2;	.type	32;	.endef
	.seh_proc	_ZN7testing8internal17TestEventRepeater9OnTestEndERKNS_8TestInfoE
_ZN7testing8internal17TestEventRepeater9OnTestEndERKNS_8TestInfoE:
	pushq	%r12
	.seh_pushreg	%r12
	pushq	%rbp
	.seh_pushreg	%rbp
	pushq	%rdi
	.seh_pushreg	%rdi
	pushq	%rsi
	.seh_pushreg	%rsi
	pushq	%rbx
	.seh_pushreg	%rbx
	subq	$32, %rsp
	.seh_stackalloc	32
	.seh_endprologue
	cmpb	$0, 8(%rcx)
	movq	%rcx, %rsi
	movq	%rdx, %r12
	je	.L152
	movq	24(%rcx), %rbx
	xorl	%edi, %edi
	subq	16(%rcx), %rbx
	sarq	$3, %rbx
	decl	%ebx
	movslq	%ebx, %rbp
	salq	$3, %rbp
.L154:
	testl	%ebx, %ebx
	js	.L152
	movq	%rdi, %rax
	addq	16(%rsi), %rax
	movq	%r12, %rdx
	decl	%ebx
	subq	$8, %rdi
	movq	(%rax,%rbp), %rcx
	movq	(%rcx), %rax
	call	*72(%rax)
	jmp	.L154
.L152:
	addq	$32, %rsp
	popq	%rbx
	popq	%rsi
	popq	%rdi
	popq	%rbp
	popq	%r12
	ret
	.seh_endproc
	.section	.text.unlikely._ZN7testing8internal17TestEventRepeater9OnTestEndERKNS_8TestInfoE,"x"
.LCOLDE91:
	.section	.text$_ZN7testing8internal17TestEventRepeater9OnTestEndERKNS_8TestInfoE,"x"
.LHOTE91:
	.section	.text.unlikely._ZN7testing8internal17TestEventRepeater25OnEnvironmentsTearDownEndERKNS_8UnitTestE,"x"
	.align 2
.LCOLDB92:
	.section	.text$_ZN7testing8internal17TestEventRepeater25OnEnvironmentsTearDownEndERKNS_8UnitTestE,"x"
.LHOTB92:
	.align 2
	.globl	_ZN7testing8internal17TestEventRepeater25OnEnvironmentsTearDownEndERKNS_8UnitTestE
	.def	_ZN7testing8internal17TestEventRepeater25OnEnvironmentsTearDownEndERKNS_8UnitTestE;	.scl	2;	.type	32;	.endef
	.seh_proc	_ZN7testing8internal17TestEventRepeater25OnEnvironmentsTearDownEndERKNS_8UnitTestE
_ZN7testing8internal17TestEventRepeater25OnEnvironmentsTearDownEndERKNS_8UnitTestE:
	pushq	%r12
	.seh_pushreg	%r12
	pushq	%rbp
	.seh_pushreg	%rbp
	pushq	%rdi
	.seh_pushreg	%rdi
	pushq	%rsi
	.seh_pushreg	%rsi
	pushq	%rbx
	.seh_pushreg	%rbx
	subq	$32, %rsp
	.seh_stackalloc	32
	.seh_endprologue
	cmpb	$0, 8(%rcx)
	movq	%rcx, %rsi
	movq	%rdx, %r12
	je	.L155
	movq	24(%rcx), %rbx
	xorl	%edi, %edi
	subq	16(%rcx), %rbx
	sarq	$3, %rbx
	decl	%ebx
	movslq	%ebx, %rbp
	salq	$3, %rbp
.L157:
	testl	%ebx, %ebx
	js	.L155
	movq	%rdi, %rax
	addq	16(%rsi), %rax
	movq	%r12, %rdx
	decl	%ebx
	subq	$8, %rdi
	movq	(%rax,%rbp), %rcx
	movq	(%rcx), %rax
	call	*96(%rax)
	jmp	.L157
.L155:
	addq	$32, %rsp
	popq	%rbx
	popq	%rsi
	popq	%rdi
	popq	%rbp
	popq	%r12
	ret
	.seh_endproc
	.section	.text.unlikely._ZN7testing8internal17TestEventRepeater25OnEnvironmentsTearDownEndERKNS_8UnitTestE,"x"
.LCOLDE92:
	.section	.text$_ZN7testing8internal17TestEventRepeater25OnEnvironmentsTearDownEndERKNS_8UnitTestE,"x"
.LHOTE92:
	.section	.text.unlikely._ZN7testing8internal17TestEventRepeater22OnEnvironmentsSetUpEndERKNS_8UnitTestE,"x"
	.align 2
.LCOLDB93:
	.section	.text$_ZN7testing8internal17TestEventRepeater22OnEnvironmentsSetUpEndERKNS_8UnitTestE,"x"
.LHOTB93:
	.align 2
	.globl	_ZN7testing8internal17TestEventRepeater22OnEnvironmentsSetUpEndERKNS_8UnitTestE
	.def	_ZN7testing8internal17TestEventRepeater22OnEnvironmentsSetUpEndERKNS_8UnitTestE;	.scl	2;	.type	32;	.endef
	.seh_proc	_ZN7testing8internal17TestEventRepeater22OnEnvironmentsSetUpEndERKNS_8UnitTestE
_ZN7testing8internal17TestEventRepeater22OnEnvironmentsSetUpEndERKNS_8UnitTestE:
	pushq	%r12
	.seh_pushreg	%r12
	pushq	%rbp
	.seh_pushreg	%rbp
	pushq	%rdi
	.seh_pushreg	%rdi
	pushq	%rsi
	.seh_pushreg	%rsi
	pushq	%rbx
	.seh_pushreg	%rbx
	subq	$32, %rsp
	.seh_stackalloc	32
	.seh_endprologue
	cmpb	$0, 8(%rcx)
	movq	%rcx, %rsi
	movq	%rdx, %r12
	je	.L158
	movq	24(%rcx), %rbx
	xorl	%edi, %edi
	subq	16(%rcx), %rbx
	sarq	$3, %rbx
	decl	%ebx
	movslq	%ebx, %rbp
	salq	$3, %rbp
.L160:
	testl	%ebx, %ebx
	js	.L158
	movq	%rdi, %rax
	addq	16(%rsi), %rax
	movq	%r12, %rdx
	decl	%ebx
	subq	$8, %rdi
	movq	(%rax,%rbp), %rcx
	movq	(%rcx), %rax
	call	*40(%rax)
	jmp	.L160
.L158:
	addq	$32, %rsp
	popq	%rbx
	popq	%rsi
	popq	%rdi
	popq	%rbp
	popq	%r12
	ret
	.seh_endproc
	.section	.text.unlikely._ZN7testing8internal17TestEventRepeater22OnEnvironmentsSetUpEndERKNS_8UnitTestE,"x"
.LCOLDE93:
	.section	.text$_ZN7testing8internal17TestEventRepeater22OnEnvironmentsSetUpEndERKNS_8UnitTestE,"x"
.LHOTE93:
	.section	.text.unlikely._ZN7testing8internal17TestEventRepeater27OnEnvironmentsTearDownStartERKNS_8UnitTestE,"x"
	.align 2
.LCOLDB94:
	.section	.text$_ZN7testing8internal17TestEventRepeater27OnEnvironmentsTearDownStartERKNS_8UnitTestE,"x"
.LHOTB94:
	.align 2
	.globl	_ZN7testing8internal17TestEventRepeater27OnEnvironmentsTearDownStartERKNS_8UnitTestE
	.def	_ZN7testing8internal17TestEventRepeater27OnEnvironmentsTearDownStartERKNS_8UnitTestE;	.scl	2;	.type	32;	.endef
	.seh_proc	_ZN7testing8internal17TestEventRepeater27OnEnvironmentsTearDownStartERKNS_8UnitTestE
_ZN7testing8internal17TestEventRepeater27OnEnvironmentsTearDownStartERKNS_8UnitTestE:
	pushq	%rdi
	.seh_pushreg	%rdi
	pushq	%rsi
	.seh_pushreg	%rsi
	pushq	%rbx
	.seh_pushreg	%rbx
	subq	$32, %rsp
	.seh_stackalloc	32
	.seh_endprologue
	cmpb	$0, 8(%rcx)
	movq	%rcx, %rsi
	movq	%rdx, %rdi
	je	.L161
	xorl	%ebx, %ebx
.L163:
	movq	16(%rsi), %rdx
	movq	24(%rsi), %rax
	subq	%rdx, %rax
	sarq	$3, %rax
	cmpq	%rbx, %rax
	jbe	.L161
	movq	(%rdx,%rbx,8), %rcx
	movq	%rdi, %rdx
	incq	%rbx
	movq	(%rcx), %rax
	call	*88(%rax)
	jmp	.L163
.L161:
	addq	$32, %rsp
	popq	%rbx
	popq	%rsi
	popq	%rdi
	ret
	.seh_endproc
	.section	.text.unlikely._ZN7testing8internal17TestEventRepeater27OnEnvironmentsTearDownStartERKNS_8UnitTestE,"x"
.LCOLDE94:
	.section	.text$_ZN7testing8internal17TestEventRepeater27OnEnvironmentsTearDownStartERKNS_8UnitTestE,"x"
.LHOTE94:
	.section	.text.unlikely._ZN7testing8internal17TestEventRepeater16OnTestPartResultERKNS_14TestPartResultE,"x"
	.align 2
.LCOLDB95:
	.section	.text$_ZN7testing8internal17TestEventRepeater16OnTestPartResultERKNS_14TestPartResultE,"x"
.LHOTB95:
	.align 2
	.globl	_ZN7testing8internal17TestEventRepeater16OnTestPartResultERKNS_14TestPartResultE
	.def	_ZN7testing8internal17TestEventRepeater16OnTestPartResultERKNS_14TestPartResultE;	.scl	2;	.type	32;	.endef
	.seh_proc	_ZN7testing8internal17TestEventRepeater16OnTestPartResultERKNS_14TestPartResultE
_ZN7testing8internal17TestEventRepeater16OnTestPartResultERKNS_14TestPartResultE:
	pushq	%rdi
	.seh_pushreg	%rdi
	pushq	%rsi
	.seh_pushreg	%rsi
	pushq	%rbx
	.seh_pushreg	%rbx
	subq	$32, %rsp
	.seh_stackalloc	32
	.seh_endprologue
	cmpb	$0, 8(%rcx)
	movq	%rcx, %rsi
	movq	%rdx, %rdi
	je	.L164
	xorl	%ebx, %ebx
.L166:
	movq	16(%rsi), %rdx
	movq	24(%rsi), %rax
	subq	%rdx, %rax
	sarq	$3, %rax
	cmpq	%rbx, %rax
	jbe	.L164
	movq	(%rdx,%rbx,8), %rcx
	movq	%rdi, %rdx
	incq	%rbx
	movq	(%rcx), %rax
	call	*64(%rax)
	jmp	.L166
.L164:
	addq	$32, %rsp
	popq	%rbx
	popq	%rsi
	popq	%rdi
	ret
	.seh_endproc
	.section	.text.unlikely._ZN7testing8internal17TestEventRepeater16OnTestPartResultERKNS_14TestPartResultE,"x"
.LCOLDE95:
	.section	.text$_ZN7testing8internal17TestEventRepeater16OnTestPartResultERKNS_14TestPartResultE,"x"
.LHOTE95:
	.section	.text.unlikely._ZN7testing8internal17TestEventRepeater24OnEnvironmentsSetUpStartERKNS_8UnitTestE,"x"
	.align 2
.LCOLDB96:
	.section	.text$_ZN7testing8internal17TestEventRepeater24OnEnvironmentsSetUpStartERKNS_8UnitTestE,"x"
.LHOTB96:
	.align 2
	.globl	_ZN7testing8internal17TestEventRepeater24OnEnvironmentsSetUpStartERKNS_8UnitTestE
	.def	_ZN7testing8internal17TestEventRepeater24OnEnvironmentsSetUpStartERKNS_8UnitTestE;	.scl	2;	.type	32;	.endef
	.seh_proc	_ZN7testing8internal17TestEventRepeater24OnEnvironmentsSetUpStartERKNS_8UnitTestE
_ZN7testing8internal17TestEventRepeater24OnEnvironmentsSetUpStartERKNS_8UnitTestE:
	pushq	%rdi
	.seh_pushreg	%rdi
	pushq	%rsi
	.seh_pushreg	%rsi
	pushq	%rbx
	.seh_pushreg	%rbx
	subq	$32, %rsp
	.seh_stackalloc	32
	.seh_endprologue
	cmpb	$0, 8(%rcx)
	movq	%rcx, %rsi
	movq	%rdx, %rdi
	je	.L167
	xorl	%ebx, %ebx
.L169:
	movq	16(%rsi), %rdx
	movq	24(%rsi), %rax
	subq	%rdx, %rax
	sarq	$3, %rax
	cmpq	%rbx, %rax
	jbe	.L167
	movq	(%rdx,%rbx,8), %rcx
	movq	%rdi, %rdx
	incq	%rbx
	movq	(%rcx), %rax
	call	*32(%rax)
	jmp	.L169
.L167:
	addq	$32, %rsp
	popq	%rbx
	popq	%rsi
	popq	%rdi
	ret
	.seh_endproc
	.section	.text.unlikely._ZN7testing8internal17TestEventRepeater24OnEnvironmentsSetUpStartERKNS_8UnitTestE,"x"
.LCOLDE96:
	.section	.text$_ZN7testing8internal17TestEventRepeater24OnEnvironmentsSetUpStartERKNS_8UnitTestE,"x"
.LHOTE96:
	.section	.text.unlikely._ZN7testing8internal17TestEventRepeater11OnTestStartERKNS_8TestInfoE,"x"
	.align 2
.LCOLDB97:
	.section	.text$_ZN7testing8internal17TestEventRepeater11OnTestStartERKNS_8TestInfoE,"x"
.LHOTB97:
	.align 2
	.globl	_ZN7testing8internal17TestEventRepeater11OnTestStartERKNS_8TestInfoE
	.def	_ZN7testing8internal17TestEventRepeater11OnTestStartERKNS_8TestInfoE;	.scl	2;	.type	32;	.endef
	.seh_proc	_ZN7testing8internal17TestEventRepeater11OnTestStartERKNS_8TestInfoE
_ZN7testing8internal17TestEventRepeater11OnTestStartERKNS_8TestInfoE:
	pushq	%rdi
	.seh_pushreg	%rdi
	pushq	%rsi
	.seh_pushreg	%rsi
	pushq	%rbx
	.seh_pushreg	%rbx
	subq	$32, %rsp
	.seh_stackalloc	32
	.seh_endprologue
	cmpb	$0, 8(%rcx)
	movq	%rcx, %rsi
	movq	%rdx, %rdi
	je	.L170
	xorl	%ebx, %ebx
.L172:
	movq	16(%rsi), %rdx
	movq	24(%rsi), %rax
	subq	%rdx, %rax
	sarq	$3, %rax
	cmpq	%rbx, %rax
	jbe	.L170
	movq	(%rdx,%rbx,8), %rcx
	movq	%rdi, %rdx
	incq	%rbx
	movq	(%rcx), %rax
	call	*56(%rax)
	jmp	.L172
.L170:
	addq	$32, %rsp
	popq	%rbx
	popq	%rsi
	popq	%rdi
	ret
	.seh_endproc
	.section	.text.unlikely._ZN7testing8internal17TestEventRepeater11OnTestStartERKNS_8TestInfoE,"x"
.LCOLDE97:
	.section	.text$_ZN7testing8internal17TestEventRepeater11OnTestStartERKNS_8TestInfoE,"x"
.LHOTE97:
	.section	.text.unlikely._ZN7testing8internal10scoped_ptrINSt7__cxx1118basic_stringstreamIcSt11char_traitsIcESaIcEEEED4Ev.isra.155.constprop.639,"x"
	.align 2
.LCOLDB98:
	.section	.text$_ZN7testing8internal10scoped_ptrINSt7__cxx1118basic_stringstreamIcSt11char_traitsIcESaIcEEEED4Ev.isra.155.constprop.639,"x"
.LHOTB98:
	.align 2
	.def	_ZN7testing8internal10scoped_ptrINSt7__cxx1118basic_stringstreamIcSt11char_traitsIcESaIcEEEED4Ev.isra.155.constprop.639;	.scl	3;	.type	32;	.endef
	.seh_proc	_ZN7testing8internal10scoped_ptrINSt7__cxx1118basic_stringstreamIcSt11char_traitsIcESaIcEEEED4Ev.isra.155.constprop.639
_ZN7testing8internal10scoped_ptrINSt7__cxx1118basic_stringstreamIcSt11char_traitsIcESaIcEEEED4Ev.isra.155.constprop.639:
	.seh_endprologue
	movq	(%rcx), %rcx
	testq	%rcx, %rcx
	je	.L173
	movq	(%rcx), %rax
	rex.W jmp *8(%rax)
.L173:
	ret
	.seh_endproc
	.section	.text.unlikely._ZN7testing8internal10scoped_ptrINSt7__cxx1118basic_stringstreamIcSt11char_traitsIcESaIcEEEED4Ev.isra.155.constprop.639,"x"
.LCOLDE98:
	.section	.text$_ZN7testing8internal10scoped_ptrINSt7__cxx1118basic_stringstreamIcSt11char_traitsIcESaIcEEEED4Ev.isra.155.constprop.639,"x"
.LHOTE98:
	.section	.text.unlikely._ZNSt6vectorINSt7__cxx1112basic_stringIcSt11char_traitsIcESaIcEEESaIS5_EED4Ev.isra.386,"x"
	.align 2
.LCOLDB99:
	.section	.text$_ZNSt6vectorINSt7__cxx1112basic_stringIcSt11char_traitsIcESaIcEEESaIS5_EED4Ev.isra.386,"x"
.LHOTB99:
	.align 2
	.def	_ZNSt6vectorINSt7__cxx1112basic_stringIcSt11char_traitsIcESaIcEEESaIS5_EED4Ev.isra.386;	.scl	3;	.type	32;	.endef
	.seh_proc	_ZNSt6vectorINSt7__cxx1112basic_stringIcSt11char_traitsIcESaIcEEESaIS5_EED4Ev.isra.386
_ZNSt6vectorINSt7__cxx1112basic_stringIcSt11char_traitsIcESaIcEEESaIS5_EED4Ev.isra.386:
	pushq	%rdi
	.seh_pushreg	%rdi
	pushq	%rsi
	.seh_pushreg	%rsi
	pushq	%rbx
	.seh_pushreg	%rbx
	subq	$32, %rsp
	.seh_stackalloc	32
	.seh_endprologue
	movq	8(%rcx), %rdi
	movq	(%rcx), %rbx
	movq	%rcx, %rsi
.L177:
	cmpq	%rbx, %rdi
	je	.L176
	movq	%rbx, %rcx
	addq	$32, %rbx
	call	_ZNSt7__cxx1112basic_stringIcSt11char_traitsIcESaIcEE10_M_disposeEv
	jmp	.L177
.L176:
	movq	(%rsi), %rcx
	addq	$32, %rsp
	popq	%rbx
	popq	%rsi
	popq	%rdi
	jmp	_ZNSt12_Vector_baseINSt7__cxx1112basic_stringIcSt11char_traitsIcESaIcEEESaIS5_EE13_M_deallocateEPS5_y.isra.313
	.seh_endproc
	.section	.text.unlikely._ZNSt6vectorINSt7__cxx1112basic_stringIcSt11char_traitsIcESaIcEEESaIS5_EED4Ev.isra.386,"x"
.LCOLDE99:
	.section	.text$_ZNSt6vectorINSt7__cxx1112basic_stringIcSt11char_traitsIcESaIcEEESaIS5_EED4Ev.isra.386,"x"
.LHOTE99:
	.section	.text.unlikely.__tcf_10,"x"
.LCOLDB100:
	.section	.text$__tcf_10,"x"
.LHOTB100:
	.def	__tcf_10;	.scl	3;	.type	32;	.endef
	.seh_proc	__tcf_10
__tcf_10:
	.seh_endprologue
	leaq	_ZN7testing8internal7g_argvsB5cxx11E(%rip), %rcx
	jmp	_ZNSt6vectorINSt7__cxx1112basic_stringIcSt11char_traitsIcESaIcEEESaIS5_EED4Ev.isra.386
	.seh_endproc
	.section	.text.unlikely.__tcf_10,"x"
.LCOLDE100:
	.section	.text$__tcf_10,"x"
.LHOTE100:
	.section	.text.unlikely._ZNSt6vectorINSt7__cxx1112basic_stringIcSt11char_traitsIcESaIcEEESaIS5_EE19_M_range_initializeIPKPKcEEvT_SD_St20forward_iterator_tag.isra.521,"x"
	.align 2
.LCOLDB101:
	.section	.text$_ZNSt6vectorINSt7__cxx1112basic_stringIcSt11char_traitsIcESaIcEEESaIS5_EE19_M_range_initializeIPKPKcEEvT_SD_St20forward_iterator_tag.isra.521,"x"
.LHOTB101:
	.align 2
	.def	_ZNSt6vectorINSt7__cxx1112basic_stringIcSt11char_traitsIcESaIcEEESaIS5_EE19_M_range_initializeIPKPKcEEvT_SD_St20forward_iterator_tag.isra.521;	.scl	3;	.type	32;	.endef
	.seh_proc	_ZNSt6vectorINSt7__cxx1112basic_stringIcSt11char_traitsIcESaIcEEESaIS5_EE19_M_range_initializeIPKPKcEEvT_SD_St20forward_iterator_tag.isra.521
_ZNSt6vectorINSt7__cxx1112basic_stringIcSt11char_traitsIcESaIcEEESaIS5_EE19_M_range_initializeIPKPKcEEvT_SD_St20forward_iterator_tag.isra.521:
	pushq	%r12
	.seh_pushreg	%r12
	pushq	%rbp
	.seh_pushreg	%rbp
	pushq	%rdi
	.seh_pushreg	%rdi
	pushq	%rsi
	.seh_pushreg	%rsi
	pushq	%rbx
	.seh_pushreg	%rbx
	subq	$32, %rsp
	.seh_stackalloc	32
	.seh_endprologue
	movq	%r8, %rbx
	movq	%rcx, %rbp
	movq	%rdx, %rdi
	subq	%rdx, %rbx
	movq	%r8, %r12
	sarq	$3, %rbx
	je	.L185
	movabsq	$576460752303423487, %rax
	cmpq	%rax, %rbx
	jbe	.L181
	call	_ZSt17__throw_bad_allocv
.L181:
	movq	%rbx, %rcx
	salq	$5, %rcx
	call	_Znwy
	movq	%rax, %rsi
	jmp	.L180
.L185:
	xorl	%esi, %esi
.L180:
	salq	$5, %rbx
	movq	%rsi, 0(%rbp)
	addq	%rsi, %rbx
	movq	%rbx, 16(%rbp)
.L184:
	cmpq	%rdi, %r12
	je	.L182
	testq	%rsi, %rsi
	je	.L183
	movq	(%rdi), %rdx
	movq	%rsi, %rcx
	call	_ZNSt7__cxx1112basic_stringIcSt11char_traitsIcESaIcEEC2EPKcRKS3_.isra.406
.L183:
	addq	$8, %rdi
	addq	$32, %rsi
	jmp	.L184
.L182:
	movq	%rsi, 8(%rbp)
	addq	$32, %rsp
	popq	%rbx
	popq	%rsi
	popq	%rdi
	popq	%rbp
	popq	%r12
	ret
	.seh_endproc
	.section	.text.unlikely._ZNSt6vectorINSt7__cxx1112basic_stringIcSt11char_traitsIcESaIcEEESaIS5_EE19_M_range_initializeIPKPKcEEvT_SD_St20forward_iterator_tag.isra.521,"x"
.LCOLDE101:
	.section	.text$_ZNSt6vectorINSt7__cxx1112basic_stringIcSt11char_traitsIcESaIcEEESaIS5_EE19_M_range_initializeIPKPKcEEvT_SD_St20forward_iterator_tag.isra.521,"x"
.LHOTE101:
	.section	.text$_stat64i32,"x"
	.linkonce discard
.LCOLDB102:
.LHOTB102:
	.globl	_stat64i32
	.def	_stat64i32;	.scl	2;	.type	32;	.endef
	.seh_proc	_stat64i32
_stat64i32:
	pushq	%rdi
	.seh_pushreg	%rdi
	pushq	%rbx
	.seh_pushreg	%rbx
	subq	$104, %rsp
	.seh_stackalloc	104
	.seh_endprologue
	movq	%rdx, %rbx
	leaq	40(%rsp), %rdx
	call	*__imp__stat64(%rip)
	movl	%eax, %edx
	cmpl	$-1, %eax
	jne	.L190
	movl	$12, %ecx
	xorl	%eax, %eax
	movq	%rbx, %rdi
	rep stosl
	jmp	.L191
.L190:
	movl	40(%rsp), %eax
	movl	%eax, (%rbx)
	movl	44(%rsp), %eax
	movw	%ax, 4(%rbx)
	movw	46(%rsp), %ax
	movw	%ax, 6(%rbx)
	movl	48(%rsp), %eax
	movw	%ax, 8(%rbx)
	movw	50(%rsp), %ax
	movw	%ax, 10(%rbx)
	movl	52(%rsp), %eax
	movw	%ax, 12(%rbx)
	movl	56(%rsp), %eax
	movl	%eax, 16(%rbx)
	movq	64(%rsp), %rax
	movl	%eax, 20(%rbx)
	movq	72(%rsp), %rax
	movq	%rax, 24(%rbx)
	movq	80(%rsp), %rax
	movq	%rax, 32(%rbx)
	movq	88(%rsp), %rax
	movq	%rax, 40(%rbx)
.L191:
	movl	%edx, %eax
	addq	$104, %rsp
	popq	%rbx
	popq	%rdi
	ret
	.seh_endproc
.LCOLDE102:
.LHOTE102:
	.section	.text$_ZNK7testing8internal17TestPropertyKeyIsclERKNS_12TestPropertyE,"x"
	.linkonce discard
	.align 2
.LCOLDB103:
.LHOTB103:
	.align 2
	.globl	_ZNK7testing8internal17TestPropertyKeyIsclERKNS_12TestPropertyE
	.def	_ZNK7testing8internal17TestPropertyKeyIsclERKNS_12TestPropertyE;	.scl	2;	.type	32;	.endef
	.seh_proc	_ZNK7testing8internal17TestPropertyKeyIsclERKNS_12TestPropertyE
_ZNK7testing8internal17TestPropertyKeyIsclERKNS_12TestPropertyE:
	subq	$40, %rsp
	.seh_stackalloc	40
	.seh_endprologue
	movq	(%rdx), %rdx
	call	_ZNKSt7__cxx1112basic_stringIcSt11char_traitsIcESaIcEE7compareEPKc
	testl	%eax, %eax
	sete	%al
	addq	$40, %rsp
	ret
	.seh_endproc
.LCOLDE103:
.LHOTE103:
	.section	.text$_ZN7testing8internal10AutoHandle5ResetEPv,"x"
	.linkonce discard
	.align 2
.LCOLDB104:
.LHOTB104:
	.align 2
	.globl	_ZN7testing8internal10AutoHandle5ResetEPv
	.def	_ZN7testing8internal10AutoHandle5ResetEPv;	.scl	2;	.type	32;	.endef
	.seh_proc	_ZN7testing8internal10AutoHandle5ResetEPv
_ZN7testing8internal10AutoHandle5ResetEPv:
	pushq	%rsi
	.seh_pushreg	%rsi
	pushq	%rbx
	.seh_pushreg	%rbx
	subq	$40, %rsp
	.seh_stackalloc	40
	.seh_endprologue
	movq	%rcx, %rbx
	movq	(%rcx), %rcx
	movq	%rdx, %rsi
	cmpq	%rdx, %rcx
	je	.L193
	cmpq	$-1, %rcx
	je	.L195
	call	*__imp_CloseHandle(%rip)
.L195:
	movq	%rsi, (%rbx)
.L193:
	addq	$40, %rsp
	popq	%rbx
	popq	%rsi
	ret
	.seh_endproc
.LCOLDE104:
.LHOTE104:
	.section	.text$_ZN7testing8internal10AutoHandle5ResetEv,"x"
	.linkonce discard
	.align 2
.LCOLDB105:
.LHOTB105:
	.align 2
	.globl	_ZN7testing8internal10AutoHandle5ResetEv
	.def	_ZN7testing8internal10AutoHandle5ResetEv;	.scl	2;	.type	32;	.endef
	.seh_proc	_ZN7testing8internal10AutoHandle5ResetEv
_ZN7testing8internal10AutoHandle5ResetEv:
	.seh_endprologue
	orq	$-1, %rdx
	jmp	_ZN7testing8internal10AutoHandle5ResetEPv
	.seh_endproc
.LCOLDE105:
.LHOTE105:
	.section	.text.unlikely._ZN7testing8internal12AssertHelperC2ENS_14TestPartResult4TypeEPKciS5_,"x"
	.align 2
.LCOLDB106:
	.section	.text$_ZN7testing8internal12AssertHelperC2ENS_14TestPartResult4TypeEPKciS5_,"x"
.LHOTB106:
	.align 2
	.globl	_ZN7testing8internal12AssertHelperC2ENS_14TestPartResult4TypeEPKciS5_
	.def	_ZN7testing8internal12AssertHelperC2ENS_14TestPartResult4TypeEPKciS5_;	.scl	2;	.type	32;	.endef
	.seh_proc	_ZN7testing8internal12AssertHelperC2ENS_14TestPartResult4TypeEPKciS5_
_ZN7testing8internal12AssertHelperC2ENS_14TestPartResult4TypeEPKciS5_:
	pushq	%rdi
	.seh_pushreg	%rdi
	pushq	%rsi
	.seh_pushreg	%rsi
	pushq	%rbx
	.seh_pushreg	%rbx
	subq	$48, %rsp
	.seh_stackalloc	48
	.seh_endprologue
	movq	%rcx, %rsi
	movl	$56, %ecx
	movl	%edx, %edi
	movq	%r8, 40(%rsp)
	movl	%r9d, 36(%rsp)
	call	_Znwy
	movq	40(%rsp), %r8
	movl	36(%rsp), %r9d
	movl	%edi, (%rax)
	leaq	24(%rax), %rcx
	movq	%rax, %rbx
	movq	112(%rsp), %rdx
	movq	%r8, 8(%rax)
	movl	%r9d, 16(%rax)
	call	_ZNSt7__cxx1112basic_stringIcSt11char_traitsIcESaIcEEC2EPKcRKS3_.isra.406
	movq	%rbx, (%rsi)
	addq	$48, %rsp
	popq	%rbx
	popq	%rsi
	popq	%rdi
	ret
	.seh_endproc
	.section	.text.unlikely._ZN7testing8internal12AssertHelperC2ENS_14TestPartResult4TypeEPKciS5_,"x"
.LCOLDE106:
	.section	.text$_ZN7testing8internal12AssertHelperC2ENS_14TestPartResult4TypeEPKciS5_,"x"
.LHOTE106:
	.globl	_ZN7testing8internal12AssertHelperC1ENS_14TestPartResult4TypeEPKciS5_
	.def	_ZN7testing8internal12AssertHelperC1ENS_14TestPartResult4TypeEPKciS5_;	.scl	2;	.type	32;	.endef
	.set	_ZN7testing8internal12AssertHelperC1ENS_14TestPartResult4TypeEPKciS5_,_ZN7testing8internal12AssertHelperC2ENS_14TestPartResult4TypeEPKciS5_
	.section	.text.unlikely._ZN7testing8internal12AssertHelperD2Ev,"x"
	.align 2
.LCOLDB107:
	.section	.text$_ZN7testing8internal12AssertHelperD2Ev,"x"
.LHOTB107:
	.align 2
	.globl	_ZN7testing8internal12AssertHelperD2Ev
	.def	_ZN7testing8internal12AssertHelperD2Ev;	.scl	2;	.type	32;	.endef
	.seh_proc	_ZN7testing8internal12AssertHelperD2Ev
_ZN7testing8internal12AssertHelperD2Ev:
	pushq	%rbx
	.seh_pushreg	%rbx
	subq	$32, %rsp
	.seh_stackalloc	32
	.seh_endprologue
	movq	%rcx, %rbx
	movq	(%rcx), %rcx
	testq	%rcx, %rcx
	je	.L201
	addq	$24, %rcx
	call	_ZNSt7__cxx1112basic_stringIcSt11char_traitsIcESaIcEE10_M_disposeEv
	movq	(%rbx), %rcx
	addq	$32, %rsp
	popq	%rbx
	jmp	_ZdlPv
.L201:
	addq	$32, %rsp
	popq	%rbx
	ret
	.seh_endproc
	.section	.text.unlikely._ZN7testing8internal12AssertHelperD2Ev,"x"
.LCOLDE107:
	.section	.text$_ZN7testing8internal12AssertHelperD2Ev,"x"
.LHOTE107:
	.globl	_ZN7testing8internal12AssertHelperD1Ev
	.def	_ZN7testing8internal12AssertHelperD1Ev;	.scl	2;	.type	32;	.endef
	.set	_ZN7testing8internal12AssertHelperD1Ev,_ZN7testing8internal12AssertHelperD2Ev
	.section	.text.unlikely._ZN7testing8internal15UnitTestOptions15GetOutputFormatB5cxx11Ev,"x"
	.align 2
.LCOLDB108:
	.section	.text$_ZN7testing8internal15UnitTestOptions15GetOutputFormatB5cxx11Ev,"x"
.LHOTB108:
	.align 2
	.globl	_ZN7testing8internal15UnitTestOptions15GetOutputFormatB5cxx11Ev
	.def	_ZN7testing8internal15UnitTestOptions15GetOutputFormatB5cxx11Ev;	.scl	2;	.type	32;	.endef
	.seh_proc	_ZN7testing8internal15UnitTestOptions15GetOutputFormatB5cxx11Ev
_ZN7testing8internal15UnitTestOptions15GetOutputFormatB5cxx11Ev:
	pushq	%rsi
	.seh_pushreg	%rsi
	pushq	%rbx
	.seh_pushreg	%rbx
	subq	$40, %rsp
	.seh_stackalloc	40
	.seh_endprologue
	movq	_ZN7testing18FLAGS_gtest_outputB5cxx11E(%rip), %rsi
	leaq	.LC72(%rip), %rdx
	movq	%rcx, %rbx
	testq	%rsi, %rsi
	je	.L207
	movl	$58, %edx
	movq	%rsi, %rcx
	call	strchr
	movq	%rax, %r8
	testq	%rax, %rax
	jne	.L206
	movq	%rsi, %rdx
.L207:
	movq	%rbx, %rcx
	call	_ZNSt7__cxx1112basic_stringIcSt11char_traitsIcESaIcEEC2EPKcRKS3_.isra.406
	jmp	.L203
.L206:
	leaq	16(%rbx), %rax
	movq	%rsi, %rdx
	movq	%rbx, %rcx
	movq	%rax, (%rbx)
	call	_ZNSt7__cxx1112basic_stringIcSt11char_traitsIcESaIcEE12_M_constructIPKcEEvT_S8_St20forward_iterator_tag.isra.404
.L203:
	movq	%rbx, %rax
	addq	$40, %rsp
	popq	%rbx
	popq	%rsi
	ret
	.seh_endproc
	.section	.text.unlikely._ZN7testing8internal15UnitTestOptions15GetOutputFormatB5cxx11Ev,"x"
.LCOLDE108:
	.section	.text$_ZN7testing8internal15UnitTestOptions15GetOutputFormatB5cxx11Ev,"x"
.LHOTE108:
	.section	.text.unlikely._ZN7testing8internal15UnitTestOptions20PatternMatchesStringEPKcS3_,"x"
	.align 2
.LCOLDB109:
	.section	.text$_ZN7testing8internal15UnitTestOptions20PatternMatchesStringEPKcS3_,"x"
.LHOTB109:
	.align 2
	.globl	_ZN7testing8internal15UnitTestOptions20PatternMatchesStringEPKcS3_
	.def	_ZN7testing8internal15UnitTestOptions20PatternMatchesStringEPKcS3_;	.scl	2;	.type	32;	.endef
	.seh_proc	_ZN7testing8internal15UnitTestOptions20PatternMatchesStringEPKcS3_
_ZN7testing8internal15UnitTestOptions20PatternMatchesStringEPKcS3_:
	pushq	%rsi
	.seh_pushreg	%rsi
	pushq	%rbx
	.seh_pushreg	%rbx
	subq	$40, %rsp
	.seh_stackalloc	40
	.seh_endprologue
	leaq	1(%rcx), %rsi
	movq	%rdx, %rbx
.L209:
	movb	-1(%rsi), %al
	leaq	-1(%rsi), %rcx
	cmpb	$42, %al
	je	.L211
	jg	.L212
	testb	%al, %al
	je	.L213
	jmp	.L210
.L212:
	cmpb	$58, %al
	je	.L213
	cmpb	$63, %al
	je	.L214
	jmp	.L210
.L213:
	cmpb	$0, (%rbx)
	sete	%al
	jmp	.L215
.L214:
	cmpb	$0, (%rbx)
	je	.L218
	jmp	.L225
.L211:
	cmpb	$0, (%rbx)
	jne	.L226
.L216:
	incq	%rsi
	jmp	.L209
.L226:
	leaq	1(%rbx), %rdx
	call	_ZN7testing8internal15UnitTestOptions20PatternMatchesStringEPKcS3_
	testb	%al, %al
	je	.L216
	jmp	.L215
.L210:
	cmpb	(%rbx), %al
	jne	.L218
.L225:
	incq	%rbx
	jmp	.L216
.L218:
	xorl	%eax, %eax
.L215:
	addq	$40, %rsp
	popq	%rbx
	popq	%rsi
	ret
	.seh_endproc
	.section	.text.unlikely._ZN7testing8internal15UnitTestOptions20PatternMatchesStringEPKcS3_,"x"
.LCOLDE109:
	.section	.text$_ZN7testing8internal15UnitTestOptions20PatternMatchesStringEPKcS3_,"x"
.LHOTE109:
	.section	.text.unlikely._ZN7testing8internal15UnitTestOptions13MatchesFilterERKNSt7__cxx1112basic_stringIcSt11char_traitsIcESaIcEEEPKc,"x"
	.align 2
.LCOLDB110:
	.section	.text$_ZN7testing8internal15UnitTestOptions13MatchesFilterERKNSt7__cxx1112basic_stringIcSt11char_traitsIcESaIcEEEPKc,"x"
.LHOTB110:
	.align 2
	.globl	_ZN7testing8internal15UnitTestOptions13MatchesFilterERKNSt7__cxx1112basic_stringIcSt11char_traitsIcESaIcEEEPKc
	.def	_ZN7testing8internal15UnitTestOptions13MatchesFilterERKNSt7__cxx1112basic_stringIcSt11char_traitsIcESaIcEEEPKc;	.scl	2;	.type	32;	.endef
	.seh_proc	_ZN7testing8internal15UnitTestOptions13MatchesFilterERKNSt7__cxx1112basic_stringIcSt11char_traitsIcESaIcEEEPKc
_ZN7testing8internal15UnitTestOptions13MatchesFilterERKNSt7__cxx1112basic_stringIcSt11char_traitsIcESaIcEEEPKc:
	pushq	%rsi
	.seh_pushreg	%rsi
	pushq	%rbx
	.seh_pushreg	%rbx
	subq	$40, %rsp
	.seh_stackalloc	40
	.seh_endprologue
	movq	(%rcx), %rsi
	movq	%rdx, %r8
.L229:
	movq	%rsi, %rdx
	movq	%r8, %rcx
	call	_ZN7testing8internal15UnitTestOptions20PatternMatchesStringEPKcS3_
	movb	%al, %bl
	testb	%al, %al
	jne	.L228
	movl	$58, %edx
	movq	%r8, %rcx
	call	strchr
	testq	%rax, %rax
	je	.L228
	leaq	1(%rax), %r8
	jmp	.L229
.L228:
	movb	%bl, %al
	addq	$40, %rsp
	popq	%rbx
	popq	%rsi
	ret
	.seh_endproc
	.section	.text.unlikely._ZN7testing8internal15UnitTestOptions13MatchesFilterERKNSt7__cxx1112basic_stringIcSt11char_traitsIcESaIcEEEPKc,"x"
.LCOLDE110:
	.section	.text$_ZN7testing8internal15UnitTestOptions13MatchesFilterERKNSt7__cxx1112basic_stringIcSt11char_traitsIcESaIcEEEPKc,"x"
.LHOTE110:
	.section .rdata,"dr"
.LC111:
	.ascii ".\0"
	.section	.text.unlikely._ZN7testing8internal15UnitTestOptions17FilterMatchesTestERKNSt7__cxx1112basic_stringIcSt11char_traitsIcESaIcEEES9_,"x"
	.align 2
.LCOLDB112:
	.section	.text$_ZN7testing8internal15UnitTestOptions17FilterMatchesTestERKNSt7__cxx1112basic_stringIcSt11char_traitsIcESaIcEEES9_,"x"
.LHOTB112:
	.align 2
	.globl	_ZN7testing8internal15UnitTestOptions17FilterMatchesTestERKNSt7__cxx1112basic_stringIcSt11char_traitsIcESaIcEEES9_
	.def	_ZN7testing8internal15UnitTestOptions17FilterMatchesTestERKNSt7__cxx1112basic_stringIcSt11char_traitsIcESaIcEEES9_;	.scl	2;	.type	32;	.endef
	.seh_proc	_ZN7testing8internal15UnitTestOptions17FilterMatchesTestERKNSt7__cxx1112basic_stringIcSt11char_traitsIcESaIcEEES9_
_ZN7testing8internal15UnitTestOptions17FilterMatchesTestERKNSt7__cxx1112basic_stringIcSt11char_traitsIcESaIcEEES9_:
	pushq	%r13
	.seh_pushreg	%r13
	pushq	%r12
	.seh_pushreg	%r12
	pushq	%rbp
	.seh_pushreg	%rbp
	pushq	%rdi
	.seh_pushreg	%rdi
	pushq	%rsi
	.seh_pushreg	%rsi
	pushq	%rbx
	.seh_pushreg	%rbx
	subq	$184, %rsp
	.seh_stackalloc	184
	.seh_endprologue
	movq	(%rdx), %rsi
	leaq	144(%rsp), %rbx
	movq	%rcx, %rdx
	leaq	48(%rsp), %rbp
	movq	%rbx, %rcx
	call	_ZNSt7__cxx1112basic_stringIcSt11char_traitsIcESaIcEEC1ERKS4_
	leaq	.LC111(%rip), %rdx
	movq	%rbx, %rcx
	call	_ZNSt7__cxx1112basic_stringIcSt11char_traitsIcESaIcEE6appendEPKc
	leaq	112(%rsp), %r12
	movq	%rsi, %rdx
	movq	%rbx, %rcx
	call	_ZNSt7__cxx1112basic_stringIcSt11char_traitsIcESaIcEE6appendEPKc
	leaq	80(%rsp), %rsi
	movq	%rbp, %rcx
	movq	%rax, %rdx
	call	_ZNSt7__cxx1112basic_stringIcSt11char_traitsIcESaIcEEC1EOS4_
	movq	%rbx, %rcx
	call	_ZNSt7__cxx1112basic_stringIcSt11char_traitsIcESaIcEE10_M_disposeEv
	movq	_ZN7testing18FLAGS_gtest_filterB5cxx11E(%rip), %r13
	movl	$45, %edx
	movq	%r13, %rcx
	call	strchr
	movb	$0, 96(%rsp)
	movq	%rax, %rdi
	movb	$0, 128(%rsp)
	movq	$0, 88(%rsp)
	leaq	16(%rsi), %rax
	movq	%rax, 80(%rsp)
	leaq	16(%r12), %rax
	movq	%rax, 112(%rsp)
	movq	$0, 120(%rsp)
	testq	%rdi, %rdi
	jne	.L234
	movq	%r13, %rdx
	movq	%rsi, %rcx
	call	_ZNSt7__cxx1112basic_stringIcSt11char_traitsIcESaIcEEaSEPKc
	leaq	.LC72(%rip), %rdx
	movq	%r12, %rcx
	jmp	.L240
.L234:
	leaq	16(%rbx), %rax
	movq	%rdi, %r8
	movq	%r13, %rdx
	movq	%rbx, %rcx
	movq	%rax, 144(%rsp)
	call	_ZNSt7__cxx1112basic_stringIcSt11char_traitsIcESaIcEE12_M_constructIPcEEvT_S7_St20forward_iterator_tag.isra.413
	movq	%rbx, %rdx
	movq	%rsi, %rcx
	call	_ZNSt7__cxx1112basic_stringIcSt11char_traitsIcESaIcEE4swapERS4_
	movq	%rbx, %rcx
	call	_ZNSt7__cxx1112basic_stringIcSt11char_traitsIcESaIcEE10_M_disposeEv
	leaq	1(%rdi), %rdx
	movq	%rbx, %rcx
	call	_ZNSt7__cxx1112basic_stringIcSt11char_traitsIcESaIcEEC2EPKcRKS3_.isra.406
	movq	%rbx, %rdx
	movq	%r12, %rcx
	call	_ZNSt7__cxx1112basic_stringIcSt11char_traitsIcESaIcEE4swapERS4_
	movq	%rbx, %rcx
	call	_ZNSt7__cxx1112basic_stringIcSt11char_traitsIcESaIcEE10_M_disposeEv
	cmpq	$0, 88(%rsp)
	jne	.L235
	leaq	_ZN7testingL16kUniversalFilterE(%rip), %rdx
	movq	%rsi, %rcx
.L240:
	call	_ZNSt7__cxx1112basic_stringIcSt11char_traitsIcESaIcEEaSEPKc
.L235:
	movq	80(%rsp), %rdx
	movq	%rbp, %rcx
	call	_ZN7testing8internal15UnitTestOptions13MatchesFilterERKNSt7__cxx1112basic_stringIcSt11char_traitsIcESaIcEEEPKc
	testb	%al, %al
	je	.L236
	movq	112(%rsp), %rdx
	movq	%rbp, %rcx
	call	_ZN7testing8internal15UnitTestOptions13MatchesFilterERKNSt7__cxx1112basic_stringIcSt11char_traitsIcESaIcEEEPKc
	xorl	$1, %eax
.L236:
	movq	%r12, %rcx
	movb	%al, 47(%rsp)
	call	_ZNSt7__cxx1112basic_stringIcSt11char_traitsIcESaIcEE10_M_disposeEv
	movq	%rsi, %rcx
	call	_ZNSt7__cxx1112basic_stringIcSt11char_traitsIcESaIcEE10_M_disposeEv
	movq	%rbp, %rcx
	call	_ZNSt7__cxx1112basic_stringIcSt11char_traitsIcESaIcEE10_M_disposeEv
	movb	47(%rsp), %al
	addq	$184, %rsp
	popq	%rbx
	popq	%rsi
	popq	%rdi
	popq	%rbp
	popq	%r12
	popq	%r13
	ret
	.seh_endproc
	.section	.text.unlikely._ZN7testing8internal15UnitTestOptions17FilterMatchesTestERKNSt7__cxx1112basic_stringIcSt11char_traitsIcESaIcEEES9_,"x"
.LCOLDE112:
	.section	.text$_ZN7testing8internal15UnitTestOptions17FilterMatchesTestERKNSt7__cxx1112basic_stringIcSt11char_traitsIcESaIcEEES9_,"x"
.LHOTE112:
	.section	.text.unlikely._ZN7testing8internal13GetTestTypeIdEv,"x"
.LCOLDB113:
	.section	.text$_ZN7testing8internal13GetTestTypeIdEv,"x"
.LHOTB113:
	.globl	_ZN7testing8internal13GetTestTypeIdEv
	.def	_ZN7testing8internal13GetTestTypeIdEv;	.scl	2;	.type	32;	.endef
	.seh_proc	_ZN7testing8internal13GetTestTypeIdEv
_ZN7testing8internal13GetTestTypeIdEv:
	.seh_endprologue
	leaq	_ZN7testing8internal12TypeIdHelperINS_4TestEE6dummy_E(%rip), %rax
	ret
	.seh_endproc
	.section	.text.unlikely._ZN7testing8internal13GetTestTypeIdEv,"x"
.LCOLDE113:
	.section	.text$_ZN7testing8internal13GetTestTypeIdEv,"x"
.LHOTE113:
	.section	.text.unlikely._ZN7testing8internal20SingleFailureCheckerC2EPKNS_19TestPartResultArrayENS_14TestPartResult4TypeERKNSt7__cxx1112basic_stringIcSt11char_traitsIcESaIcEEE,"x"
	.align 2
.LCOLDB114:
	.section	.text$_ZN7testing8internal20SingleFailureCheckerC2EPKNS_19TestPartResultArrayENS_14TestPartResult4TypeERKNSt7__cxx1112basic_stringIcSt11char_traitsIcESaIcEEE,"x"
.LHOTB114:
	.align 2
	.globl	_ZN7testing8internal20SingleFailureCheckerC2EPKNS_19TestPartResultArrayENS_14TestPartResult4TypeERKNSt7__cxx1112basic_stringIcSt11char_traitsIcESaIcEEE
	.def	_ZN7testing8internal20SingleFailureCheckerC2EPKNS_19TestPartResultArrayENS_14TestPartResult4TypeERKNSt7__cxx1112basic_stringIcSt11char_traitsIcESaIcEEE;	.scl	2;	.type	32;	.endef
	.seh_proc	_ZN7testing8internal20SingleFailureCheckerC2EPKNS_19TestPartResultArrayENS_14TestPartResult4TypeERKNSt7__cxx1112basic_stringIcSt11char_traitsIcESaIcEEE
_ZN7testing8internal20SingleFailureCheckerC2EPKNS_19TestPartResultArrayENS_14TestPartResult4TypeERKNSt7__cxx1112basic_stringIcSt11char_traitsIcESaIcEEE:
	.seh_endprologue
	movq	%rdx, (%rcx)
	addq	$16, %rcx
	movq	%r9, %rdx
	movl	%r8d, -8(%rcx)
	jmp	_ZNSt7__cxx1112basic_stringIcSt11char_traitsIcESaIcEEC1ERKS4_
	.seh_endproc
	.section	.text.unlikely._ZN7testing8internal20SingleFailureCheckerC2EPKNS_19TestPartResultArrayENS_14TestPartResult4TypeERKNSt7__cxx1112basic_stringIcSt11char_traitsIcESaIcEEE,"x"
.LCOLDE114:
	.section	.text$_ZN7testing8internal20SingleFailureCheckerC2EPKNS_19TestPartResultArrayENS_14TestPartResult4TypeERKNSt7__cxx1112basic_stringIcSt11char_traitsIcESaIcEEE,"x"
.LHOTE114:
	.globl	_ZN7testing8internal20SingleFailureCheckerC1EPKNS_19TestPartResultArrayENS_14TestPartResult4TypeERKNSt7__cxx1112basic_stringIcSt11char_traitsIcESaIcEEE
	.def	_ZN7testing8internal20SingleFailureCheckerC1EPKNS_19TestPartResultArrayENS_14TestPartResult4TypeERKNSt7__cxx1112basic_stringIcSt11char_traitsIcESaIcEEE;	.scl	2;	.type	32;	.endef
	.set	_ZN7testing8internal20SingleFailureCheckerC1EPKNS_19TestPartResultArrayENS_14TestPartResult4TypeERKNSt7__cxx1112basic_stringIcSt11char_traitsIcESaIcEEE,_ZN7testing8internal20SingleFailureCheckerC2EPKNS_19TestPartResultArrayENS_14TestPartResult4TypeERKNSt7__cxx1112basic_stringIcSt11char_traitsIcESaIcEEE
	.section	.text.unlikely._ZN7testing8internal35DefaultGlobalTestPartResultReporterC2EPNS0_12UnitTestImplE,"x"
	.align 2
.LCOLDB115:
	.section	.text$_ZN7testing8internal35DefaultGlobalTestPartResultReporterC2EPNS0_12UnitTestImplE,"x"
.LHOTB115:
	.align 2
	.globl	_ZN7testing8internal35DefaultGlobalTestPartResultReporterC2EPNS0_12UnitTestImplE
	.def	_ZN7testing8internal35DefaultGlobalTestPartResultReporterC2EPNS0_12UnitTestImplE;	.scl	2;	.type	32;	.endef
	.seh_proc	_ZN7testing8internal35DefaultGlobalTestPartResultReporterC2EPNS0_12UnitTestImplE
_ZN7testing8internal35DefaultGlobalTestPartResultReporterC2EPNS0_12UnitTestImplE:
	.seh_endprologue
	leaq	16+_ZTVN7testing8internal35DefaultGlobalTestPartResultReporterE(%rip), %rax
	movq	%rax, (%rcx)
	movq	%rdx, 8(%rcx)
	ret
	.seh_endproc
	.section	.text.unlikely._ZN7testing8internal35DefaultGlobalTestPartResultReporterC2EPNS0_12UnitTestImplE,"x"
.LCOLDE115:
	.section	.text$_ZN7testing8internal35DefaultGlobalTestPartResultReporterC2EPNS0_12UnitTestImplE,"x"
.LHOTE115:
	.globl	_ZN7testing8internal35DefaultGlobalTestPartResultReporterC1EPNS0_12UnitTestImplE
	.def	_ZN7testing8internal35DefaultGlobalTestPartResultReporterC1EPNS0_12UnitTestImplE;	.scl	2;	.type	32;	.endef
	.set	_ZN7testing8internal35DefaultGlobalTestPartResultReporterC1EPNS0_12UnitTestImplE,_ZN7testing8internal35DefaultGlobalTestPartResultReporterC2EPNS0_12UnitTestImplE
	.section	.text.unlikely._ZN7testing8internal38DefaultPerThreadTestPartResultReporterC2EPNS0_12UnitTestImplE,"x"
	.align 2
.LCOLDB116:
	.section	.text$_ZN7testing8internal38DefaultPerThreadTestPartResultReporterC2EPNS0_12UnitTestImplE,"x"
.LHOTB116:
	.align 2
	.globl	_ZN7testing8internal38DefaultPerThreadTestPartResultReporterC2EPNS0_12UnitTestImplE
	.def	_ZN7testing8internal38DefaultPerThreadTestPartResultReporterC2EPNS0_12UnitTestImplE;	.scl	2;	.type	32;	.endef
	.seh_proc	_ZN7testing8internal38DefaultPerThreadTestPartResultReporterC2EPNS0_12UnitTestImplE
_ZN7testing8internal38DefaultPerThreadTestPartResultReporterC2EPNS0_12UnitTestImplE:
	.seh_endprologue
	leaq	16+_ZTVN7testing8internal38DefaultPerThreadTestPartResultReporterE(%rip), %rax
	movq	%rax, (%rcx)
	movq	%rdx, 8(%rcx)
	ret
	.seh_endproc
	.section	.text.unlikely._ZN7testing8internal38DefaultPerThreadTestPartResultReporterC2EPNS0_12UnitTestImplE,"x"
.LCOLDE116:
	.section	.text$_ZN7testing8internal38DefaultPerThreadTestPartResultReporterC2EPNS0_12UnitTestImplE,"x"
.LHOTE116:
	.globl	_ZN7testing8internal38DefaultPerThreadTestPartResultReporterC1EPNS0_12UnitTestImplE
	.def	_ZN7testing8internal38DefaultPerThreadTestPartResultReporterC1EPNS0_12UnitTestImplE;	.scl	2;	.type	32;	.endef
	.set	_ZN7testing8internal38DefaultPerThreadTestPartResultReporterC1EPNS0_12UnitTestImplE,_ZN7testing8internal38DefaultPerThreadTestPartResultReporterC2EPNS0_12UnitTestImplE
	.section	.text.unlikely._ZN7testing8internal12UnitTestImpl31GetGlobalTestPartResultReporterEv,"x"
	.align 2
.LCOLDB117:
	.section	.text$_ZN7testing8internal12UnitTestImpl31GetGlobalTestPartResultReporterEv,"x"
.LHOTB117:
	.align 2
	.globl	_ZN7testing8internal12UnitTestImpl31GetGlobalTestPartResultReporterEv
	.def	_ZN7testing8internal12UnitTestImpl31GetGlobalTestPartResultReporterEv;	.scl	2;	.type	32;	.endef
	.seh_proc	_ZN7testing8internal12UnitTestImpl31GetGlobalTestPartResultReporterEv
_ZN7testing8internal12UnitTestImpl31GetGlobalTestPartResultReporterEv:
	.seh_endprologue
	movq	80(%rcx), %rax
	ret
	.seh_endproc
	.section	.text.unlikely._ZN7testing8internal12UnitTestImpl31GetGlobalTestPartResultReporterEv,"x"
.LCOLDE117:
	.section	.text$_ZN7testing8internal12UnitTestImpl31GetGlobalTestPartResultReporterEv,"x"
.LHOTE117:
	.section	.text.unlikely._ZN7testing8internal12UnitTestImpl31SetGlobalTestPartResultReporterEPNS_31TestPartResultReporterInterfaceE,"x"
	.align 2
.LCOLDB118:
	.section	.text$_ZN7testing8internal12UnitTestImpl31SetGlobalTestPartResultReporterEPNS_31TestPartResultReporterInterfaceE,"x"
.LHOTB118:
	.align 2
	.globl	_ZN7testing8internal12UnitTestImpl31SetGlobalTestPartResultReporterEPNS_31TestPartResultReporterInterfaceE
	.def	_ZN7testing8internal12UnitTestImpl31SetGlobalTestPartResultReporterEPNS_31TestPartResultReporterInterfaceE;	.scl	2;	.type	32;	.endef
	.seh_proc	_ZN7testing8internal12UnitTestImpl31SetGlobalTestPartResultReporterEPNS_31TestPartResultReporterInterfaceE
_ZN7testing8internal12UnitTestImpl31SetGlobalTestPartResultReporterEPNS_31TestPartResultReporterInterfaceE:
	.seh_endprologue
	movq	%rdx, 80(%rcx)
	ret
	.seh_endproc
	.section	.text.unlikely._ZN7testing8internal12UnitTestImpl31SetGlobalTestPartResultReporterEPNS_31TestPartResultReporterInterfaceE,"x"
.LCOLDE118:
	.section	.text$_ZN7testing8internal12UnitTestImpl31SetGlobalTestPartResultReporterEPNS_31TestPartResultReporterInterfaceE,"x"
.LHOTE118:
	.section	.text.unlikely._ZN7testing8internal12UnitTestImpl41GetTestPartResultReporterForCurrentThreadEv,"x"
	.align 2
.LCOLDB119:
	.section	.text$_ZN7testing8internal12UnitTestImpl41GetTestPartResultReporterForCurrentThreadEv,"x"
.LHOTB119:
	.align 2
	.globl	_ZN7testing8internal12UnitTestImpl41GetTestPartResultReporterForCurrentThreadEv
	.def	_ZN7testing8internal12UnitTestImpl41GetTestPartResultReporterForCurrentThreadEv;	.scl	2;	.type	32;	.endef
	.seh_proc	_ZN7testing8internal12UnitTestImpl41GetTestPartResultReporterForCurrentThreadEv
_ZN7testing8internal12UnitTestImpl41GetTestPartResultReporterForCurrentThreadEv:
	.seh_endprologue
	movq	96(%rcx), %rax
	ret
	.seh_endproc
	.section	.text.unlikely._ZN7testing8internal12UnitTestImpl41GetTestPartResultReporterForCurrentThreadEv,"x"
.LCOLDE119:
	.section	.text$_ZN7testing8internal12UnitTestImpl41GetTestPartResultReporterForCurrentThreadEv,"x"
.LHOTE119:
	.section	.text.unlikely._ZN7testing8internal12UnitTestImpl41SetTestPartResultReporterForCurrentThreadEPNS_31TestPartResultReporterInterfaceE,"x"
	.align 2
.LCOLDB120:
	.section	.text$_ZN7testing8internal12UnitTestImpl41SetTestPartResultReporterForCurrentThreadEPNS_31TestPartResultReporterInterfaceE,"x"
.LHOTB120:
	.align 2
	.globl	_ZN7testing8internal12UnitTestImpl41SetTestPartResultReporterForCurrentThreadEPNS_31TestPartResultReporterInterfaceE
	.def	_ZN7testing8internal12UnitTestImpl41SetTestPartResultReporterForCurrentThreadEPNS_31TestPartResultReporterInterfaceE;	.scl	2;	.type	32;	.endef
	.seh_proc	_ZN7testing8internal12UnitTestImpl41SetTestPartResultReporterForCurrentThreadEPNS_31TestPartResultReporterInterfaceE
_ZN7testing8internal12UnitTestImpl41SetTestPartResultReporterForCurrentThreadEPNS_31TestPartResultReporterInterfaceE:
	.seh_endprologue
	movq	%rdx, 96(%rcx)
	ret
	.seh_endproc
	.section	.text.unlikely._ZN7testing8internal12UnitTestImpl41SetTestPartResultReporterForCurrentThreadEPNS_31TestPartResultReporterInterfaceE,"x"
.LCOLDE120:
	.section	.text$_ZN7testing8internal12UnitTestImpl41SetTestPartResultReporterForCurrentThreadEPNS_31TestPartResultReporterInterfaceE,"x"
.LHOTE120:
	.section	.text.unlikely._ZNK7testing8internal12UnitTestImpl21total_test_case_countEv,"x"
	.align 2
.LCOLDB121:
	.section	.text$_ZNK7testing8internal12UnitTestImpl21total_test_case_countEv,"x"
.LHOTB121:
	.align 2
	.globl	_ZNK7testing8internal12UnitTestImpl21total_test_case_countEv
	.def	_ZNK7testing8internal12UnitTestImpl21total_test_case_countEv;	.scl	2;	.type	32;	.endef
	.seh_proc	_ZNK7testing8internal12UnitTestImpl21total_test_case_countEv
_ZNK7testing8internal12UnitTestImpl21total_test_case_countEv:
	.seh_endprologue
	movq	136(%rcx), %rax
	subq	128(%rcx), %rax
	sarq	$3, %rax
	ret
	.seh_endproc
	.section	.text.unlikely._ZNK7testing8internal12UnitTestImpl21total_test_case_countEv,"x"
.LCOLDE121:
	.section	.text$_ZNK7testing8internal12UnitTestImpl21total_test_case_countEv,"x"
.LHOTE121:
	.section	.text.unlikely._ZNK7testing8internal12UnitTestImpl21successful_test_countEv,"x"
	.align 2
.LCOLDB122:
	.section	.text$_ZNK7testing8internal12UnitTestImpl21successful_test_countEv,"x"
.LHOTB122:
	.align 2
	.globl	_ZNK7testing8internal12UnitTestImpl21successful_test_countEv
	.def	_ZNK7testing8internal12UnitTestImpl21successful_test_countEv;	.scl	2;	.type	32;	.endef
	.seh_proc	_ZNK7testing8internal12UnitTestImpl21successful_test_countEv
_ZNK7testing8internal12UnitTestImpl21successful_test_countEv:
	subq	$56, %rsp
	.seh_stackalloc	56
	.seh_endprologue
	leaq	_ZNK7testing8TestCase21successful_test_countEv(%rip), %rax
	leaq	32(%rsp), %rdx
	subq	$-128, %rcx
	movq	%rax, 32(%rsp)
	movq	$0, 40(%rsp)
	call	_ZN7testing8internalL19SumOverTestCaseListERKSt6vectorIPNS_8TestCaseESaIS3_EEMS2_KFivE.constprop.596
	addq	$56, %rsp
	ret
	.seh_endproc
	.section	.text.unlikely._ZNK7testing8internal12UnitTestImpl21successful_test_countEv,"x"
.LCOLDE122:
	.section	.text$_ZNK7testing8internal12UnitTestImpl21successful_test_countEv,"x"
.LHOTE122:
	.section	.text.unlikely._ZNK7testing8internal12UnitTestImpl17failed_test_countEv,"x"
	.align 2
.LCOLDB123:
	.section	.text$_ZNK7testing8internal12UnitTestImpl17failed_test_countEv,"x"
.LHOTB123:
	.align 2
	.globl	_ZNK7testing8internal12UnitTestImpl17failed_test_countEv
	.def	_ZNK7testing8internal12UnitTestImpl17failed_test_countEv;	.scl	2;	.type	32;	.endef
	.seh_proc	_ZNK7testing8internal12UnitTestImpl17failed_test_countEv
_ZNK7testing8internal12UnitTestImpl17failed_test_countEv:
	subq	$56, %rsp
	.seh_stackalloc	56
	.seh_endprologue
	leaq	_ZNK7testing8TestCase17failed_test_countEv(%rip), %rax
	leaq	32(%rsp), %rdx
	subq	$-128, %rcx
	movq	%rax, 32(%rsp)
	movq	$0, 40(%rsp)
	call	_ZN7testing8internalL19SumOverTestCaseListERKSt6vectorIPNS_8TestCaseESaIS3_EEMS2_KFivE.constprop.596
	addq	$56, %rsp
	ret
	.seh_endproc
	.section	.text.unlikely._ZNK7testing8internal12UnitTestImpl17failed_test_countEv,"x"
.LCOLDE123:
	.section	.text$_ZNK7testing8internal12UnitTestImpl17failed_test_countEv,"x"
.LHOTE123:
	.section	.text.unlikely._ZNK7testing8internal12UnitTestImpl30reportable_disabled_test_countEv,"x"
	.align 2
.LCOLDB124:
	.section	.text$_ZNK7testing8internal12UnitTestImpl30reportable_disabled_test_countEv,"x"
.LHOTB124:
	.align 2
	.globl	_ZNK7testing8internal12UnitTestImpl30reportable_disabled_test_countEv
	.def	_ZNK7testing8internal12UnitTestImpl30reportable_disabled_test_countEv;	.scl	2;	.type	32;	.endef
	.seh_proc	_ZNK7testing8internal12UnitTestImpl30reportable_disabled_test_countEv
_ZNK7testing8internal12UnitTestImpl30reportable_disabled_test_countEv:
	subq	$56, %rsp
	.seh_stackalloc	56
	.seh_endprologue
	leaq	_ZNK7testing8TestCase30reportable_disabled_test_countEv(%rip), %rax
	leaq	32(%rsp), %rdx
	subq	$-128, %rcx
	movq	%rax, 32(%rsp)
	movq	$0, 40(%rsp)
	call	_ZN7testing8internalL19SumOverTestCaseListERKSt6vectorIPNS_8TestCaseESaIS3_EEMS2_KFivE.constprop.596
	addq	$56, %rsp
	ret
	.seh_endproc
	.section	.text.unlikely._ZNK7testing8internal12UnitTestImpl30reportable_disabled_test_countEv,"x"
.LCOLDE124:
	.section	.text$_ZNK7testing8internal12UnitTestImpl30reportable_disabled_test_countEv,"x"
.LHOTE124:
	.section	.text.unlikely._ZNK7testing8internal12UnitTestImpl19disabled_test_countEv,"x"
	.align 2
.LCOLDB125:
	.section	.text$_ZNK7testing8internal12UnitTestImpl19disabled_test_countEv,"x"
.LHOTB125:
	.align 2
	.globl	_ZNK7testing8internal12UnitTestImpl19disabled_test_countEv
	.def	_ZNK7testing8internal12UnitTestImpl19disabled_test_countEv;	.scl	2;	.type	32;	.endef
	.seh_proc	_ZNK7testing8internal12UnitTestImpl19disabled_test_countEv
_ZNK7testing8internal12UnitTestImpl19disabled_test_countEv:
	subq	$56, %rsp
	.seh_stackalloc	56
	.seh_endprologue
	leaq	_ZNK7testing8TestCase19disabled_test_countEv(%rip), %rax
	leaq	32(%rsp), %rdx
	subq	$-128, %rcx
	movq	%rax, 32(%rsp)
	movq	$0, 40(%rsp)
	call	_ZN7testing8internalL19SumOverTestCaseListERKSt6vectorIPNS_8TestCaseESaIS3_EEMS2_KFivE.constprop.596
	addq	$56, %rsp
	ret
	.seh_endproc
	.section	.text.unlikely._ZNK7testing8internal12UnitTestImpl19disabled_test_countEv,"x"
.LCOLDE125:
	.section	.text$_ZNK7testing8internal12UnitTestImpl19disabled_test_countEv,"x"
.LHOTE125:
	.section	.text.unlikely._ZNK7testing8internal12UnitTestImpl21reportable_test_countEv,"x"
	.align 2
.LCOLDB126:
	.section	.text$_ZNK7testing8internal12UnitTestImpl21reportable_test_countEv,"x"
.LHOTB126:
	.align 2
	.globl	_ZNK7testing8internal12UnitTestImpl21reportable_test_countEv
	.def	_ZNK7testing8internal12UnitTestImpl21reportable_test_countEv;	.scl	2;	.type	32;	.endef
	.seh_proc	_ZNK7testing8internal12UnitTestImpl21reportable_test_countEv
_ZNK7testing8internal12UnitTestImpl21reportable_test_countEv:
	subq	$56, %rsp
	.seh_stackalloc	56
	.seh_endprologue
	leaq	_ZNK7testing8TestCase21reportable_test_countEv(%rip), %rax
	leaq	32(%rsp), %rdx
	subq	$-128, %rcx
	movq	%rax, 32(%rsp)
	movq	$0, 40(%rsp)
	call	_ZN7testing8internalL19SumOverTestCaseListERKSt6vectorIPNS_8TestCaseESaIS3_EEMS2_KFivE.constprop.596
	addq	$56, %rsp
	ret
	.seh_endproc
	.section	.text.unlikely._ZNK7testing8internal12UnitTestImpl21reportable_test_countEv,"x"
.LCOLDE126:
	.section	.text$_ZNK7testing8internal12UnitTestImpl21reportable_test_countEv,"x"
.LHOTE126:
	.section	.text.unlikely._ZNK7testing8internal12UnitTestImpl16total_test_countEv,"x"
	.align 2
.LCOLDB127:
	.section	.text$_ZNK7testing8internal12UnitTestImpl16total_test_countEv,"x"
.LHOTB127:
	.align 2
	.globl	_ZNK7testing8internal12UnitTestImpl16total_test_countEv
	.def	_ZNK7testing8internal12UnitTestImpl16total_test_countEv;	.scl	2;	.type	32;	.endef
	.seh_proc	_ZNK7testing8internal12UnitTestImpl16total_test_countEv
_ZNK7testing8internal12UnitTestImpl16total_test_countEv:
	subq	$56, %rsp
	.seh_stackalloc	56
	.seh_endprologue
	leaq	_ZNK7testing8TestCase16total_test_countEv(%rip), %rax
	leaq	32(%rsp), %rdx
	subq	$-128, %rcx
	movq	%rax, 32(%rsp)
	movq	$0, 40(%rsp)
	call	_ZN7testing8internalL19SumOverTestCaseListERKSt6vectorIPNS_8TestCaseESaIS3_EEMS2_KFivE.constprop.596
	addq	$56, %rsp
	ret
	.seh_endproc
	.section	.text.unlikely._ZNK7testing8internal12UnitTestImpl16total_test_countEv,"x"
.LCOLDE127:
	.section	.text$_ZNK7testing8internal12UnitTestImpl16total_test_countEv,"x"
.LHOTE127:
	.section	.text.unlikely._ZNK7testing8internal12UnitTestImpl17test_to_run_countEv,"x"
	.align 2
.LCOLDB128:
	.section	.text$_ZNK7testing8internal12UnitTestImpl17test_to_run_countEv,"x"
.LHOTB128:
	.align 2
	.globl	_ZNK7testing8internal12UnitTestImpl17test_to_run_countEv
	.def	_ZNK7testing8internal12UnitTestImpl17test_to_run_countEv;	.scl	2;	.type	32;	.endef
	.seh_proc	_ZNK7testing8internal12UnitTestImpl17test_to_run_countEv
_ZNK7testing8internal12UnitTestImpl17test_to_run_countEv:
	subq	$56, %rsp
	.seh_stackalloc	56
	.seh_endprologue
	leaq	_ZNK7testing8TestCase17test_to_run_countEv(%rip), %rax
	leaq	32(%rsp), %rdx
	subq	$-128, %rcx
	movq	%rax, 32(%rsp)
	movq	$0, 40(%rsp)
	call	_ZN7testing8internalL19SumOverTestCaseListERKSt6vectorIPNS_8TestCaseESaIS3_EEMS2_KFivE.constprop.596
	addq	$56, %rsp
	ret
	.seh_endproc
	.section	.text.unlikely._ZNK7testing8internal12UnitTestImpl17test_to_run_countEv,"x"
.LCOLDE128:
	.section	.text$_ZNK7testing8internal12UnitTestImpl17test_to_run_countEv,"x"
.LHOTE128:
	.section	.text.unlikely._ZN7testing8internal12UnitTestImpl28CurrentOsStackTraceExceptTopB5cxx11Ei,"x"
	.align 2
.LCOLDB129:
	.section	.text$_ZN7testing8internal12UnitTestImpl28CurrentOsStackTraceExceptTopB5cxx11Ei,"x"
.LHOTB129:
	.align 2
	.globl	_ZN7testing8internal12UnitTestImpl28CurrentOsStackTraceExceptTopB5cxx11Ei
	.def	_ZN7testing8internal12UnitTestImpl28CurrentOsStackTraceExceptTopB5cxx11Ei;	.scl	2;	.type	32;	.endef
	.seh_proc	_ZN7testing8internal12UnitTestImpl28CurrentOsStackTraceExceptTopB5cxx11Ei
_ZN7testing8internal12UnitTestImpl28CurrentOsStackTraceExceptTopB5cxx11Ei:
	pushq	%rbx
	.seh_pushreg	%rbx
	subq	$32, %rsp
	.seh_stackalloc	32
	.seh_endprologue
	leaq	.LC72(%rip), %rdx
	movq	%rcx, %rbx
	call	_ZNSt7__cxx1112basic_stringIcSt11char_traitsIcESaIcEEC2EPKcRKS3_.isra.406
	movq	%rbx, %rax
	addq	$32, %rsp
	popq	%rbx
	ret
	.seh_endproc
	.section	.text.unlikely._ZN7testing8internal12UnitTestImpl28CurrentOsStackTraceExceptTopB5cxx11Ei,"x"
.LCOLDE129:
	.section	.text$_ZN7testing8internal12UnitTestImpl28CurrentOsStackTraceExceptTopB5cxx11Ei,"x"
.LHOTE129:
	.section	.text.unlikely._ZN7testing8internal15GetTimeInMillisEv,"x"
.LCOLDB130:
	.section	.text$_ZN7testing8internal15GetTimeInMillisEv,"x"
.LHOTB130:
	.globl	_ZN7testing8internal15GetTimeInMillisEv
	.def	_ZN7testing8internal15GetTimeInMillisEv;	.scl	2;	.type	32;	.endef
	.seh_proc	_ZN7testing8internal15GetTimeInMillisEv
_ZN7testing8internal15GetTimeInMillisEv:
	subq	$56, %rsp
	.seh_stackalloc	56
	.seh_endprologue
	xorl	%edx, %edx
	leaq	40(%rsp), %rcx
	call	gettimeofday
	movslq	40(%rsp), %rax
	movl	$1000, %r8d
	imulq	$1000, %rax, %rcx
	movl	44(%rsp), %eax
	cltd
	idivl	%r8d
	cltq
	addq	%rcx, %rax
	addq	$56, %rsp
	ret
	.seh_endproc
	.section	.text.unlikely._ZN7testing8internal15GetTimeInMillisEv,"x"
.LCOLDE130:
	.section	.text$_ZN7testing8internal15GetTimeInMillisEv,"x"
.LHOTE130:
	.section	.text.unlikely._ZN7testing8internal6String13CStringEqualsEPKcS3_,"x"
	.align 2
.LCOLDB131:
	.section	.text$_ZN7testing8internal6String13CStringEqualsEPKcS3_,"x"
.LHOTB131:
	.align 2
	.globl	_ZN7testing8internal6String13CStringEqualsEPKcS3_
	.def	_ZN7testing8internal6String13CStringEqualsEPKcS3_;	.scl	2;	.type	32;	.endef
	.seh_proc	_ZN7testing8internal6String13CStringEqualsEPKcS3_
_ZN7testing8internal6String13CStringEqualsEPKcS3_:
	subq	$40, %rsp
	.seh_stackalloc	40
	.seh_endprologue
	testq	%rcx, %rcx
	jne	.L260
	testq	%rdx, %rdx
	jmp	.L263
.L260:
	xorl	%eax, %eax
	testq	%rdx, %rdx
	je	.L261
	call	strcmp
	testl	%eax, %eax
.L263:
	sete	%al
.L261:
	addq	$40, %rsp
	ret
	.seh_endproc
	.section	.text.unlikely._ZN7testing8internal6String13CStringEqualsEPKcS3_,"x"
.LCOLDE131:
	.section	.text$_ZN7testing8internal6String13CStringEqualsEPKcS3_,"x"
.LHOTE131:
	.section	.text.unlikely._ZN7testing7MessageC2Ev,"x"
	.align 2
.LCOLDB132:
	.section	.text$_ZN7testing7MessageC2Ev,"x"
.LHOTB132:
	.align 2
	.globl	_ZN7testing7MessageC2Ev
	.def	_ZN7testing7MessageC2Ev;	.scl	2;	.type	32;	.endef
	.seh_proc	_ZN7testing7MessageC2Ev
_ZN7testing7MessageC2Ev:
	pushq	%rsi
	.seh_pushreg	%rsi
	pushq	%rbx
	.seh_pushreg	%rbx
	subq	$40, %rsp
	.seh_stackalloc	40
	.seh_endprologue
	movq	%rcx, %rsi
	movl	$392, %ecx
	call	_Znwy
	movl	$24, %edx
	movq	%rax, %rbx
	movq	%rax, %rcx
	call	_ZNSt7__cxx1118basic_stringstreamIcSt11char_traitsIcESaIcEEC1ESt13_Ios_Openmode
	movq	%rbx, (%rsi)
	leaq	16(%rbx), %rcx
	movl	$17, %edx
	call	_ZStlsIcSt11char_traitsIcEERSt13basic_ostreamIT_T0_ES6_St13_Setprecision
	nop
	addq	$40, %rsp
	popq	%rbx
	popq	%rsi
	ret
	.seh_endproc
	.section	.text.unlikely._ZN7testing7MessageC2Ev,"x"
.LCOLDE132:
	.section	.text$_ZN7testing7MessageC2Ev,"x"
.LHOTE132:
	.globl	_ZN7testing7MessageC1Ev
	.def	_ZN7testing7MessageC1Ev;	.scl	2;	.type	32;	.endef
	.set	_ZN7testing7MessageC1Ev,_ZN7testing7MessageC2Ev
	.section	.text.unlikely._ZN7testing15AssertionResultC2ERKS0_,"x"
	.align 2
.LCOLDB133:
	.section	.text$_ZN7testing15AssertionResultC2ERKS0_,"x"
.LHOTB133:
	.align 2
	.globl	_ZN7testing15AssertionResultC2ERKS0_
	.def	_ZN7testing15AssertionResultC2ERKS0_;	.scl	2;	.type	32;	.endef
	.seh_proc	_ZN7testing15AssertionResultC2ERKS0_
_ZN7testing15AssertionResultC2ERKS0_:
	pushq	%rdi
	.seh_pushreg	%rdi
	pushq	%rsi
	.seh_pushreg	%rsi
	pushq	%rbx
	.seh_pushreg	%rbx
	subq	$32, %rsp
	.seh_stackalloc	32
	.seh_endprologue
	movb	(%rdx), %al
	movq	8(%rdx), %rbx
	movq	%rcx, %rsi
	movb	%al, (%rcx)
	testq	%rbx, %rbx
	je	.L266
	movl	$32, %ecx
	call	_Znwy
	movq	%rbx, %rdx
	movq	%rax, %rdi
	movq	%rax, %rcx
	call	_ZNSt7__cxx1112basic_stringIcSt11char_traitsIcESaIcEEC1ERKS4_
	movq	%rdi, %rbx
.L266:
	movq	%rbx, 8(%rsi)
	addq	$32, %rsp
	popq	%rbx
	popq	%rsi
	popq	%rdi
	ret
	.seh_endproc
	.section	.text.unlikely._ZN7testing15AssertionResultC2ERKS0_,"x"
.LCOLDE133:
	.section	.text$_ZN7testing15AssertionResultC2ERKS0_,"x"
.LHOTE133:
	.globl	_ZN7testing15AssertionResultC1ERKS0_
	.def	_ZN7testing15AssertionResultC1ERKS0_;	.scl	2;	.type	32;	.endef
	.set	_ZN7testing15AssertionResultC1ERKS0_,_ZN7testing15AssertionResultC2ERKS0_
	.section	.text.unlikely._ZN7testing16AssertionSuccessEv,"x"
.LCOLDB134:
	.section	.text$_ZN7testing16AssertionSuccessEv,"x"
.LHOTB134:
	.globl	_ZN7testing16AssertionSuccessEv
	.def	_ZN7testing16AssertionSuccessEv;	.scl	2;	.type	32;	.endef
	.seh_proc	_ZN7testing16AssertionSuccessEv
_ZN7testing16AssertionSuccessEv:
	.seh_endprologue
	movq	%rcx, %rax
	movb	$1, (%rcx)
	movq	$0, 8(%rcx)
	ret
	.seh_endproc
	.section	.text.unlikely._ZN7testing16AssertionSuccessEv,"x"
.LCOLDE134:
	.section	.text$_ZN7testing16AssertionSuccessEv,"x"
.LHOTE134:
	.section	.text.unlikely._ZN7testing16AssertionFailureEv,"x"
.LCOLDB135:
	.section	.text$_ZN7testing16AssertionFailureEv,"x"
.LHOTB135:
	.globl	_ZN7testing16AssertionFailureEv
	.def	_ZN7testing16AssertionFailureEv;	.scl	2;	.type	32;	.endef
	.seh_proc	_ZN7testing16AssertionFailureEv
_ZN7testing16AssertionFailureEv:
	.seh_endprologue
	movq	%rcx, %rax
	movb	$0, (%rcx)
	movq	$0, 8(%rcx)
	ret
	.seh_endproc
	.section	.text.unlikely._ZN7testing16AssertionFailureEv,"x"
.LCOLDE135:
	.section	.text$_ZN7testing16AssertionFailureEv,"x"
.LHOTE135:
	.section	.text.unlikely._ZN7testing8internal6String17WideCStringEqualsEPKwS3_,"x"
	.align 2
.LCOLDB136:
	.section	.text$_ZN7testing8internal6String17WideCStringEqualsEPKwS3_,"x"
.LHOTB136:
	.align 2
	.globl	_ZN7testing8internal6String17WideCStringEqualsEPKwS3_
	.def	_ZN7testing8internal6String17WideCStringEqualsEPKwS3_;	.scl	2;	.type	32;	.endef
	.seh_proc	_ZN7testing8internal6String17WideCStringEqualsEPKwS3_
_ZN7testing8internal6String17WideCStringEqualsEPKwS3_:
	subq	$40, %rsp
	.seh_stackalloc	40
	.seh_endprologue
	testq	%rcx, %rcx
	jne	.L273
	testq	%rdx, %rdx
	jmp	.L276
.L273:
	xorl	%eax, %eax
	testq	%rdx, %rdx
	je	.L274
	call	wcscmp
	testl	%eax, %eax
.L276:
	sete	%al
.L274:
	addq	$40, %rsp
	ret
	.seh_endproc
	.section	.text.unlikely._ZN7testing8internal6String17WideCStringEqualsEPKwS3_,"x"
.LCOLDE136:
	.section	.text$_ZN7testing8internal6String17WideCStringEqualsEPKwS3_,"x"
.LHOTE136:
	.section	.text.unlikely._ZN7testing8internal6String28CaseInsensitiveCStringEqualsEPKcS3_,"x"
	.align 2
.LCOLDB137:
	.section	.text$_ZN7testing8internal6String28CaseInsensitiveCStringEqualsEPKcS3_,"x"
.LHOTB137:
	.align 2
	.globl	_ZN7testing8internal6String28CaseInsensitiveCStringEqualsEPKcS3_
	.def	_ZN7testing8internal6String28CaseInsensitiveCStringEqualsEPKcS3_;	.scl	2;	.type	32;	.endef
	.seh_proc	_ZN7testing8internal6String28CaseInsensitiveCStringEqualsEPKcS3_
_ZN7testing8internal6String28CaseInsensitiveCStringEqualsEPKcS3_:
	subq	$40, %rsp
	.seh_stackalloc	40
	.seh_endprologue
	testq	%rcx, %rcx
	jne	.L278
	testq	%rdx, %rdx
	jmp	.L281
.L278:
	xorl	%eax, %eax
	testq	%rdx, %rdx
	je	.L279
	call	*__imp__stricmp(%rip)
	testl	%eax, %eax
.L281:
	sete	%al
.L279:
	addq	$40, %rsp
	ret
	.seh_endproc
	.section	.text.unlikely._ZN7testing8internal6String28CaseInsensitiveCStringEqualsEPKcS3_,"x"
.LCOLDE137:
	.section	.text$_ZN7testing8internal6String28CaseInsensitiveCStringEqualsEPKcS3_,"x"
.LHOTE137:
	.section	.text.unlikely._ZN7testing8internal6String32CaseInsensitiveWideCStringEqualsEPKwS3_,"x"
	.align 2
.LCOLDB138:
	.section	.text$_ZN7testing8internal6String32CaseInsensitiveWideCStringEqualsEPKwS3_,"x"
.LHOTB138:
	.align 2
	.globl	_ZN7testing8internal6String32CaseInsensitiveWideCStringEqualsEPKwS3_
	.def	_ZN7testing8internal6String32CaseInsensitiveWideCStringEqualsEPKwS3_;	.scl	2;	.type	32;	.endef
	.seh_proc	_ZN7testing8internal6String32CaseInsensitiveWideCStringEqualsEPKwS3_
_ZN7testing8internal6String32CaseInsensitiveWideCStringEqualsEPKwS3_:
	subq	$40, %rsp
	.seh_stackalloc	40
	.seh_endprologue
	testq	%rcx, %rcx
	jne	.L283
	testq	%rdx, %rdx
	jmp	.L286
.L283:
	xorl	%eax, %eax
	testq	%rdx, %rdx
	je	.L284
	call	*__imp__wcsicmp(%rip)
	testl	%eax, %eax
.L286:
	sete	%al
.L284:
	addq	$40, %rsp
	ret
	.seh_endproc
	.section	.text.unlikely._ZN7testing8internal6String32CaseInsensitiveWideCStringEqualsEPKwS3_,"x"
.LCOLDE138:
	.section	.text$_ZN7testing8internal6String32CaseInsensitiveWideCStringEqualsEPKwS3_,"x"
.LHOTE138:
	.section	.text.unlikely._ZN7testing8internal6String23EndsWithCaseInsensitiveERKNSt7__cxx1112basic_stringIcSt11char_traitsIcESaIcEEES9_,"x"
	.align 2
.LCOLDB139:
	.section	.text$_ZN7testing8internal6String23EndsWithCaseInsensitiveERKNSt7__cxx1112basic_stringIcSt11char_traitsIcESaIcEEES9_,"x"
.LHOTB139:
	.align 2
	.globl	_ZN7testing8internal6String23EndsWithCaseInsensitiveERKNSt7__cxx1112basic_stringIcSt11char_traitsIcESaIcEEES9_
	.def	_ZN7testing8internal6String23EndsWithCaseInsensitiveERKNSt7__cxx1112basic_stringIcSt11char_traitsIcESaIcEEES9_;	.scl	2;	.type	32;	.endef
	.seh_proc	_ZN7testing8internal6String23EndsWithCaseInsensitiveERKNSt7__cxx1112basic_stringIcSt11char_traitsIcESaIcEEES9_
_ZN7testing8internal6String23EndsWithCaseInsensitiveERKNSt7__cxx1112basic_stringIcSt11char_traitsIcESaIcEEES9_:
	.seh_endprologue
	movq	8(%rcx), %rax
	movq	8(%rdx), %r8
	cmpq	%r8, %rax
	jb	.L288
	subq	%r8, %rax
	addq	(%rcx), %rax
	movq	(%rdx), %rdx
	movq	%rax, %rcx
	jmp	_ZN7testing8internal6String28CaseInsensitiveCStringEqualsEPKcS3_
.L288:
	xorl	%eax, %eax
	ret
	.seh_endproc
	.section	.text.unlikely._ZN7testing8internal6String23EndsWithCaseInsensitiveERKNSt7__cxx1112basic_stringIcSt11char_traitsIcESaIcEEES9_,"x"
.LCOLDE139:
	.section	.text$_ZN7testing8internal6String23EndsWithCaseInsensitiveERKNSt7__cxx1112basic_stringIcSt11char_traitsIcESaIcEEES9_,"x"
.LHOTE139:
	.section	.text.unlikely._ZN7testing8internal6String15FormatIntWidth2B5cxx11Ei,"x"
	.align 2
.LCOLDB140:
	.section	.text$_ZN7testing8internal6String15FormatIntWidth2B5cxx11Ei,"x"
.LHOTB140:
	.align 2
	.globl	_ZN7testing8internal6String15FormatIntWidth2B5cxx11Ei
	.def	_ZN7testing8internal6String15FormatIntWidth2B5cxx11Ei;	.scl	2;	.type	32;	.endef
	.seh_proc	_ZN7testing8internal6String15FormatIntWidth2B5cxx11Ei
_ZN7testing8internal6String15FormatIntWidth2B5cxx11Ei:
	pushq	%rdi
	.seh_pushreg	%rdi
	pushq	%rsi
	.seh_pushreg	%rsi
	pushq	%rbx
	.seh_pushreg	%rbx
	subq	$432, %rsp
	.seh_stackalloc	432
	.seh_endprologue
	leaq	40(%rsp), %rbx
	movq	%rcx, %rsi
	movl	%edx, %edi
	movq	%rbx, %rcx
	movl	$24, %edx
	call	_ZNSt7__cxx1118basic_stringstreamIcSt11char_traitsIcESaIcEEC1ESt13_Ios_Openmode
	leaq	16(%rbx), %rcx
	movb	$48, %dl
	call	_ZStlsIcSt11char_traitsIcEERSt13basic_ostreamIT_T0_ES6_St8_SetfillIS3_E
	movq	(%rax), %rdx
	movq	%rax, %rcx
	movq	-24(%rdx), %rdx
	movq	$2, 16(%rax,%rdx)
	movl	%edi, %edx
	call	_ZNSolsEi
	leaq	24(%rbx), %rdx
	movq	%rsi, %rcx
	call	_ZNKSt7__cxx1115basic_stringbufIcSt11char_traitsIcESaIcEE3strEv
	movq	%rbx, %rcx
	call	_ZNSt7__cxx1118basic_stringstreamIcSt11char_traitsIcESaIcEED1Ev
	movq	%rsi, %rax
	addq	$432, %rsp
	popq	%rbx
	popq	%rsi
	popq	%rdi
	ret
	.seh_endproc
	.section	.text.unlikely._ZN7testing8internal6String15FormatIntWidth2B5cxx11Ei,"x"
.LCOLDE140:
	.section	.text$_ZN7testing8internal6String15FormatIntWidth2B5cxx11Ei,"x"
.LHOTE140:
	.section	.text.unlikely._ZN7testing8internal6String12FormatHexIntB5cxx11Ei,"x"
	.align 2
.LCOLDB141:
	.section	.text$_ZN7testing8internal6String12FormatHexIntB5cxx11Ei,"x"
.LHOTB141:
	.align 2
	.globl	_ZN7testing8internal6String12FormatHexIntB5cxx11Ei
	.def	_ZN7testing8internal6String12FormatHexIntB5cxx11Ei;	.scl	2;	.type	32;	.endef
	.seh_proc	_ZN7testing8internal6String12FormatHexIntB5cxx11Ei
_ZN7testing8internal6String12FormatHexIntB5cxx11Ei:
	pushq	%rdi
	.seh_pushreg	%rdi
	pushq	%rsi
	.seh_pushreg	%rsi
	pushq	%rbx
	.seh_pushreg	%rbx
	subq	$432, %rsp
	.seh_stackalloc	432
	.seh_endprologue
	leaq	40(%rsp), %rbx
	movq	%rcx, %rsi
	movl	%edx, %edi
	movq	%rbx, %rcx
	movl	$24, %edx
	call	_ZNSt7__cxx1118basic_stringstreamIcSt11char_traitsIcESaIcEEC1ESt13_Ios_Openmode
	leaq	16(%rbx), %rcx
	leaq	_ZSt3hexRSt8ios_base(%rip), %rdx
	call	_ZNSolsEPFRSt8ios_baseS0_E
	leaq	_ZSt9uppercaseRSt8ios_base(%rip), %rdx
	movq	%rax, %rcx
	call	_ZNSolsEPFRSt8ios_baseS0_E
	movl	%edi, %edx
	movq	%rax, %rcx
	call	_ZNSolsEi
	leaq	24(%rbx), %rdx
	movq	%rsi, %rcx
	call	_ZNKSt7__cxx1115basic_stringbufIcSt11char_traitsIcESaIcEE3strEv
	movq	%rbx, %rcx
	call	_ZNSt7__cxx1118basic_stringstreamIcSt11char_traitsIcESaIcEED1Ev
	movq	%rsi, %rax
	addq	$432, %rsp
	popq	%rbx
	popq	%rsi
	popq	%rdi
	ret
	.seh_endproc
	.section	.text.unlikely._ZN7testing8internal6String12FormatHexIntB5cxx11Ei,"x"
.LCOLDE141:
	.section	.text$_ZN7testing8internal6String12FormatHexIntB5cxx11Ei,"x"
.LHOTE141:
	.section	.text.unlikely._ZN7testing8internal6String10FormatByteB5cxx11Eh,"x"
	.align 2
.LCOLDB142:
	.section	.text$_ZN7testing8internal6String10FormatByteB5cxx11Eh,"x"
.LHOTB142:
	.align 2
	.globl	_ZN7testing8internal6String10FormatByteB5cxx11Eh
	.def	_ZN7testing8internal6String10FormatByteB5cxx11Eh;	.scl	2;	.type	32;	.endef
	.seh_proc	_ZN7testing8internal6String10FormatByteB5cxx11Eh
_ZN7testing8internal6String10FormatByteB5cxx11Eh:
	pushq	%rdi
	.seh_pushreg	%rdi
	pushq	%rsi
	.seh_pushreg	%rsi
	pushq	%rbx
	.seh_pushreg	%rbx
	subq	$432, %rsp
	.seh_stackalloc	432
	.seh_endprologue
	leaq	40(%rsp), %rbx
	movq	%rcx, %rdi
	movl	%edx, %esi
	movq	%rbx, %rcx
	movl	$24, %edx
	call	_ZNSt7__cxx1118basic_stringstreamIcSt11char_traitsIcESaIcEEC1ESt13_Ios_Openmode
	leaq	16(%rbx), %rcx
	movb	$48, %dl
	call	_ZStlsIcSt11char_traitsIcEERSt13basic_ostreamIT_T0_ES6_St8_SetfillIS3_E
	movq	(%rax), %rdx
	movq	%rax, %rcx
	movq	-24(%rdx), %rdx
	movq	$2, 16(%rax,%rdx)
	leaq	_ZSt3hexRSt8ios_base(%rip), %rdx
	call	_ZNSolsEPFRSt8ios_baseS0_E
	leaq	_ZSt9uppercaseRSt8ios_base(%rip), %rdx
	movq	%rax, %rcx
	call	_ZNSolsEPFRSt8ios_baseS0_E
	movzbl	%sil, %edx
	movq	%rax, %rcx
	call	_ZNSolsEj
	leaq	24(%rbx), %rdx
	movq	%rdi, %rcx
	call	_ZNKSt7__cxx1115basic_stringbufIcSt11char_traitsIcESaIcEE3strEv
	movq	%rbx, %rcx
	call	_ZNSt7__cxx1118basic_stringstreamIcSt11char_traitsIcESaIcEED1Ev
	movq	%rdi, %rax
	addq	$432, %rsp
	popq	%rbx
	popq	%rsi
	popq	%rdi
	ret
	.seh_endproc
	.section	.text.unlikely._ZN7testing8internal6String10FormatByteB5cxx11Eh,"x"
.LCOLDE142:
	.section	.text$_ZN7testing8internal6String10FormatByteB5cxx11Eh,"x"
.LHOTE142:
	.section .rdata,"dr"
.LC143:
	.ascii "\\0\0"
	.section	.text.unlikely._ZN7testing8internal20StringStreamToStringEPNSt7__cxx1118basic_stringstreamIcSt11char_traitsIcESaIcEEE,"x"
.LCOLDB144:
	.section	.text$_ZN7testing8internal20StringStreamToStringEPNSt7__cxx1118basic_stringstreamIcSt11char_traitsIcESaIcEEE,"x"
.LHOTB144:
	.globl	_ZN7testing8internal20StringStreamToStringEPNSt7__cxx1118basic_stringstreamIcSt11char_traitsIcESaIcEEE
	.def	_ZN7testing8internal20StringStreamToStringEPNSt7__cxx1118basic_stringstreamIcSt11char_traitsIcESaIcEEE;	.scl	2;	.type	32;	.endef
	.seh_proc	_ZN7testing8internal20StringStreamToStringEPNSt7__cxx1118basic_stringstreamIcSt11char_traitsIcESaIcEEE
_ZN7testing8internal20StringStreamToStringEPNSt7__cxx1118basic_stringstreamIcSt11char_traitsIcESaIcEEE:
	pushq	%rbp
	.seh_pushreg	%rbp
	pushq	%rdi
	.seh_pushreg	%rdi
	pushq	%rsi
	.seh_pushreg	%rsi
	pushq	%rbx
	.seh_pushreg	%rbx
	subq	$72, %rsp
	.seh_stackalloc	72
	.seh_endprologue
	leaq	32(%rsp), %rdi
	movq	%rcx, %rbx
	addq	$24, %rdx
	movq	%rdi, %rcx
	call	_ZNKSt7__cxx1115basic_stringbufIcSt11char_traitsIcESaIcEE3strEv
	leaq	16(%rbx), %rax
	movb	$0, 16(%rbx)
	movq	%rbx, %rcx
	movq	40(%rsp), %rdx
	movq	%rax, (%rbx)
	movq	32(%rsp), %rsi
	movq	$0, 8(%rbx)
	leaq	(%rsi,%rdx), %rbp
	addq	%rdx, %rdx
	call	_ZNSt7__cxx1112basic_stringIcSt11char_traitsIcESaIcEE7reserveEy
.L296:
	cmpq	%rbp, %rsi
	je	.L293
	movsbl	(%rsi), %edx
	testb	%dl, %dl
	jne	.L294
	leaq	.LC143(%rip), %rdx
	movq	%rbx, %rcx
	call	_ZNSt7__cxx1112basic_stringIcSt11char_traitsIcESaIcEEpLEPKc
	jmp	.L295
.L294:
	movq	%rbx, %rcx
	call	_ZNSt7__cxx1112basic_stringIcSt11char_traitsIcESaIcEE9push_backEc
.L295:
	incq	%rsi
	jmp	.L296
.L293:
	movq	%rdi, %rcx
	call	_ZNSt7__cxx1112basic_stringIcSt11char_traitsIcESaIcEE10_M_disposeEv
	movq	%rbx, %rax
	addq	$72, %rsp
	popq	%rbx
	popq	%rsi
	popq	%rdi
	popq	%rbp
	ret
	.seh_endproc
	.section	.text.unlikely._ZN7testing8internal20StringStreamToStringEPNSt7__cxx1118basic_stringstreamIcSt11char_traitsIcESaIcEEE,"x"
.LCOLDE144:
	.section	.text$_ZN7testing8internal20StringStreamToStringEPNSt7__cxx1118basic_stringstreamIcSt11char_traitsIcESaIcEEE,"x"
.LHOTE144:
	.section	.text.unlikely._ZNK7testing7Message9GetStringB5cxx11Ev,"x"
	.align 2
.LCOLDB145:
	.section	.text$_ZNK7testing7Message9GetStringB5cxx11Ev,"x"
.LHOTB145:
	.align 2
	.globl	_ZNK7testing7Message9GetStringB5cxx11Ev
	.def	_ZNK7testing7Message9GetStringB5cxx11Ev;	.scl	2;	.type	32;	.endef
	.seh_proc	_ZNK7testing7Message9GetStringB5cxx11Ev
_ZNK7testing7Message9GetStringB5cxx11Ev:
	pushq	%rbx
	.seh_pushreg	%rbx
	subq	$32, %rsp
	.seh_stackalloc	32
	.seh_endprologue
	movq	(%rdx), %rdx
	movq	%rcx, %rbx
	call	_ZN7testing8internal20StringStreamToStringEPNSt7__cxx1118basic_stringstreamIcSt11char_traitsIcESaIcEEE
	movq	%rbx, %rax
	addq	$32, %rsp
	popq	%rbx
	ret
	.seh_endproc
	.section	.text.unlikely._ZNK7testing7Message9GetStringB5cxx11Ev,"x"
.LCOLDE145:
	.section	.text$_ZNK7testing7Message9GetStringB5cxx11Ev,"x"
.LHOTE145:
	.section	.text$_ZN7testinglsERSoRKNS_7MessageE,"x"
	.linkonce discard
.LCOLDB146:
.LHOTB146:
	.globl	_ZN7testinglsERSoRKNS_7MessageE
	.def	_ZN7testinglsERSoRKNS_7MessageE;	.scl	2;	.type	32;	.endef
	.seh_proc	_ZN7testinglsERSoRKNS_7MessageE
_ZN7testinglsERSoRKNS_7MessageE:
	pushq	%rsi
	.seh_pushreg	%rsi
	pushq	%rbx
	.seh_pushreg	%rbx
	subq	$88, %rsp
	.seh_stackalloc	88
	.seh_endprologue
	leaq	48(%rsp), %rbx
	movq	%rcx, %rsi
	movq	%rbx, %rcx
	call	_ZNK7testing7Message9GetStringB5cxx11Ev
	movq	%rbx, %rdx
	movq	%rsi, %rcx
	call	_ZStlsIcSt11char_traitsIcESaIcEERSt13basic_ostreamIT_T0_ES7_RKNSt7__cxx1112basic_stringIS4_S5_T1_EE
	movq	%rbx, %rcx
	movq	%rax, 40(%rsp)
	call	_ZNSt7__cxx1112basic_stringIcSt11char_traitsIcESaIcEE10_M_disposeEv
	movq	40(%rsp), %rax
	addq	$88, %rsp
	popq	%rbx
	popq	%rsi
	ret
	.seh_endproc
.LCOLDE146:
.LHOTE146:
	.section .rdata,"dr"
.LC147:
	.ascii "gtest_\0"
	.section	.text.unlikely._ZN7testing8internalL12FlagToEnvVarEPKc,"x"
.LCOLDB148:
	.section	.text$_ZN7testing8internalL12FlagToEnvVarEPKc,"x"
.LHOTB148:
	.def	_ZN7testing8internalL12FlagToEnvVarEPKc;	.scl	3;	.type	32;	.endef
	.seh_proc	_ZN7testing8internalL12FlagToEnvVarEPKc
_ZN7testing8internalL12FlagToEnvVarEPKc:
	pushq	%rbp
	.seh_pushreg	%rbp
	pushq	%rdi
	.seh_pushreg	%rdi
	pushq	%rsi
	.seh_pushreg	%rsi
	pushq	%rbx
	.seh_pushreg	%rbx
	subq	$88, %rsp
	.seh_stackalloc	88
	.seh_endprologue
	leaq	40(%rsp), %rbx
	movq	%rcx, %rdi
	movq	%rdx, %rsi
	leaq	48(%rsp), %rbp
	movq	%rbx, %rcx
	call	_ZN7testing7MessageC1Ev
	movq	40(%rsp), %rax
	leaq	.LC147(%rip), %rdx
	leaq	16(%rax), %rcx
	call	_ZStlsISt11char_traitsIcEERSt13basic_ostreamIcT_ES5_PKc
	movq	%rsi, %rdx
	movq	%rbx, %rcx
	xorl	%esi, %esi
	call	_ZN7testing7MessagelsIKcEERS0_RKPT_.isra.124
	movq	%rbp, %rcx
	movq	%rax, %rdx
	call	_ZNK7testing7Message9GetStringB5cxx11Ev
	movq	%rbx, %rcx
	call	_ZN7testing8internal10scoped_ptrINSt7__cxx1118basic_stringstreamIcSt11char_traitsIcESaIcEEEED4Ev.isra.155.constprop.639
	movq	%rbx, %rcx
	call	_ZN7testing7MessageC1Ev
.L301:
	cmpq	56(%rsp), %rsi
	je	.L300
	movq	48(%rsp), %rax
	movzbl	(%rax,%rsi), %ecx
	incq	%rsi
	call	*__imp_toupper(%rip)
	movsbl	%al, %edx
	movq	40(%rsp), %rax
	leaq	16(%rax), %rcx
	call	_ZStlsISt11char_traitsIcEERSt13basic_ostreamIcT_ES5_c
	jmp	.L301
.L300:
	movq	%rbx, %rdx
	movq	%rdi, %rcx
	call	_ZNK7testing7Message9GetStringB5cxx11Ev
	movq	%rbx, %rcx
	call	_ZN7testing8internal10scoped_ptrINSt7__cxx1118basic_stringstreamIcSt11char_traitsIcESaIcEEEED4Ev.isra.155.constprop.639
	movq	%rbp, %rcx
	call	_ZNSt7__cxx1112basic_stringIcSt11char_traitsIcESaIcEE10_M_disposeEv
	movq	%rdi, %rax
	addq	$88, %rsp
	popq	%rbx
	popq	%rsi
	popq	%rdi
	popq	%rbp
	ret
	.seh_endproc
	.section	.text.unlikely._ZN7testing8internalL12FlagToEnvVarEPKc,"x"
.LCOLDE148:
	.section	.text$_ZN7testing8internalL12FlagToEnvVarEPKc,"x"
.LHOTE148:
	.section	.text.unlikely._ZN7testing7MessageC4ERKS0_.constprop.611,"x"
	.align 2
.LCOLDB149:
.LHOTB149:
	.align 2
	.def	_ZN7testing7MessageC4ERKS0_.constprop.611;	.scl	3;	.type	32;	.endef
	.seh_proc	_ZN7testing7MessageC4ERKS0_.constprop.611
_ZN7testing7MessageC4ERKS0_.constprop.611:
	pushq	%rdi
	.seh_pushreg	%rdi
	pushq	%rsi
	.seh_pushreg	%rsi
	pushq	%rbx
	.seh_pushreg	%rbx
	subq	$64, %rsp
	.seh_stackalloc	64
	.seh_endprologue
	movq	%rcx, %rsi
	movl	$392, %ecx
	movq	%rdx, %rdi
	call	_Znwy
	movl	$24, %edx
	movq	%rax, %rbx
	movq	%rax, %rcx
	call	_ZNSt7__cxx1118basic_stringstreamIcSt11char_traitsIcESaIcEEC1ESt13_Ios_Openmode
	movq	%rbx, (%rsi)
	leaq	32(%rsp), %rbx
	movq	%rdi, %rdx
	movq	%rbx, %rcx
	call	_ZNK7testing7Message9GetStringB5cxx11Ev
	movq	(%rsi), %rcx
	movq	%rbx, %rdx
	addq	$16, %rcx
	call	_ZStlsIcSt11char_traitsIcESaIcEERSt13basic_ostreamIT_T0_ES7_RKNSt7__cxx1112basic_stringIS4_S5_T1_EE
	movq	%rbx, %rcx
	call	_ZNSt7__cxx1112basic_stringIcSt11char_traitsIcESaIcEE10_M_disposeEv
	nop
	addq	$64, %rsp
	popq	%rbx
	popq	%rsi
	popq	%rdi
	ret
	.seh_endproc
.LCOLDE149:
.LHOTE149:
	.section .rdata,"dr"
.LC150:
	.ascii "\12\0"
	.section	.text.unlikely._ZN7testing8internal17AppendUserMessageERKNSt7__cxx1112basic_stringIcSt11char_traitsIcESaIcEEERKNS_7MessageE,"x"
.LCOLDB151:
	.section	.text$_ZN7testing8internal17AppendUserMessageERKNSt7__cxx1112basic_stringIcSt11char_traitsIcESaIcEEERKNS_7MessageE,"x"
.LHOTB151:
	.globl	_ZN7testing8internal17AppendUserMessageERKNSt7__cxx1112basic_stringIcSt11char_traitsIcESaIcEEERKNS_7MessageE
	.def	_ZN7testing8internal17AppendUserMessageERKNSt7__cxx1112basic_stringIcSt11char_traitsIcESaIcEEERKNS_7MessageE;	.scl	2;	.type	32;	.endef
	.seh_proc	_ZN7testing8internal17AppendUserMessageERKNSt7__cxx1112basic_stringIcSt11char_traitsIcESaIcEEERKNS_7MessageE
_ZN7testing8internal17AppendUserMessageERKNSt7__cxx1112basic_stringIcSt11char_traitsIcESaIcEEERKNS_7MessageE:
	pushq	%rbp
	.seh_pushreg	%rbp
	pushq	%rdi
	.seh_pushreg	%rdi
	pushq	%rsi
	.seh_pushreg	%rsi
	pushq	%rbx
	.seh_pushreg	%rbx
	subq	$104, %rsp
	.seh_stackalloc	104
	.seh_endprologue
	leaq	32(%rsp), %rdi
	movq	%rcx, %rsi
	movq	%rdx, %rbp
	movq	%rdi, %rcx
	movq	%r8, %rdx
	call	_ZNK7testing7Message9GetStringB5cxx11Ev
	cmpq	$0, 40(%rsp)
	jne	.L304
	movq	%rbp, %rdx
	movq	%rsi, %rcx
	call	_ZNSt7__cxx1112basic_stringIcSt11char_traitsIcESaIcEEC1ERKS4_
	jmp	.L305
.L304:
	leaq	64(%rsp), %rbx
	movq	%rbp, %rdx
	movq	%rbx, %rcx
	call	_ZNSt7__cxx1112basic_stringIcSt11char_traitsIcESaIcEEC1ERKS4_
	leaq	.LC150(%rip), %rdx
	movq	%rbx, %rcx
	call	_ZNSt7__cxx1112basic_stringIcSt11char_traitsIcESaIcEE6appendEPKc
	movq	%rdi, %rdx
	movq	%rbx, %rcx
	call	_ZNSt7__cxx1112basic_stringIcSt11char_traitsIcESaIcEE6appendERKS4_
	movq	%rsi, %rcx
	movq	%rax, %rdx
	call	_ZNSt7__cxx1112basic_stringIcSt11char_traitsIcESaIcEEC1EOS4_
	movq	%rbx, %rcx
	call	_ZNSt7__cxx1112basic_stringIcSt11char_traitsIcESaIcEE10_M_disposeEv
.L305:
	movq	%rdi, %rcx
	call	_ZNSt7__cxx1112basic_stringIcSt11char_traitsIcESaIcEE10_M_disposeEv
	movq	%rsi, %rax
	addq	$104, %rsp
	popq	%rbx
	popq	%rsi
	popq	%rdi
	popq	%rbp
	ret
	.seh_endproc
	.section	.text.unlikely._ZN7testing8internal17AppendUserMessageERKNSt7__cxx1112basic_stringIcSt11char_traitsIcESaIcEEERKNS_7MessageE,"x"
.LCOLDE151:
	.section	.text$_ZN7testing8internal17AppendUserMessageERKNSt7__cxx1112basic_stringIcSt11char_traitsIcESaIcEEERKNS_7MessageE,"x"
.LHOTE151:
	.section	.text.unlikely._ZN7testing10TestResultC2Ev,"x"
	.align 2
.LCOLDB152:
	.section	.text$_ZN7testing10TestResultC2Ev,"x"
.LHOTB152:
	.align 2
	.globl	_ZN7testing10TestResultC2Ev
	.def	_ZN7testing10TestResultC2Ev;	.scl	2;	.type	32;	.endef
	.seh_proc	_ZN7testing10TestResultC2Ev
_ZN7testing10TestResultC2Ev:
	.seh_endprologue
	movq	$0, 8(%rcx)
	movq	$0, 16(%rcx)
	movq	$0, 24(%rcx)
	movq	$0, 32(%rcx)
	movq	$0, 40(%rcx)
	movq	$0, 48(%rcx)
	movl	$0, 56(%rcx)
	movq	$0, 64(%rcx)
	ret
	.seh_endproc
	.section	.text.unlikely._ZN7testing10TestResultC2Ev,"x"
.LCOLDE152:
	.section	.text$_ZN7testing10TestResultC2Ev,"x"
.LHOTE152:
	.globl	_ZN7testing10TestResultC1Ev
	.def	_ZN7testing10TestResultC1Ev;	.scl	2;	.type	32;	.endef
	.set	_ZN7testing10TestResultC1Ev,_ZN7testing10TestResultC2Ev
	.section .rdata,"dr"
.LC153:
	.ascii "vector::_M_range_check: __n (which is %zu) >= this->size() (which is %zu)\0"
	.section	.text.unlikely._ZNK7testing10TestResult17GetTestPartResultEi,"x"
	.align 2
.LCOLDB154:
	.section	.text$_ZNK7testing10TestResult17GetTestPartResultEi,"x"
.LHOTB154:
	.align 2
	.globl	_ZNK7testing10TestResult17GetTestPartResultEi
	.def	_ZNK7testing10TestResult17GetTestPartResultEi;	.scl	2;	.type	32;	.endef
	.seh_proc	_ZNK7testing10TestResult17GetTestPartResultEi
_ZNK7testing10TestResult17GetTestPartResultEi:
	subq	$40, %rsp
	.seh_stackalloc	40
	.seh_endprologue
	testl	%edx, %edx
	js	.L308
	movq	8(%rcx), %rax
	movq	16(%rcx), %r8
	movabsq	$7905747460161236407, %rcx
	subq	%rax, %r8
	sarq	$4, %r8
	imulq	%rcx, %r8
	cmpl	%r8d, %edx
	jge	.L308
	movslq	%edx, %rdx
	cmpq	%r8, %rdx
	jb	.L314
	leaq	.LC153(%rip), %rcx
	call	_ZSt24__throw_out_of_range_fmtPKcz
.L308:
	call	abort
.L314:
	imulq	$112, %rdx, %rdx
	addq	%rdx, %rax
	addq	$40, %rsp
	ret
	.seh_endproc
	.section	.text.unlikely._ZNK7testing10TestResult17GetTestPartResultEi,"x"
.LCOLDE154:
	.section	.text$_ZNK7testing10TestResult17GetTestPartResultEi,"x"
.LHOTE154:
	.section	.text.unlikely._ZNK7testing10TestResult15GetTestPropertyEi,"x"
	.align 2
.LCOLDB155:
	.section	.text$_ZNK7testing10TestResult15GetTestPropertyEi,"x"
.LHOTB155:
	.align 2
	.globl	_ZNK7testing10TestResult15GetTestPropertyEi
	.def	_ZNK7testing10TestResult15GetTestPropertyEi;	.scl	2;	.type	32;	.endef
	.seh_proc	_ZNK7testing10TestResult15GetTestPropertyEi
_ZNK7testing10TestResult15GetTestPropertyEi:
	subq	$40, %rsp
	.seh_stackalloc	40
	.seh_endprologue
	testl	%edx, %edx
	js	.L316
	movq	32(%rcx), %rax
	movq	40(%rcx), %r8
	subq	%rax, %r8
	sarq	$6, %r8
	cmpl	%r8d, %edx
	jge	.L316
	movslq	%edx, %rdx
	cmpq	%r8, %rdx
	jb	.L322
	leaq	.LC153(%rip), %rcx
	call	_ZSt24__throw_out_of_range_fmtPKcz
.L316:
	call	abort
.L322:
	salq	$6, %rdx
	addq	%rdx, %rax
	addq	$40, %rsp
	ret
	.seh_endproc
	.section	.text.unlikely._ZNK7testing10TestResult15GetTestPropertyEi,"x"
.LCOLDE155:
	.section	.text$_ZNK7testing10TestResult15GetTestPropertyEi,"x"
.LHOTE155:
	.section	.text.unlikely._ZNK7testing10TestResult6FailedEv,"x"
	.align 2
.LCOLDB156:
	.section	.text$_ZNK7testing10TestResult6FailedEv,"x"
.LHOTB156:
	.align 2
	.globl	_ZNK7testing10TestResult6FailedEv
	.def	_ZNK7testing10TestResult6FailedEv;	.scl	2;	.type	32;	.endef
	.seh_proc	_ZNK7testing10TestResult6FailedEv
_ZNK7testing10TestResult6FailedEv:
	pushq	%rdi
	.seh_pushreg	%rdi
	pushq	%rsi
	.seh_pushreg	%rsi
	pushq	%rbx
	.seh_pushreg	%rbx
	subq	$32, %rsp
	.seh_stackalloc	32
	.seh_endprologue
	xorl	%esi, %esi
	movq	16(%rcx), %rbx
	subq	8(%rcx), %rbx
	movq	%rcx, %rdi
	sarq	$4, %rbx
	imull	$-1227133513, %ebx, %ebx
.L325:
	cmpl	%ebx, %esi
	jge	.L326
	movl	%esi, %edx
	movq	%rdi, %rcx
	call	_ZNK7testing10TestResult17GetTestPartResultEi
	cmpl	$0, (%rax)
	jne	.L327
	incl	%esi
	jmp	.L325
.L326:
	xorl	%eax, %eax
	jmp	.L324
.L327:
	movb	$1, %al
.L324:
	addq	$32, %rsp
	popq	%rbx
	popq	%rsi
	popq	%rdi
	ret
	.seh_endproc
	.section	.text.unlikely._ZNK7testing10TestResult6FailedEv,"x"
.LCOLDE156:
	.section	.text$_ZNK7testing10TestResult6FailedEv,"x"
.LHOTE156:
	.section	.text$_ZN7testing8TestCase10TestFailedEPKNS_8TestInfoE,"x"
	.linkonce discard
.LCOLDB157:
.LHOTB157:
	.globl	_ZN7testing8TestCase10TestFailedEPKNS_8TestInfoE
	.def	_ZN7testing8TestCase10TestFailedEPKNS_8TestInfoE;	.scl	2;	.type	32;	.endef
	.seh_proc	_ZN7testing8TestCase10TestFailedEPKNS_8TestInfoE
_ZN7testing8TestCase10TestFailedEPKNS_8TestInfoE:
	.seh_endprologue
	cmpb	$0, 88(%rcx)
	je	.L329
	addq	$104, %rcx
	jmp	_ZNK7testing10TestResult6FailedEv
.L329:
	xorl	%eax, %eax
	ret
	.seh_endproc
.LCOLDE157:
.LHOTE157:
	.section	.text$_ZN7testing8TestCase10TestPassedEPKNS_8TestInfoE,"x"
	.linkonce discard
.LCOLDB158:
.LHOTB158:
	.globl	_ZN7testing8TestCase10TestPassedEPKNS_8TestInfoE
	.def	_ZN7testing8TestCase10TestPassedEPKNS_8TestInfoE;	.scl	2;	.type	32;	.endef
	.seh_proc	_ZN7testing8TestCase10TestPassedEPKNS_8TestInfoE
_ZN7testing8TestCase10TestPassedEPKNS_8TestInfoE:
	subq	$40, %rsp
	.seh_stackalloc	40
	.seh_endprologue
	xorl	%eax, %eax
	cmpb	$0, 88(%rcx)
	je	.L331
	addq	$104, %rcx
	call	_ZNK7testing10TestResult6FailedEv
	xorl	$1, %eax
.L331:
	addq	$40, %rsp
	ret
	.seh_endproc
.LCOLDE158:
.LHOTE158:
	.section	.text.unlikely._ZNK7testing10TestResult15HasFatalFailureEv,"x"
	.align 2
.LCOLDB159:
	.section	.text$_ZNK7testing10TestResult15HasFatalFailureEv,"x"
.LHOTB159:
	.align 2
	.globl	_ZNK7testing10TestResult15HasFatalFailureEv
	.def	_ZNK7testing10TestResult15HasFatalFailureEv;	.scl	2;	.type	32;	.endef
	.seh_proc	_ZNK7testing10TestResult15HasFatalFailureEv
_ZNK7testing10TestResult15HasFatalFailureEv:
	.seh_endprologue
	xorl	%edx, %edx
	movq	16(%rcx), %r8
	movq	8(%rcx), %rax
.L336:
	cmpq	%rax, %r8
	je	.L334
	xorl	%ecx, %ecx
	cmpl	$2, (%rax)
	sete	%cl
	addq	$112, %rax
	addl	%ecx, %edx
	jmp	.L336
.L334:
	testl	%edx, %edx
	setg	%al
	ret
	.seh_endproc
	.section	.text.unlikely._ZNK7testing10TestResult15HasFatalFailureEv,"x"
.LCOLDE159:
	.section	.text$_ZNK7testing10TestResult15HasFatalFailureEv,"x"
.LHOTE159:
	.section	.text.unlikely._ZNK7testing10TestResult18HasNonfatalFailureEv,"x"
	.align 2
.LCOLDB160:
	.section	.text$_ZNK7testing10TestResult18HasNonfatalFailureEv,"x"
.LHOTB160:
	.align 2
	.globl	_ZNK7testing10TestResult18HasNonfatalFailureEv
	.def	_ZNK7testing10TestResult18HasNonfatalFailureEv;	.scl	2;	.type	32;	.endef
	.seh_proc	_ZNK7testing10TestResult18HasNonfatalFailureEv
_ZNK7testing10TestResult18HasNonfatalFailureEv:
	.seh_endprologue
	xorl	%edx, %edx
	movq	16(%rcx), %r8
	movq	8(%rcx), %rax
.L340:
	cmpq	%rax, %r8
	je	.L338
	xorl	%ecx, %ecx
	cmpl	$1, (%rax)
	sete	%cl
	addq	$112, %rax
	addl	%ecx, %edx
	jmp	.L340
.L338:
	testl	%edx, %edx
	setg	%al
	ret
	.seh_endproc
	.section	.text.unlikely._ZNK7testing10TestResult18HasNonfatalFailureEv,"x"
.LCOLDE160:
	.section	.text$_ZNK7testing10TestResult18HasNonfatalFailureEv,"x"
.LHOTE160:
	.section	.text.unlikely._ZNK7testing10TestResult16total_part_countEv,"x"
	.align 2
.LCOLDB161:
	.section	.text$_ZNK7testing10TestResult16total_part_countEv,"x"
.LHOTB161:
	.align 2
	.globl	_ZNK7testing10TestResult16total_part_countEv
	.def	_ZNK7testing10TestResult16total_part_countEv;	.scl	2;	.type	32;	.endef
	.seh_proc	_ZNK7testing10TestResult16total_part_countEv
_ZNK7testing10TestResult16total_part_countEv:
	.seh_endprologue
	movabsq	$7905747460161236407, %rdx
	movq	16(%rcx), %rax
	subq	8(%rcx), %rax
	sarq	$4, %rax
	imulq	%rdx, %rax
	ret
	.seh_endproc
	.section	.text.unlikely._ZNK7testing10TestResult16total_part_countEv,"x"
.LCOLDE161:
	.section	.text$_ZNK7testing10TestResult16total_part_countEv,"x"
.LHOTE161:
	.section	.text.unlikely._ZNK7testing10TestResult19test_property_countEv,"x"
	.align 2
.LCOLDB162:
	.section	.text$_ZNK7testing10TestResult19test_property_countEv,"x"
.LHOTB162:
	.align 2
	.globl	_ZNK7testing10TestResult19test_property_countEv
	.def	_ZNK7testing10TestResult19test_property_countEv;	.scl	2;	.type	32;	.endef
	.seh_proc	_ZNK7testing10TestResult19test_property_countEv
_ZNK7testing10TestResult19test_property_countEv:
	.seh_endprologue
	movq	40(%rcx), %rax
	subq	32(%rcx), %rax
	sarq	$6, %rax
	ret
	.seh_endproc
	.section	.text.unlikely._ZNK7testing10TestResult19test_property_countEv,"x"
.LCOLDE162:
	.section	.text$_ZNK7testing10TestResult19test_property_countEv,"x"
.LHOTE162:
	.section	.text.unlikely._ZN7testing4TestC2Ev,"x"
	.align 2
.LCOLDB163:
	.section	.text$_ZN7testing4TestC2Ev,"x"
.LHOTB163:
	.align 2
	.globl	_ZN7testing4TestC2Ev
	.def	_ZN7testing4TestC2Ev;	.scl	2;	.type	32;	.endef
	.seh_proc	_ZN7testing4TestC2Ev
_ZN7testing4TestC2Ev:
	pushq	%r14
	.seh_pushreg	%r14
	pushq	%r13
	.seh_pushreg	%r13
	pushq	%r12
	.seh_pushreg	%r12
	pushq	%rbp
	.seh_pushreg	%rbp
	pushq	%rdi
	.seh_pushreg	%rdi
	pushq	%rsi
	.seh_pushreg	%rsi
	pushq	%rbx
	.seh_pushreg	%rbx
	subq	$32, %rsp
	.seh_stackalloc	32
	.seh_endprologue
	leaq	16+_ZTVN7testing4TestE(%rip), %rax
	movq	%rcx, %rsi
	movq	%rax, (%rcx)
	movl	$248, %ecx
	call	_Znwy
	leaq	_ZN7testing17FLAGS_gtest_colorB5cxx11E(%rip), %rdx
	leaq	8(%rax), %rcx
	movq	%rax, %rbx
	leaq	24(%rax), %rax
	movq	$0, 16(%rbx)
	movq	%rax, 8(%rbx)
	leaq	56(%rbx), %rax
	movq	%rax, 40(%rbx)
	leaq	96(%rbx), %rax
	movq	%rax, 80(%rbx)
	leaq	128(%rbx), %rax
	movq	%rax, 112(%rbx)
	leaq	168(%rbx), %rax
	movq	%rax, 152(%rbx)
	leaq	224(%rbx), %rax
	movq	%rax, 208(%rbx)
	movb	_ZN7testing35FLAGS_gtest_also_run_disabled_testsE(%rip), %al
	leaq	40(%rbx), %r14
	movb	$0, 24(%rbx)
	leaq	80(%rbx), %r13
	movq	$0, 48(%rbx)
	leaq	112(%rbx), %r12
	movb	$0, 56(%rbx)
	leaq	152(%rbx), %rbp
	movb	%al, (%rbx)
	movb	_ZN7testing28FLAGS_gtest_break_on_failureE(%rip), %al
	leaq	208(%rbx), %rdi
	movq	$0, 88(%rbx)
	movb	$0, 96(%rbx)
	movq	$0, 120(%rbx)
	movb	%al, 1(%rbx)
	movb	_ZN7testing28FLAGS_gtest_catch_exceptionsE(%rip), %al
	movb	$0, 128(%rbx)
	movq	$0, 160(%rbx)
	movb	$0, 168(%rbx)
	movb	%al, 2(%rbx)
	movq	$0, 216(%rbx)
	movb	$0, 224(%rbx)
	call	_ZNSt7__cxx1112basic_stringIcSt11char_traitsIcESaIcEE9_M_assignERKS4_
	leaq	_ZN7testing28FLAGS_gtest_death_test_styleB5cxx11E(%rip), %rdx
	movq	%r14, %rcx
	call	_ZNSt7__cxx1112basic_stringIcSt11char_traitsIcESaIcEE9_M_assignERKS4_
	movb	_ZN7testing31FLAGS_gtest_death_test_use_forkE(%rip), %al
	movq	%r13, %rcx
	leaq	_ZN7testing18FLAGS_gtest_filterB5cxx11E(%rip), %rdx
	movb	%al, 72(%rbx)
	call	_ZNSt7__cxx1112basic_stringIcSt11char_traitsIcESaIcEE9_M_assignERKS4_
	leaq	_ZN7testing8internal35FLAGS_gtest_internal_run_death_testB5cxx11E(%rip), %rdx
	movq	%r12, %rcx
	call	_ZNSt7__cxx1112basic_stringIcSt11char_traitsIcESaIcEE9_M_assignERKS4_
	movb	_ZN7testing22FLAGS_gtest_list_testsE(%rip), %al
	movq	%rbp, %rcx
	leaq	_ZN7testing18FLAGS_gtest_outputB5cxx11E(%rip), %rdx
	movb	%al, 144(%rbx)
	call	_ZNSt7__cxx1112basic_stringIcSt11char_traitsIcESaIcEE9_M_assignERKS4_
	movb	_ZN7testing22FLAGS_gtest_print_timeE(%rip), %al
	leaq	_ZN7testing28FLAGS_gtest_stream_result_toB5cxx11E(%rip), %rdx
	movq	%rdi, %rcx
	movb	%al, 184(%rbx)
	movl	_ZN7testing23FLAGS_gtest_random_seedE(%rip), %eax
	movl	%eax, 188(%rbx)
	movl	_ZN7testing18FLAGS_gtest_repeatE(%rip), %eax
	movl	%eax, 192(%rbx)
	movb	_ZN7testing19FLAGS_gtest_shuffleE(%rip), %al
	movb	%al, 196(%rbx)
	movl	_ZN7testing29FLAGS_gtest_stack_trace_depthE(%rip), %eax
	movl	%eax, 200(%rbx)
	call	_ZNSt7__cxx1112basic_stringIcSt11char_traitsIcESaIcEE9_M_assignERKS4_
	movb	_ZN7testing28FLAGS_gtest_throw_on_failureE(%rip), %al
	movq	%rbx, 8(%rsi)
	movb	%al, 240(%rbx)
	addq	$32, %rsp
	popq	%rbx
	popq	%rsi
	popq	%rdi
	popq	%rbp
	popq	%r12
	popq	%r13
	popq	%r14
	ret
	.seh_endproc
	.section	.text.unlikely._ZN7testing4TestC2Ev,"x"
.LCOLDE163:
	.section	.text$_ZN7testing4TestC2Ev,"x"
.LHOTE163:
	.globl	_ZN7testing4TestC1Ev
	.def	_ZN7testing4TestC1Ev;	.scl	2;	.type	32;	.endef
	.set	_ZN7testing4TestC1Ev,_ZN7testing4TestC2Ev
	.section	.text.unlikely._ZN7testing4TestD2Ev,"x"
	.align 2
.LCOLDB164:
	.section	.text$_ZN7testing4TestD2Ev,"x"
.LHOTB164:
	.align 2
	.globl	_ZN7testing4TestD2Ev
	.def	_ZN7testing4TestD2Ev;	.scl	2;	.type	32;	.endef
	.seh_proc	_ZN7testing4TestD2Ev
_ZN7testing4TestD2Ev:
	pushq	%r15
	.seh_pushreg	%r15
	pushq	%r14
	.seh_pushreg	%r14
	pushq	%r13
	.seh_pushreg	%r13
	pushq	%r12
	.seh_pushreg	%r12
	pushq	%rbp
	.seh_pushreg	%rbp
	pushq	%rdi
	.seh_pushreg	%rdi
	pushq	%rsi
	.seh_pushreg	%rsi
	pushq	%rbx
	.seh_pushreg	%rbx
	subq	$40, %rsp
	.seh_stackalloc	40
	.seh_endprologue
	leaq	16+_ZTVN7testing4TestE(%rip), %rax
	movq	8(%rcx), %rbx
	movq	%rcx, %rsi
	movq	%rax, (%rcx)
	testq	%rbx, %rbx
	je	.L344
	movb	(%rbx), %al
	leaq	8(%rbx), %rdi
	leaq	40(%rbx), %rbp
	movq	%rdi, %rdx
	leaq	_ZN7testing17FLAGS_gtest_colorB5cxx11E(%rip), %rcx
	leaq	80(%rbx), %r12
	movb	%al, _ZN7testing35FLAGS_gtest_also_run_disabled_testsE(%rip)
	movb	1(%rbx), %al
	leaq	112(%rbx), %r13
	leaq	152(%rbx), %r14
	leaq	208(%rbx), %r15
	movb	%al, _ZN7testing28FLAGS_gtest_break_on_failureE(%rip)
	movb	2(%rbx), %al
	movb	%al, _ZN7testing28FLAGS_gtest_catch_exceptionsE(%rip)
	call	_ZNSt7__cxx1112basic_stringIcSt11char_traitsIcESaIcEE9_M_assignERKS4_
	leaq	_ZN7testing28FLAGS_gtest_death_test_styleB5cxx11E(%rip), %rcx
	movq	%rbp, %rdx
	call	_ZNSt7__cxx1112basic_stringIcSt11char_traitsIcESaIcEE9_M_assignERKS4_
	movb	72(%rbx), %al
	movq	%r12, %rdx
	leaq	_ZN7testing18FLAGS_gtest_filterB5cxx11E(%rip), %rcx
	movb	%al, _ZN7testing31FLAGS_gtest_death_test_use_forkE(%rip)
	call	_ZNSt7__cxx1112basic_stringIcSt11char_traitsIcESaIcEE9_M_assignERKS4_
	leaq	_ZN7testing8internal35FLAGS_gtest_internal_run_death_testB5cxx11E(%rip), %rcx
	movq	%r13, %rdx
	call	_ZNSt7__cxx1112basic_stringIcSt11char_traitsIcESaIcEE9_M_assignERKS4_
	movb	144(%rbx), %al
	movq	%r14, %rdx
	leaq	_ZN7testing18FLAGS_gtest_outputB5cxx11E(%rip), %rcx
	movb	%al, _ZN7testing22FLAGS_gtest_list_testsE(%rip)
	call	_ZNSt7__cxx1112basic_stringIcSt11char_traitsIcESaIcEE9_M_assignERKS4_
	movb	184(%rbx), %al
	movq	%r15, %rdx
	leaq	_ZN7testing28FLAGS_gtest_stream_result_toB5cxx11E(%rip), %rcx
	movb	%al, _ZN7testing22FLAGS_gtest_print_timeE(%rip)
	movl	188(%rbx), %eax
	movl	%eax, _ZN7testing23FLAGS_gtest_random_seedE(%rip)
	movl	192(%rbx), %eax
	movl	%eax, _ZN7testing18FLAGS_gtest_repeatE(%rip)
	movb	196(%rbx), %al
	movb	%al, _ZN7testing19FLAGS_gtest_shuffleE(%rip)
	movl	200(%rbx), %eax
	movl	%eax, _ZN7testing29FLAGS_gtest_stack_trace_depthE(%rip)
	call	_ZNSt7__cxx1112basic_stringIcSt11char_traitsIcESaIcEE9_M_assignERKS4_
	movb	240(%rbx), %al
	movq	%r15, %rcx
	movb	%al, _ZN7testing28FLAGS_gtest_throw_on_failureE(%rip)
	call	_ZNSt7__cxx1112basic_stringIcSt11char_traitsIcESaIcEE10_M_disposeEv
	movq	%r14, %rcx
	call	_ZNSt7__cxx1112basic_stringIcSt11char_traitsIcESaIcEE10_M_disposeEv
	movq	%r13, %rcx
	call	_ZNSt7__cxx1112basic_stringIcSt11char_traitsIcESaIcEE10_M_disposeEv
	movq	%r12, %rcx
	call	_ZNSt7__cxx1112basic_stringIcSt11char_traitsIcESaIcEE10_M_disposeEv
	movq	%rbp, %rcx
	call	_ZNSt7__cxx1112basic_stringIcSt11char_traitsIcESaIcEE10_M_disposeEv
	movq	%rdi, %rcx
	call	_ZNSt7__cxx1112basic_stringIcSt11char_traitsIcESaIcEE10_M_disposeEv
	movq	8(%rsi), %rcx
	addq	$40, %rsp
	popq	%rbx
	popq	%rsi
	popq	%rdi
	popq	%rbp
	popq	%r12
	popq	%r13
	popq	%r14
	popq	%r15
	jmp	_ZdlPv
.L344:
	addq	$40, %rsp
	popq	%rbx
	popq	%rsi
	popq	%rdi
	popq	%rbp
	popq	%r12
	popq	%r13
	popq	%r14
	popq	%r15
	ret
	.seh_endproc
	.section	.text.unlikely._ZN7testing4TestD2Ev,"x"
.LCOLDE164:
	.section	.text$_ZN7testing4TestD2Ev,"x"
.LHOTE164:
	.globl	_ZN7testing4TestD1Ev
	.def	_ZN7testing4TestD1Ev;	.scl	2;	.type	32;	.endef
	.set	_ZN7testing4TestD1Ev,_ZN7testing4TestD2Ev
	.section	.text.unlikely._ZN7testing4TestD0Ev,"x"
	.align 2
.LCOLDB165:
	.section	.text$_ZN7testing4TestD0Ev,"x"
.LHOTB165:
	.align 2
	.globl	_ZN7testing4TestD0Ev
	.def	_ZN7testing4TestD0Ev;	.scl	2;	.type	32;	.endef
	.seh_proc	_ZN7testing4TestD0Ev
_ZN7testing4TestD0Ev:
	pushq	%rbx
	.seh_pushreg	%rbx
	subq	$32, %rsp
	.seh_stackalloc	32
	.seh_endprologue
	movq	%rcx, %rbx
	call	_ZN7testing4TestD1Ev
	movq	%rbx, %rcx
	addq	$32, %rsp
	popq	%rbx
	jmp	_ZdlPv
	.seh_endproc
	.section	.text.unlikely._ZN7testing4TestD0Ev,"x"
.LCOLDE165:
	.section	.text$_ZN7testing4TestD0Ev,"x"
.LHOTE165:
	.section	.text.unlikely._ZN7testing8TestInfoC2ERKNSt7__cxx1112basic_stringIcSt11char_traitsIcESaIcEEES8_PKcSA_PKvPNS_8internal15TestFactoryBaseE,"x"
	.align 2
.LCOLDB166:
	.section	.text$_ZN7testing8TestInfoC2ERKNSt7__cxx1112basic_stringIcSt11char_traitsIcESaIcEEES8_PKcSA_PKvPNS_8internal15TestFactoryBaseE,"x"
.LHOTB166:
	.align 2
	.globl	_ZN7testing8TestInfoC2ERKNSt7__cxx1112basic_stringIcSt11char_traitsIcESaIcEEES8_PKcSA_PKvPNS_8internal15TestFactoryBaseE
	.def	_ZN7testing8TestInfoC2ERKNSt7__cxx1112basic_stringIcSt11char_traitsIcESaIcEEES8_PKcSA_PKvPNS_8internal15TestFactoryBaseE;	.scl	2;	.type	32;	.endef
	.seh_proc	_ZN7testing8TestInfoC2ERKNSt7__cxx1112basic_stringIcSt11char_traitsIcESaIcEEES8_PKcSA_PKvPNS_8internal15TestFactoryBaseE
_ZN7testing8TestInfoC2ERKNSt7__cxx1112basic_stringIcSt11char_traitsIcESaIcEEES8_PKcSA_PKvPNS_8internal15TestFactoryBaseE:
	pushq	%r13
	.seh_pushreg	%r13
	pushq	%r12
	.seh_pushreg	%r12
	pushq	%rbp
	.seh_pushreg	%rbp
	pushq	%rdi
	.seh_pushreg	%rdi
	pushq	%rsi
	.seh_pushreg	%rsi
	pushq	%rbx
	.seh_pushreg	%rbx
	subq	$56, %rsp
	.seh_stackalloc	56
	.seh_endprologue
	xorl	%esi, %esi
	movq	144(%rsp), %rdi
	movq	152(%rsp), %r12
	movq	160(%rsp), %rbp
	movq	%rcx, %rbx
	movq	%r8, 40(%rsp)
	movq	%r9, %r13
	call	_ZNSt7__cxx1112basic_stringIcSt11char_traitsIcESaIcEEC1ERKS4_
	movq	40(%rsp), %r8
	leaq	32(%rbx), %rcx
	movq	%r8, %rdx
	call	_ZNSt7__cxx1112basic_stringIcSt11char_traitsIcESaIcEEC1ERKS4_
	testq	%r13, %r13
	je	.L348
	movl	$32, %ecx
	call	_Znwy
	movq	%r13, %rdx
	movq	%rax, %rcx
	movq	%rax, %rsi
	call	_ZNSt7__cxx1112basic_stringIcSt11char_traitsIcESaIcEEC2EPKcRKS3_.isra.406
.L348:
	movq	%rsi, 64(%rbx)
	xorl	%esi, %esi
	testq	%rdi, %rdi
	je	.L349
	movl	$32, %ecx
	call	_Znwy
	movq	%rdi, %rdx
	movq	%rax, %rcx
	movq	%rax, %rsi
	call	_ZNSt7__cxx1112basic_stringIcSt11char_traitsIcESaIcEEC2EPKcRKS3_.isra.406
.L349:
	leaq	104(%rbx), %rcx
	movq	%rsi, 72(%rbx)
	movq	%r12, 80(%rbx)
	movb	$0, 88(%rbx)
	movb	$0, 89(%rbx)
	movb	$0, 90(%rbx)
	movq	%rbp, 96(%rbx)
	addq	$56, %rsp
	popq	%rbx
	popq	%rsi
	popq	%rdi
	popq	%rbp
	popq	%r12
	popq	%r13
	jmp	_ZN7testing10TestResultC1Ev
	.seh_endproc
	.section	.text.unlikely._ZN7testing8TestInfoC2ERKNSt7__cxx1112basic_stringIcSt11char_traitsIcESaIcEEES8_PKcSA_PKvPNS_8internal15TestFactoryBaseE,"x"
.LCOLDE166:
	.section	.text$_ZN7testing8TestInfoC2ERKNSt7__cxx1112basic_stringIcSt11char_traitsIcESaIcEEES8_PKcSA_PKvPNS_8internal15TestFactoryBaseE,"x"
.LHOTE166:
	.globl	_ZN7testing8TestInfoC1ERKNSt7__cxx1112basic_stringIcSt11char_traitsIcESaIcEEES8_PKcSA_PKvPNS_8internal15TestFactoryBaseE
	.def	_ZN7testing8TestInfoC1ERKNSt7__cxx1112basic_stringIcSt11char_traitsIcESaIcEEES8_PKcSA_PKvPNS_8internal15TestFactoryBaseE;	.scl	2;	.type	32;	.endef
	.set	_ZN7testing8TestInfoC1ERKNSt7__cxx1112basic_stringIcSt11char_traitsIcESaIcEEES8_PKcSA_PKvPNS_8internal15TestFactoryBaseE,_ZN7testing8TestInfoC2ERKNSt7__cxx1112basic_stringIcSt11char_traitsIcESaIcEEES8_PKcSA_PKvPNS_8internal15TestFactoryBaseE
	.section	.text.unlikely._ZN7testing8internal12UnitTestImpl26RegisterParameterizedTestsEv,"x"
	.align 2
.LCOLDB167:
	.section	.text$_ZN7testing8internal12UnitTestImpl26RegisterParameterizedTestsEv,"x"
.LHOTB167:
	.align 2
	.globl	_ZN7testing8internal12UnitTestImpl26RegisterParameterizedTestsEv
	.def	_ZN7testing8internal12UnitTestImpl26RegisterParameterizedTestsEv;	.scl	2;	.type	32;	.endef
	.seh_proc	_ZN7testing8internal12UnitTestImpl26RegisterParameterizedTestsEv
_ZN7testing8internal12UnitTestImpl26RegisterParameterizedTestsEv:
	pushq	%rsi
	.seh_pushreg	%rsi
	pushq	%rbx
	.seh_pushreg	%rbx
	subq	$40, %rsp
	.seh_stackalloc	40
	.seh_endprologue
	cmpb	$0, 200(%rcx)
	movq	%rcx, %rbx
	jne	.L352
	movq	176(%rcx), %rsi
.L355:
	cmpq	%rsi, 184(%rbx)
	je	.L354
	movq	(%rsi), %rcx
	addq	$8, %rsi
	movq	(%rcx), %rax
	call	*32(%rax)
	jmp	.L355
.L354:
	movb	$1, 200(%rbx)
.L352:
	addq	$40, %rsp
	popq	%rbx
	popq	%rsi
	ret
	.seh_endproc
	.section	.text.unlikely._ZN7testing8internal12UnitTestImpl26RegisterParameterizedTestsEv,"x"
.LCOLDE167:
	.section	.text$_ZN7testing8internal12UnitTestImpl26RegisterParameterizedTestsEv,"x"
.LHOTE167:
	.section	.text.unlikely._ZN7testing8TestCaseC2EPKcS2_PFvvES4_,"x"
	.align 2
.LCOLDB168:
	.section	.text$_ZN7testing8TestCaseC2EPKcS2_PFvvES4_,"x"
.LHOTB168:
	.align 2
	.globl	_ZN7testing8TestCaseC2EPKcS2_PFvvES4_
	.def	_ZN7testing8TestCaseC2EPKcS2_PFvvES4_;	.scl	2;	.type	32;	.endef
	.seh_proc	_ZN7testing8TestCaseC2EPKcS2_PFvvES4_
_ZN7testing8TestCaseC2EPKcS2_PFvvES4_:
	pushq	%r12
	.seh_pushreg	%r12
	pushq	%rbp
	.seh_pushreg	%rbp
	pushq	%rdi
	.seh_pushreg	%rdi
	pushq	%rsi
	.seh_pushreg	%rsi
	pushq	%rbx
	.seh_pushreg	%rbx
	subq	$32, %rsp
	.seh_stackalloc	32
	.seh_endprologue
	leaq	16+_ZTVN7testing8TestCaseE(%rip), %rax
	xorl	%esi, %esi
	movq	112(%rsp), %rbp
	movq	%rax, (%rcx)
	movq	%rcx, %rbx
	movq	%r8, %rdi
	movq	%r9, %r12
	leaq	8(%rcx), %rcx
	call	_ZNSt7__cxx1112basic_stringIcSt11char_traitsIcESaIcEEC2EPKcRKS3_.isra.406
	testq	%rdi, %rdi
	je	.L357
	movl	$32, %ecx
	call	_Znwy
	movq	%rdi, %rdx
	movq	%rax, %rcx
	movq	%rax, %rsi
	call	_ZNSt7__cxx1112basic_stringIcSt11char_traitsIcESaIcEEC2EPKcRKS3_.isra.406
.L357:
	leaq	128(%rbx), %rcx
	movq	%rsi, 40(%rbx)
	movq	$0, 48(%rbx)
	movq	$0, 56(%rbx)
	movq	$0, 64(%rbx)
	movq	$0, 72(%rbx)
	movq	$0, 80(%rbx)
	movq	$0, 88(%rbx)
	movq	%r12, 96(%rbx)
	movq	%rbp, 104(%rbx)
	movb	$0, 112(%rbx)
	movq	$0, 120(%rbx)
	addq	$32, %rsp
	popq	%rbx
	popq	%rsi
	popq	%rdi
	popq	%rbp
	popq	%r12
	jmp	_ZN7testing10TestResultC1Ev
	.seh_endproc
	.section	.text.unlikely._ZN7testing8TestCaseC2EPKcS2_PFvvES4_,"x"
.LCOLDE168:
	.section	.text$_ZN7testing8TestCaseC2EPKcS2_PFvvES4_,"x"
.LHOTE168:
	.globl	_ZN7testing8TestCaseC1EPKcS2_PFvvES4_
	.def	_ZN7testing8TestCaseC1EPKcS2_PFvvES4_;	.scl	2;	.type	32;	.endef
	.set	_ZN7testing8TestCaseC1EPKcS2_PFvvES4_,_ZN7testing8TestCaseC2EPKcS2_PFvvES4_
	.section	.text.unlikely._ZN7testing8TestCase14UnshuffleTestsEv,"x"
	.align 2
.LCOLDB169:
	.section	.text$_ZN7testing8TestCase14UnshuffleTestsEv,"x"
.LHOTB169:
	.align 2
	.globl	_ZN7testing8TestCase14UnshuffleTestsEv
	.def	_ZN7testing8TestCase14UnshuffleTestsEv;	.scl	2;	.type	32;	.endef
	.seh_proc	_ZN7testing8TestCase14UnshuffleTestsEv
_ZN7testing8TestCase14UnshuffleTestsEv:
	.seh_endprologue
	xorl	%eax, %eax
	movq	72(%rcx), %r8
	movq	80(%rcx), %rdx
	subq	%r8, %rdx
	sarq	$2, %rdx
.L361:
	cmpq	%rdx, %rax
	je	.L359
	movl	%eax, (%r8,%rax,4)
	incq	%rax
	jmp	.L361
.L359:
	ret
	.seh_endproc
	.section	.text.unlikely._ZN7testing8TestCase14UnshuffleTestsEv,"x"
.LCOLDE169:
	.section	.text$_ZN7testing8TestCase14UnshuffleTestsEv,"x"
.LHOTE169:
	.section	.text.unlikely._ZN7testing8internal17GetColorAttributeENS0_10GTestColorE,"x"
.LCOLDB170:
	.section	.text$_ZN7testing8internal17GetColorAttributeENS0_10GTestColorE,"x"
.LHOTB170:
	.globl	_ZN7testing8internal17GetColorAttributeENS0_10GTestColorE
	.def	_ZN7testing8internal17GetColorAttributeENS0_10GTestColorE;	.scl	2;	.type	32;	.endef
	.seh_proc	_ZN7testing8internal17GetColorAttributeENS0_10GTestColorE
_ZN7testing8internal17GetColorAttributeENS0_10GTestColorE:
	.seh_endprologue
	xorl	%eax, %eax
	decl	%ecx
	cmpl	$2, %ecx
	ja	.L363
	leaq	CSWTCH.1223(%rip), %rax
	movzbl	(%rax,%rcx), %eax
.L363:
	ret
	.seh_endproc
	.section	.text.unlikely._ZN7testing8internal17GetColorAttributeENS0_10GTestColorE,"x"
.LCOLDE170:
	.section	.text$_ZN7testing8internal17GetColorAttributeENS0_10GTestColorE,"x"
.LHOTE170:
	.section .rdata,"dr"
.LC171:
	.ascii "auto\0"
.LC172:
	.ascii "yes\0"
.LC173:
	.ascii "true\0"
.LC174:
	.ascii "t\0"
.LC175:
	.ascii "1\0"
	.section	.text.unlikely._ZN7testing8internal14ShouldUseColorEb,"x"
.LCOLDB176:
	.section	.text$_ZN7testing8internal14ShouldUseColorEb,"x"
.LHOTB176:
	.globl	_ZN7testing8internal14ShouldUseColorEb
	.def	_ZN7testing8internal14ShouldUseColorEb;	.scl	2;	.type	32;	.endef
	.seh_proc	_ZN7testing8internal14ShouldUseColorEb
_ZN7testing8internal14ShouldUseColorEb:
	pushq	%rsi
	.seh_pushreg	%rsi
	pushq	%rbx
	.seh_pushreg	%rbx
	subq	$40, %rsp
	.seh_stackalloc	40
	.seh_endprologue
	movq	_ZN7testing17FLAGS_gtest_colorB5cxx11E(%rip), %rbx
	leaq	.LC171(%rip), %rdx
	movl	%ecx, %esi
	movq	%rbx, %rcx
	call	_ZN7testing8internal6String28CaseInsensitiveCStringEqualsEPKcS3_
	movb	%sil, %cl
	testb	%al, %al
	jne	.L366
	leaq	.LC172(%rip), %rdx
	movq	%rbx, %rcx
	call	_ZN7testing8internal6String28CaseInsensitiveCStringEqualsEPKcS3_
	testb	%al, %al
	je	.L367
.L368:
	movb	$1, %cl
	jmp	.L366
.L367:
	leaq	.LC173(%rip), %rdx
	movq	%rbx, %rcx
	call	_ZN7testing8internal6String28CaseInsensitiveCStringEqualsEPKcS3_
	testb	%al, %al
	jne	.L368
	leaq	.LC174(%rip), %rdx
	movq	%rbx, %rcx
	call	_ZN7testing8internal6String28CaseInsensitiveCStringEqualsEPKcS3_
	testb	%al, %al
	jne	.L368
	leaq	.LC175(%rip), %rdx
	movq	%rbx, %rcx
	addq	$40, %rsp
	popq	%rbx
	popq	%rsi
	jmp	_ZN7testing8internal6String13CStringEqualsEPKcS3_
.L366:
	movb	%cl, %al
	addq	$40, %rsp
	popq	%rbx
	popq	%rsi
	ret
	.seh_endproc
	.section	.text.unlikely._ZN7testing8internal14ShouldUseColorEb,"x"
.LCOLDE176:
	.section	.text$_ZN7testing8internal14ShouldUseColorEb,"x"
.LHOTE176:
	.section	.text.unlikely._ZN7testing8internal13ColoredPrintfENS0_10GTestColorEPKcz,"x"
.LCOLDB177:
	.section	.text$_ZN7testing8internal13ColoredPrintfENS0_10GTestColorEPKcz,"x"
.LHOTB177:
	.globl	_ZN7testing8internal13ColoredPrintfENS0_10GTestColorEPKcz
	.def	_ZN7testing8internal13ColoredPrintfENS0_10GTestColorEPKcz;	.scl	2;	.type	32;	.endef
	.seh_proc	_ZN7testing8internal13ColoredPrintfENS0_10GTestColorEPKcz
_ZN7testing8internal13ColoredPrintfENS0_10GTestColorEPKcz:
	pushq	%r12
	.seh_pushreg	%r12
	pushq	%rbp
	.seh_pushreg	%rbp
	pushq	%rdi
	.seh_pushreg	%rdi
	pushq	%rsi
	.seh_pushreg	%rsi
	pushq	%rbx
	.seh_pushreg	%rbx
	subq	$64, %rsp
	.seh_stackalloc	64
	.seh_endprologue
	cmpb	$0, _ZGVZN7testing8internal13ColoredPrintfENS0_10GTestColorEPKczE13in_color_mode(%rip)
	leaq	128(%rsp), %rax
	movl	%ecx, %ebp
	movq	%rdx, %rdi
	movq	%r8, 128(%rsp)
	movq	%r9, 136(%rsp)
	movq	%rax, 32(%rsp)
	jne	.L371
	call	*__imp___iob_func(%rip)
	leaq	48(%rax), %rcx
	call	*__imp__fileno(%rip)
	movl	%eax, %ecx
	call	*__imp__isatty(%rip)
	xorl	%ecx, %ecx
	testl	%eax, %eax
	setne	%cl
	call	_ZN7testing8internal14ShouldUseColorEb
	movb	$1, _ZGVZN7testing8internal13ColoredPrintfENS0_10GTestColorEPKczE13in_color_mode(%rip)
	movb	%al, _ZZN7testing8internal13ColoredPrintfENS0_10GTestColorEPKczE13in_color_mode(%rip)
.L371:
	cmpb	$0, _ZZN7testing8internal13ColoredPrintfENS0_10GTestColorEPKczE13in_color_mode(%rip)
	je	.L374
	testl	%ebp, %ebp
	jne	.L372
.L374:
	movq	32(%rsp), %rdx
	movq	%rdi, %rcx
	call	__mingw_vprintf
	jmp	.L370
.L372:
	movl	$-11, %ecx
	call	*__imp_GetStdHandle(%rip)
	leaq	42(%rsp), %rdx
	movq	%rax, %rbx
	movq	%rax, %rcx
	call	*__imp_GetConsoleScreenBufferInfo(%rip)
	movw	50(%rsp), %si
	movq	__imp___iob_func(%rip), %r12
	call	*%r12
	leaq	48(%rax), %rcx
	call	fflush
	movl	%ebp, %ecx
	call	_ZN7testing8internal17GetColorAttributeENS0_10GTestColorE
	movq	%rbx, %rcx
	movq	__imp_SetConsoleTextAttribute(%rip), %rbp
	orl	$8, %eax
	movzwl	%ax, %edx
	call	*%rbp
	movq	32(%rsp), %rdx
	movq	%rdi, %rcx
	call	__mingw_vprintf
	call	*%r12
	leaq	48(%rax), %rcx
	call	fflush
	movzwl	%si, %edx
	movq	%rbx, %rcx
	call	*%rbp
	nop
.L370:
	addq	$64, %rsp
	popq	%rbx
	popq	%rsi
	popq	%rdi
	popq	%rbp
	popq	%r12
	ret
	.seh_endproc
	.section	.text.unlikely._ZN7testing8internal13ColoredPrintfENS0_10GTestColorEPKcz,"x"
.LCOLDE177:
	.section	.text$_ZN7testing8internal13ColoredPrintfENS0_10GTestColorEPKcz,"x"
.LHOTE177:
	.section .rdata,"dr"
.LC178:
	.ascii "[----------] \0"
.LC179:
	.ascii "Global test environment set-up.\12\0"
	.section	.text.unlikely._ZN7testing8internal27PrettyUnitTestResultPrinter24OnEnvironmentsSetUpStartERKNS_8UnitTestE,"x"
	.align 2
.LCOLDB180:
	.section	.text$_ZN7testing8internal27PrettyUnitTestResultPrinter24OnEnvironmentsSetUpStartERKNS_8UnitTestE,"x"
.LHOTB180:
	.align 2
	.globl	_ZN7testing8internal27PrettyUnitTestResultPrinter24OnEnvironmentsSetUpStartERKNS_8UnitTestE
	.def	_ZN7testing8internal27PrettyUnitTestResultPrinter24OnEnvironmentsSetUpStartERKNS_8UnitTestE;	.scl	2;	.type	32;	.endef
	.seh_proc	_ZN7testing8internal27PrettyUnitTestResultPrinter24OnEnvironmentsSetUpStartERKNS_8UnitTestE
_ZN7testing8internal27PrettyUnitTestResultPrinter24OnEnvironmentsSetUpStartERKNS_8UnitTestE:
	subq	$40, %rsp
	.seh_stackalloc	40
	.seh_endprologue
	leaq	.LC178(%rip), %rdx
	movl	$2, %ecx
	call	_ZN7testing8internal13ColoredPrintfENS0_10GTestColorEPKcz
	leaq	.LC179(%rip), %rcx
	call	_ZL6printfPKcz
	call	*__imp___iob_func(%rip)
	leaq	48(%rax), %rcx
	addq	$40, %rsp
	jmp	fflush
	.seh_endproc
	.section	.text.unlikely._ZN7testing8internal27PrettyUnitTestResultPrinter24OnEnvironmentsSetUpStartERKNS_8UnitTestE,"x"
.LCOLDE180:
	.section	.text$_ZN7testing8internal27PrettyUnitTestResultPrinter24OnEnvironmentsSetUpStartERKNS_8UnitTestE,"x"
.LHOTE180:
	.section .rdata,"dr"
.LC181:
	.ascii "Global test environment tear-down\12\0"
	.section	.text.unlikely._ZN7testing8internal27PrettyUnitTestResultPrinter27OnEnvironmentsTearDownStartERKNS_8UnitTestE,"x"
	.align 2
.LCOLDB182:
	.section	.text$_ZN7testing8internal27PrettyUnitTestResultPrinter27OnEnvironmentsTearDownStartERKNS_8UnitTestE,"x"
.LHOTB182:
	.align 2
	.globl	_ZN7testing8internal27PrettyUnitTestResultPrinter27OnEnvironmentsTearDownStartERKNS_8UnitTestE
	.def	_ZN7testing8internal27PrettyUnitTestResultPrinter27OnEnvironmentsTearDownStartERKNS_8UnitTestE;	.scl	2;	.type	32;	.endef
	.seh_proc	_ZN7testing8internal27PrettyUnitTestResultPrinter27OnEnvironmentsTearDownStartERKNS_8UnitTestE
_ZN7testing8internal27PrettyUnitTestResultPrinter27OnEnvironmentsTearDownStartERKNS_8UnitTestE:
	subq	$40, %rsp
	.seh_stackalloc	40
	.seh_endprologue
	leaq	.LC178(%rip), %rdx
	movl	$2, %ecx
	call	_ZN7testing8internal13ColoredPrintfENS0_10GTestColorEPKcz
	leaq	.LC181(%rip), %rcx
	call	_ZL6printfPKcz
	call	*__imp___iob_func(%rip)
	leaq	48(%rax), %rcx
	addq	$40, %rsp
	jmp	fflush
	.seh_endproc
	.section	.text.unlikely._ZN7testing8internal27PrettyUnitTestResultPrinter27OnEnvironmentsTearDownStartERKNS_8UnitTestE,"x"
.LCOLDE182:
	.section	.text$_ZN7testing8internal27PrettyUnitTestResultPrinter27OnEnvironmentsTearDownStartERKNS_8UnitTestE,"x"
.LHOTE182:
	.section .rdata,"dr"
.LC183:
	.ascii "[ RUN      ] \0"
.LC184:
	.ascii "%s.%s\0"
	.section	.text.unlikely._ZN7testing8internal27PrettyUnitTestResultPrinter11OnTestStartERKNS_8TestInfoE,"x"
	.align 2
.LCOLDB185:
	.section	.text$_ZN7testing8internal27PrettyUnitTestResultPrinter11OnTestStartERKNS_8TestInfoE,"x"
.LHOTB185:
	.align 2
	.globl	_ZN7testing8internal27PrettyUnitTestResultPrinter11OnTestStartERKNS_8TestInfoE
	.def	_ZN7testing8internal27PrettyUnitTestResultPrinter11OnTestStartERKNS_8TestInfoE;	.scl	2;	.type	32;	.endef
	.seh_proc	_ZN7testing8internal27PrettyUnitTestResultPrinter11OnTestStartERKNS_8TestInfoE
_ZN7testing8internal27PrettyUnitTestResultPrinter11OnTestStartERKNS_8TestInfoE:
	pushq	%rbx
	.seh_pushreg	%rbx
	subq	$32, %rsp
	.seh_stackalloc	32
	.seh_endprologue
	movl	$2, %ecx
	movq	%rdx, %rbx
	leaq	.LC183(%rip), %rdx
	call	_ZN7testing8internal13ColoredPrintfENS0_10GTestColorEPKcz
	movq	(%rbx), %rdx
	leaq	.LC184(%rip), %rcx
	movq	32(%rbx), %r8
	call	_ZL6printfPKcz
	leaq	.LC150(%rip), %rcx
	call	_ZL6printfPKcz
	call	*__imp___iob_func(%rip)
	leaq	48(%rax), %rcx
	addq	$32, %rsp
	popq	%rbx
	jmp	fflush
	.seh_endproc
	.section	.text.unlikely._ZN7testing8internal27PrettyUnitTestResultPrinter11OnTestStartERKNS_8TestInfoE,"x"
.LCOLDE185:
	.section	.text$_ZN7testing8internal27PrettyUnitTestResultPrinter11OnTestStartERKNS_8TestInfoE,"x"
.LHOTE185:
	.section .rdata,"dr"
.LC186:
	.ascii "%s\0"
.LC187:
	.ascii "@\0"
	.section	.text.unlikely._ZN7testing8internalL17PrintColorEncodedEPKc.constprop.602,"x"
.LCOLDB188:
	.section	.text$_ZN7testing8internalL17PrintColorEncodedEPKc.constprop.602,"x"
.LHOTB188:
	.def	_ZN7testing8internalL17PrintColorEncodedEPKc.constprop.602;	.scl	3;	.type	32;	.endef
	.seh_proc	_ZN7testing8internalL17PrintColorEncodedEPKc.constprop.602
_ZN7testing8internalL17PrintColorEncodedEPKc.constprop.602:
	pushq	%r12
	.seh_pushreg	%r12
	pushq	%rbp
	.seh_pushreg	%rbp
	pushq	%rdi
	.seh_pushreg	%rdi
	pushq	%rsi
	.seh_pushreg	%rsi
	pushq	%rbx
	.seh_pushreg	%rbx
	subq	$64, %rsp
	.seh_stackalloc	64
	.seh_endprologue
	leaq	_ZN7testing8internalL24kColorEncodedHelpMessageE(%rip), %rsi
	xorl	%ebx, %ebx
	leaq	32(%rsp), %rbp
	leaq	16(%rbp), %r12
.L380:
	movl	$64, %edx
	movq	%rsi, %rcx
	call	strchr
	movq	%rax, %rdi
	testq	%rax, %rax
	jne	.L381
	leaq	.LC186(%rip), %rdx
	movq	%rsi, %r8
	movl	%ebx, %ecx
	call	_ZN7testing8internal13ColoredPrintfENS0_10GTestColorEPKcz
	nop
	addq	$64, %rsp
	popq	%rbx
	popq	%rsi
	popq	%rdi
	popq	%rbp
	popq	%r12
	ret
.L381:
	movq	%rax, %r8
	movq	%rsi, %rdx
	movq	%rbp, %rcx
	movq	%r12, 32(%rsp)
	call	_ZNSt7__cxx1112basic_stringIcSt11char_traitsIcESaIcEE12_M_constructIPcEEvT_S7_St20forward_iterator_tag.isra.413
	movq	32(%rsp), %r8
	leaq	2(%rdi), %rsi
	movl	%ebx, %ecx
	leaq	.LC186(%rip), %rdx
	call	_ZN7testing8internal13ColoredPrintfENS0_10GTestColorEPKcz
	movq	%rbp, %rcx
	call	_ZNSt7__cxx1112basic_stringIcSt11char_traitsIcESaIcEE10_M_disposeEv
	movb	1(%rdi), %al
	cmpb	$64, %al
	jne	.L382
	leaq	.LC187(%rip), %rdx
	movl	%ebx, %ecx
	call	_ZN7testing8internal13ColoredPrintfENS0_10GTestColorEPKcz
	jmp	.L380
.L382:
	cmpb	$68, %al
	jne	.L389
	xorl	%ebx, %ebx
	jmp	.L380
.L389:
	cmpb	$82, %al
	jne	.L390
	movl	$1, %ebx
	jmp	.L380
.L390:
	cmpb	$71, %al
	jne	.L391
	movl	$2, %ebx
	jmp	.L380
.L391:
	cmpb	$89, %al
	jne	.L392
	movl	$3, %ebx
	jmp	.L380
.L392:
	leaq	1(%rdi), %rsi
	jmp	.L380
	.seh_endproc
	.section	.text.unlikely._ZN7testing8internalL17PrintColorEncodedEPKc.constprop.602,"x"
.LCOLDE188:
	.section	.text$_ZN7testing8internalL17PrintColorEncodedEPKc.constprop.602,"x"
.LHOTE188:
	.section .rdata,"dr"
.LC189:
	.ascii ", where \0"
.LC190:
	.ascii "%s = %s\0"
.LC191:
	.ascii " and \0"
	.section	.text.unlikely._ZN7testing8internal29PrintFullTestCommentIfPresentERKNS_8TestInfoE,"x"
.LCOLDB192:
	.section	.text$_ZN7testing8internal29PrintFullTestCommentIfPresentERKNS_8TestInfoE,"x"
.LHOTB192:
	.globl	_ZN7testing8internal29PrintFullTestCommentIfPresentERKNS_8TestInfoE
	.def	_ZN7testing8internal29PrintFullTestCommentIfPresentERKNS_8TestInfoE;	.scl	2;	.type	32;	.endef
	.seh_proc	_ZN7testing8internal29PrintFullTestCommentIfPresentERKNS_8TestInfoE
_ZN7testing8internal29PrintFullTestCommentIfPresentERKNS_8TestInfoE:
	pushq	%rbx
	.seh_pushreg	%rbx
	subq	$48, %rsp
	.seh_stackalloc	48
	.seh_endprologue
	xorl	%r8d, %r8d
	movq	64(%rcx), %rax
	testq	%rax, %rax
	je	.L394
	movq	(%rax), %r8
.L394:
	movq	72(%rcx), %rax
	xorl	%ebx, %ebx
	testq	%rax, %rax
	je	.L395
	movq	(%rax), %rbx
.L395:
	testq	%r8, %r8
	jne	.L396
	testq	%rbx, %rbx
	je	.L393
.L396:
	leaq	.LC189(%rip), %rcx
	movq	%r8, 40(%rsp)
	call	_ZL6printfPKcz
	movq	40(%rsp), %r8
	testq	%r8, %r8
	je	.L398
	leaq	_ZN7testing8internalL15kTypeParamLabelE(%rip), %rdx
	leaq	.LC190(%rip), %rcx
	call	_ZL6printfPKcz
	testq	%rbx, %rbx
	je	.L393
	leaq	.LC191(%rip), %rcx
	call	_ZL6printfPKcz
	jmp	.L400
.L398:
	testq	%rbx, %rbx
	je	.L393
.L400:
	leaq	_ZN7testing8internalL16kValueParamLabelE(%rip), %rdx
	movq	%rbx, %r8
	leaq	.LC190(%rip), %rcx
	addq	$48, %rsp
	popq	%rbx
	jmp	_ZL6printfPKcz
.L393:
	addq	$48, %rsp
	popq	%rbx
	ret
	.seh_endproc
	.section	.text.unlikely._ZN7testing8internal29PrintFullTestCommentIfPresentERKNS_8TestInfoE,"x"
.LCOLDE192:
	.section	.text$_ZN7testing8internal29PrintFullTestCommentIfPresentERKNS_8TestInfoE,"x"
.LHOTE192:
	.section	.text$_ZN7testing8internal24XmlUnitTestResultPrinter19IsValidXmlCharacterEc,"x"
	.linkonce discard
.LCOLDB193:
.LHOTB193:
	.globl	_ZN7testing8internal24XmlUnitTestResultPrinter19IsValidXmlCharacterEc
	.def	_ZN7testing8internal24XmlUnitTestResultPrinter19IsValidXmlCharacterEc;	.scl	2;	.type	32;	.endef
	.seh_proc	_ZN7testing8internal24XmlUnitTestResultPrinter19IsValidXmlCharacterEc
_ZN7testing8internal24XmlUnitTestResultPrinter19IsValidXmlCharacterEc:
	.seh_endprologue
	cmpb	$31, %cl
	setg	%dl
	cmpb	$13, %cl
	sete	%al
	subl	$9, %ecx
	orl	%edx, %eax
	cmpb	$1, %cl
	setbe	%dl
	orl	%edx, %eax
	ret
	.seh_endproc
.LCOLDE193:
.LHOTE193:
	.section .rdata,"dr"
.LC194:
	.ascii "XML output file may not be null\12\0"
	.section	.text.unlikely._ZN7testing8internal24XmlUnitTestResultPrinterC2EPKc,"x"
	.align 2
.LCOLDB195:
	.section	.text$_ZN7testing8internal24XmlUnitTestResultPrinterC2EPKc,"x"
.LHOTB195:
	.align 2
	.globl	_ZN7testing8internal24XmlUnitTestResultPrinterC2EPKc
	.def	_ZN7testing8internal24XmlUnitTestResultPrinterC2EPKc;	.scl	2;	.type	32;	.endef
	.seh_proc	_ZN7testing8internal24XmlUnitTestResultPrinterC2EPKc
_ZN7testing8internal24XmlUnitTestResultPrinterC2EPKc:
	pushq	%rbx
	.seh_pushreg	%rbx
	subq	$32, %rsp
	.seh_stackalloc	32
	.seh_endprologue
	leaq	16+_ZTVN7testing8internal24XmlUnitTestResultPrinterE(%rip), %rax
	movq	%rcx, %rbx
	movq	%rax, (%rcx)
	leaq	8(%rcx), %rcx
	call	_ZNSt7__cxx1112basic_stringIcSt11char_traitsIcESaIcEEC2EPKcRKS3_.isra.406
	cmpq	$0, 8(%rbx)
	je	.L411
	cmpq	$0, 16(%rbx)
	jne	.L412
.L411:
	movq	__imp___iob_func(%rip), %rbx
	call	*%rbx
	leaq	.LC194(%rip), %rdx
	leaq	96(%rax), %rcx
	call	_ZL7fprintfP6_iobufPKcz
	call	*%rbx
	leaq	96(%rax), %rcx
	call	fflush
	movl	$1, %ecx
	call	exit
	nop
.L412:
	addq	$32, %rsp
	popq	%rbx
	ret
	.seh_endproc
	.section	.text.unlikely._ZN7testing8internal24XmlUnitTestResultPrinterC2EPKc,"x"
.LCOLDE195:
	.section	.text$_ZN7testing8internal24XmlUnitTestResultPrinterC2EPKc,"x"
.LHOTE195:
	.globl	_ZN7testing8internal24XmlUnitTestResultPrinterC1EPKc
	.def	_ZN7testing8internal24XmlUnitTestResultPrinterC1EPKc;	.scl	2;	.type	32;	.endef
	.set	_ZN7testing8internal24XmlUnitTestResultPrinterC1EPKc,_ZN7testing8internal24XmlUnitTestResultPrinterC2EPKc
	.section	.text.unlikely._ZN7testing8internal24XmlUnitTestResultPrinter26RemoveInvalidXmlCharactersERKNSt7__cxx1112basic_stringIcSt11char_traitsIcESaIcEEE,"x"
	.align 2
.LCOLDB196:
	.section	.text$_ZN7testing8internal24XmlUnitTestResultPrinter26RemoveInvalidXmlCharactersERKNSt7__cxx1112basic_stringIcSt11char_traitsIcESaIcEEE,"x"
.LHOTB196:
	.align 2
	.globl	_ZN7testing8internal24XmlUnitTestResultPrinter26RemoveInvalidXmlCharactersERKNSt7__cxx1112basic_stringIcSt11char_traitsIcESaIcEEE
	.def	_ZN7testing8internal24XmlUnitTestResultPrinter26RemoveInvalidXmlCharactersERKNSt7__cxx1112basic_stringIcSt11char_traitsIcESaIcEEE;	.scl	2;	.type	32;	.endef
	.seh_proc	_ZN7testing8internal24XmlUnitTestResultPrinter26RemoveInvalidXmlCharactersERKNSt7__cxx1112basic_stringIcSt11char_traitsIcESaIcEEE
_ZN7testing8internal24XmlUnitTestResultPrinter26RemoveInvalidXmlCharactersERKNSt7__cxx1112basic_stringIcSt11char_traitsIcESaIcEEE:
	pushq	%rdi
	.seh_pushreg	%rdi
	pushq	%rsi
	.seh_pushreg	%rsi
	pushq	%rbx
	.seh_pushreg	%rbx
	subq	$32, %rsp
	.seh_stackalloc	32
	.seh_endprologue
	movb	$0, 16(%rcx)
	leaq	16(%rcx), %rax
	movq	%rdx, %rdi
	movq	%rcx, %rbx
	movq	$0, 8(%rcx)
	movq	8(%rdx), %rdx
	movq	%rax, (%rcx)
	call	_ZNSt7__cxx1112basic_stringIcSt11char_traitsIcESaIcEE7reserveEy
	movq	(%rdi), %rsi
.L416:
	movq	8(%rdi), %rax
	addq	(%rdi), %rax
	cmpq	%rax, %rsi
	je	.L413
	movsbl	(%rsi), %r8d
	movl	%r8d, %ecx
	call	_ZN7testing8internal24XmlUnitTestResultPrinter19IsValidXmlCharacterEc
	testb	%al, %al
	je	.L415
	movl	%r8d, %edx
	movq	%rbx, %rcx
	call	_ZNSt7__cxx1112basic_stringIcSt11char_traitsIcESaIcEE9push_backEc
.L415:
	incq	%rsi
	jmp	.L416
.L413:
	movq	%rbx, %rax
	addq	$32, %rsp
	popq	%rbx
	popq	%rsi
	popq	%rdi
	ret
	.seh_endproc
	.section	.text.unlikely._ZN7testing8internal24XmlUnitTestResultPrinter26RemoveInvalidXmlCharactersERKNSt7__cxx1112basic_stringIcSt11char_traitsIcESaIcEEE,"x"
.LCOLDE196:
	.section	.text$_ZN7testing8internal24XmlUnitTestResultPrinter26RemoveInvalidXmlCharactersERKNSt7__cxx1112basic_stringIcSt11char_traitsIcESaIcEEE,"x"
.LHOTE196:
	.section	.text.unlikely._ZN7testing8internal27FormatTimeInMillisAsSecondsB5cxx11Ex,"x"
.LCOLDB198:
	.section	.text$_ZN7testing8internal27FormatTimeInMillisAsSecondsB5cxx11Ex,"x"
.LHOTB198:
	.globl	_ZN7testing8internal27FormatTimeInMillisAsSecondsB5cxx11Ex
	.def	_ZN7testing8internal27FormatTimeInMillisAsSecondsB5cxx11Ex;	.scl	2;	.type	32;	.endef
	.seh_proc	_ZN7testing8internal27FormatTimeInMillisAsSecondsB5cxx11Ex
_ZN7testing8internal27FormatTimeInMillisAsSecondsB5cxx11Ex:
	pushq	%rdi
	.seh_pushreg	%rdi
	pushq	%rsi
	.seh_pushreg	%rsi
	pushq	%rbx
	.seh_pushreg	%rbx
	subq	$432, %rsp
	.seh_stackalloc	432
	.seh_endprologue
	leaq	40(%rsp), %rbx
	movq	%rcx, %rdi
	movq	%rdx, %rsi
	movq	%rbx, %rcx
	movl	$24, %edx
	call	_ZNSt7__cxx1118basic_stringstreamIcSt11char_traitsIcESaIcEEC1ESt13_Ios_Openmode
	leaq	16(%rbx), %rcx
	cvtsi2sdq	%rsi, %xmm1
	divsd	.LC197(%rip), %xmm1
	call	_ZNSolsEd
	leaq	24(%rbx), %rdx
	movq	%rdi, %rcx
	call	_ZNKSt7__cxx1115basic_stringbufIcSt11char_traitsIcESaIcEE3strEv
	movq	%rbx, %rcx
	call	_ZNSt7__cxx1118basic_stringstreamIcSt11char_traitsIcESaIcEED1Ev
	movq	%rdi, %rax
	addq	$432, %rsp
	popq	%rbx
	popq	%rsi
	popq	%rdi
	ret
	.seh_endproc
	.section	.text.unlikely._ZN7testing8internal27FormatTimeInMillisAsSecondsB5cxx11Ex,"x"
.LCOLDE198:
	.section	.text$_ZN7testing8internal27FormatTimeInMillisAsSecondsB5cxx11Ex,"x"
.LHOTE198:
	.section .rdata,"dr"
.LC199:
	.ascii "<![CDATA[\0"
.LC200:
	.ascii "]]>\0"
.LC201:
	.ascii "]]>]]&gt;<![CDATA[\0"
	.section	.text.unlikely._ZN7testing8internal24XmlUnitTestResultPrinter21OutputXmlCDataSectionEPSoPKc,"x"
	.align 2
.LCOLDB202:
	.section	.text$_ZN7testing8internal24XmlUnitTestResultPrinter21OutputXmlCDataSectionEPSoPKc,"x"
.LHOTB202:
	.align 2
	.globl	_ZN7testing8internal24XmlUnitTestResultPrinter21OutputXmlCDataSectionEPSoPKc
	.def	_ZN7testing8internal24XmlUnitTestResultPrinter21OutputXmlCDataSectionEPSoPKc;	.scl	2;	.type	32;	.endef
	.seh_proc	_ZN7testing8internal24XmlUnitTestResultPrinter21OutputXmlCDataSectionEPSoPKc
_ZN7testing8internal24XmlUnitTestResultPrinter21OutputXmlCDataSectionEPSoPKc:
	pushq	%rdi
	.seh_pushreg	%rdi
	pushq	%rsi
	.seh_pushreg	%rsi
	pushq	%rbx
	.seh_pushreg	%rbx
	subq	$32, %rsp
	.seh_stackalloc	32
	.seh_endprologue
	movq	%rdx, %rsi
	movq	%rcx, %rbx
	leaq	.LC199(%rip), %rdx
	call	_ZStlsISt11char_traitsIcEERSt13basic_ostreamIcT_ES5_PKc
.L423:
	leaq	.LC200(%rip), %rdx
	movq	%rsi, %rcx
	call	strstr
	movq	%rax, %rdi
	testq	%rax, %rax
	je	.L422
	movq	%rax, %r8
	movq	%rsi, %rdx
	movq	%rbx, %rcx
	subq	%rsi, %r8
	call	_ZNSo5writeEPKcx
	leaq	.LC201(%rip), %rdx
	movq	%rbx, %rcx
	call	_ZStlsISt11char_traitsIcEERSt13basic_ostreamIcT_ES5_PKc
	leaq	3(%rdi), %rsi
	jmp	.L423
.L422:
	movq	%rsi, %rdx
	movq	%rbx, %rcx
	call	_ZStlsISt11char_traitsIcEERSt13basic_ostreamIcT_ES5_PKc
	leaq	.LC200(%rip), %rdx
	movq	%rbx, %rcx
	addq	$32, %rsp
	popq	%rbx
	popq	%rsi
	popq	%rdi
	jmp	_ZStlsISt11char_traitsIcEERSt13basic_ostreamIcT_ES5_PKc
	.seh_endproc
	.section	.text.unlikely._ZN7testing8internal24XmlUnitTestResultPrinter21OutputXmlCDataSectionEPSoPKc,"x"
.LCOLDE202:
	.section	.text$_ZN7testing8internal24XmlUnitTestResultPrinter21OutputXmlCDataSectionEPSoPKc,"x"
.LHOTE202:
	.section	.text.unlikely._ZN7testing18TestEventListenersC2Ev,"x"
	.align 2
.LCOLDB203:
	.section	.text$_ZN7testing18TestEventListenersC2Ev,"x"
.LHOTB203:
	.align 2
	.globl	_ZN7testing18TestEventListenersC2Ev
	.def	_ZN7testing18TestEventListenersC2Ev;	.scl	2;	.type	32;	.endef
	.seh_proc	_ZN7testing18TestEventListenersC2Ev
_ZN7testing18TestEventListenersC2Ev:
	pushq	%rbx
	.seh_pushreg	%rbx
	subq	$32, %rsp
	.seh_stackalloc	32
	.seh_endprologue
	movq	%rcx, %rbx
	movl	$40, %ecx
	call	_Znwy
	leaq	16+_ZTVN7testing8internal17TestEventRepeaterE(%rip), %rdx
	movq	$0, 8(%rbx)
	movq	%rdx, (%rax)
	movb	$1, 8(%rax)
	movq	$0, 16(%rax)
	movq	$0, 24(%rax)
	movq	$0, 32(%rax)
	movq	%rax, (%rbx)
	movq	$0, 16(%rbx)
	addq	$32, %rsp
	popq	%rbx
	ret
	.seh_endproc
	.section	.text.unlikely._ZN7testing18TestEventListenersC2Ev,"x"
.LCOLDE203:
	.section	.text$_ZN7testing18TestEventListenersC2Ev,"x"
.LHOTE203:
	.globl	_ZN7testing18TestEventListenersC1Ev
	.def	_ZN7testing18TestEventListenersC1Ev;	.scl	2;	.type	32;	.endef
	.set	_ZN7testing18TestEventListenersC1Ev,_ZN7testing18TestEventListenersC2Ev
	.section	.text.unlikely._ZN7testing18TestEventListenersD2Ev,"x"
	.align 2
.LCOLDB204:
	.section	.text$_ZN7testing18TestEventListenersD2Ev,"x"
.LHOTB204:
	.align 2
	.globl	_ZN7testing18TestEventListenersD2Ev
	.def	_ZN7testing18TestEventListenersD2Ev;	.scl	2;	.type	32;	.endef
	.seh_proc	_ZN7testing18TestEventListenersD2Ev
_ZN7testing18TestEventListenersD2Ev:
	.seh_endprologue
	movq	(%rcx), %rcx
	testq	%rcx, %rcx
	je	.L425
	movq	(%rcx), %rax
	rex.W jmp *8(%rax)
.L425:
	ret
	.seh_endproc
	.section	.text.unlikely._ZN7testing18TestEventListenersD2Ev,"x"
.LCOLDE204:
	.section	.text$_ZN7testing18TestEventListenersD2Ev,"x"
.LHOTE204:
	.globl	_ZN7testing18TestEventListenersD1Ev
	.def	_ZN7testing18TestEventListenersD1Ev;	.scl	2;	.type	32;	.endef
	.set	_ZN7testing18TestEventListenersD1Ev,_ZN7testing18TestEventListenersD2Ev
	.section	.text.unlikely._ZN7testing18TestEventListeners8repeaterEv,"x"
	.align 2
.LCOLDB205:
	.section	.text$_ZN7testing18TestEventListeners8repeaterEv,"x"
.LHOTB205:
	.align 2
	.globl	_ZN7testing18TestEventListeners8repeaterEv
	.def	_ZN7testing18TestEventListeners8repeaterEv;	.scl	2;	.type	32;	.endef
	.seh_proc	_ZN7testing18TestEventListeners8repeaterEv
_ZN7testing18TestEventListeners8repeaterEv:
	.seh_endprologue
	movq	(%rcx), %rax
	ret
	.seh_endproc
	.section	.text.unlikely._ZN7testing18TestEventListeners8repeaterEv,"x"
.LCOLDE205:
	.section	.text$_ZN7testing18TestEventListeners8repeaterEv,"x"
.LHOTE205:
	.section	.text.unlikely._ZNK7testing18TestEventListeners22EventForwardingEnabledEv,"x"
	.align 2
.LCOLDB206:
	.section	.text$_ZNK7testing18TestEventListeners22EventForwardingEnabledEv,"x"
.LHOTB206:
	.align 2
	.globl	_ZNK7testing18TestEventListeners22EventForwardingEnabledEv
	.def	_ZNK7testing18TestEventListeners22EventForwardingEnabledEv;	.scl	2;	.type	32;	.endef
	.seh_proc	_ZNK7testing18TestEventListeners22EventForwardingEnabledEv
_ZNK7testing18TestEventListeners22EventForwardingEnabledEv:
	.seh_endprologue
	movq	(%rcx), %rax
	movb	8(%rax), %al
	ret
	.seh_endproc
	.section	.text.unlikely._ZNK7testing18TestEventListeners22EventForwardingEnabledEv,"x"
.LCOLDE206:
	.section	.text$_ZNK7testing18TestEventListeners22EventForwardingEnabledEv,"x"
.LHOTE206:
	.section	.text.unlikely._ZN7testing18TestEventListeners23SuppressEventForwardingEv,"x"
	.align 2
.LCOLDB207:
	.section	.text$_ZN7testing18TestEventListeners23SuppressEventForwardingEv,"x"
.LHOTB207:
	.align 2
	.globl	_ZN7testing18TestEventListeners23SuppressEventForwardingEv
	.def	_ZN7testing18TestEventListeners23SuppressEventForwardingEv;	.scl	2;	.type	32;	.endef
	.seh_proc	_ZN7testing18TestEventListeners23SuppressEventForwardingEv
_ZN7testing18TestEventListeners23SuppressEventForwardingEv:
	.seh_endprologue
	movq	(%rcx), %rax
	movb	$0, 8(%rax)
	ret
	.seh_endproc
	.section	.text.unlikely._ZN7testing18TestEventListeners23SuppressEventForwardingEv,"x"
.LCOLDE207:
	.section	.text$_ZN7testing18TestEventListeners23SuppressEventForwardingEv,"x"
.LHOTE207:
	.section	.text.unlikely._ZNK7testing8UnitTest21total_test_case_countEv,"x"
	.align 2
.LCOLDB208:
	.section	.text$_ZNK7testing8UnitTest21total_test_case_countEv,"x"
.LHOTB208:
	.align 2
	.globl	_ZNK7testing8UnitTest21total_test_case_countEv
	.def	_ZNK7testing8UnitTest21total_test_case_countEv;	.scl	2;	.type	32;	.endef
	.seh_proc	_ZNK7testing8UnitTest21total_test_case_countEv
_ZNK7testing8UnitTest21total_test_case_countEv:
	.seh_endprologue
	movq	16(%rcx), %rdx
	movq	136(%rdx), %rax
	subq	128(%rdx), %rax
	sarq	$3, %rax
	ret
	.seh_endproc
	.section	.text.unlikely._ZNK7testing8UnitTest21total_test_case_countEv,"x"
.LCOLDE208:
	.section	.text$_ZNK7testing8UnitTest21total_test_case_countEv,"x"
.LHOTE208:
	.section	.text.unlikely._ZNK7testing8UnitTest21successful_test_countEv,"x"
	.align 2
.LCOLDB209:
	.section	.text$_ZNK7testing8UnitTest21successful_test_countEv,"x"
.LHOTB209:
	.align 2
	.globl	_ZNK7testing8UnitTest21successful_test_countEv
	.def	_ZNK7testing8UnitTest21successful_test_countEv;	.scl	2;	.type	32;	.endef
	.seh_proc	_ZNK7testing8UnitTest21successful_test_countEv
_ZNK7testing8UnitTest21successful_test_countEv:
	.seh_endprologue
	movq	16(%rcx), %rcx
	jmp	_ZNK7testing8internal12UnitTestImpl21successful_test_countEv
	.seh_endproc
	.section	.text.unlikely._ZNK7testing8UnitTest21successful_test_countEv,"x"
.LCOLDE209:
	.section	.text$_ZNK7testing8UnitTest21successful_test_countEv,"x"
.LHOTE209:
	.section	.text.unlikely._ZNK7testing8UnitTest17failed_test_countEv,"x"
	.align 2
.LCOLDB210:
	.section	.text$_ZNK7testing8UnitTest17failed_test_countEv,"x"
.LHOTB210:
	.align 2
	.globl	_ZNK7testing8UnitTest17failed_test_countEv
	.def	_ZNK7testing8UnitTest17failed_test_countEv;	.scl	2;	.type	32;	.endef
	.seh_proc	_ZNK7testing8UnitTest17failed_test_countEv
_ZNK7testing8UnitTest17failed_test_countEv:
	.seh_endprologue
	movq	16(%rcx), %rcx
	jmp	_ZNK7testing8internal12UnitTestImpl17failed_test_countEv
	.seh_endproc
	.section	.text.unlikely._ZNK7testing8UnitTest17failed_test_countEv,"x"
.LCOLDE210:
	.section	.text$_ZNK7testing8UnitTest17failed_test_countEv,"x"
.LHOTE210:
	.section	.text.unlikely._ZNK7testing8UnitTest30reportable_disabled_test_countEv,"x"
	.align 2
.LCOLDB211:
	.section	.text$_ZNK7testing8UnitTest30reportable_disabled_test_countEv,"x"
.LHOTB211:
	.align 2
	.globl	_ZNK7testing8UnitTest30reportable_disabled_test_countEv
	.def	_ZNK7testing8UnitTest30reportable_disabled_test_countEv;	.scl	2;	.type	32;	.endef
	.seh_proc	_ZNK7testing8UnitTest30reportable_disabled_test_countEv
_ZNK7testing8UnitTest30reportable_disabled_test_countEv:
	.seh_endprologue
	movq	16(%rcx), %rcx
	jmp	_ZNK7testing8internal12UnitTestImpl30reportable_disabled_test_countEv
	.seh_endproc
	.section	.text.unlikely._ZNK7testing8UnitTest30reportable_disabled_test_countEv,"x"
.LCOLDE211:
	.section	.text$_ZNK7testing8UnitTest30reportable_disabled_test_countEv,"x"
.LHOTE211:
	.section	.text.unlikely._ZNK7testing8UnitTest19disabled_test_countEv,"x"
	.align 2
.LCOLDB212:
	.section	.text$_ZNK7testing8UnitTest19disabled_test_countEv,"x"
.LHOTB212:
	.align 2
	.globl	_ZNK7testing8UnitTest19disabled_test_countEv
	.def	_ZNK7testing8UnitTest19disabled_test_countEv;	.scl	2;	.type	32;	.endef
	.seh_proc	_ZNK7testing8UnitTest19disabled_test_countEv
_ZNK7testing8UnitTest19disabled_test_countEv:
	.seh_endprologue
	movq	16(%rcx), %rcx
	jmp	_ZNK7testing8internal12UnitTestImpl19disabled_test_countEv
	.seh_endproc
	.section	.text.unlikely._ZNK7testing8UnitTest19disabled_test_countEv,"x"
.LCOLDE212:
	.section	.text$_ZNK7testing8UnitTest19disabled_test_countEv,"x"
.LHOTE212:
	.section	.text.unlikely._ZNK7testing8UnitTest21reportable_test_countEv,"x"
	.align 2
.LCOLDB213:
	.section	.text$_ZNK7testing8UnitTest21reportable_test_countEv,"x"
.LHOTB213:
	.align 2
	.globl	_ZNK7testing8UnitTest21reportable_test_countEv
	.def	_ZNK7testing8UnitTest21reportable_test_countEv;	.scl	2;	.type	32;	.endef
	.seh_proc	_ZNK7testing8UnitTest21reportable_test_countEv
_ZNK7testing8UnitTest21reportable_test_countEv:
	.seh_endprologue
	movq	16(%rcx), %rcx
	jmp	_ZNK7testing8internal12UnitTestImpl21reportable_test_countEv
	.seh_endproc
	.section	.text.unlikely._ZNK7testing8UnitTest21reportable_test_countEv,"x"
.LCOLDE213:
	.section	.text$_ZNK7testing8UnitTest21reportable_test_countEv,"x"
.LHOTE213:
	.section	.text.unlikely._ZNK7testing8UnitTest16total_test_countEv,"x"
	.align 2
.LCOLDB214:
	.section	.text$_ZNK7testing8UnitTest16total_test_countEv,"x"
.LHOTB214:
	.align 2
	.globl	_ZNK7testing8UnitTest16total_test_countEv
	.def	_ZNK7testing8UnitTest16total_test_countEv;	.scl	2;	.type	32;	.endef
	.seh_proc	_ZNK7testing8UnitTest16total_test_countEv
_ZNK7testing8UnitTest16total_test_countEv:
	.seh_endprologue
	movq	16(%rcx), %rcx
	jmp	_ZNK7testing8internal12UnitTestImpl16total_test_countEv
	.seh_endproc
	.section	.text.unlikely._ZNK7testing8UnitTest16total_test_countEv,"x"
.LCOLDE214:
	.section	.text$_ZNK7testing8UnitTest16total_test_countEv,"x"
.LHOTE214:
	.section	.text.unlikely._ZNK7testing8UnitTest17test_to_run_countEv,"x"
	.align 2
.LCOLDB215:
	.section	.text$_ZNK7testing8UnitTest17test_to_run_countEv,"x"
.LHOTB215:
	.align 2
	.globl	_ZNK7testing8UnitTest17test_to_run_countEv
	.def	_ZNK7testing8UnitTest17test_to_run_countEv;	.scl	2;	.type	32;	.endef
	.seh_proc	_ZNK7testing8UnitTest17test_to_run_countEv
_ZNK7testing8UnitTest17test_to_run_countEv:
	.seh_endprologue
	movq	16(%rcx), %rcx
	jmp	_ZNK7testing8internal12UnitTestImpl17test_to_run_countEv
	.seh_endproc
	.section	.text.unlikely._ZNK7testing8UnitTest17test_to_run_countEv,"x"
.LCOLDE215:
	.section	.text$_ZNK7testing8UnitTest17test_to_run_countEv,"x"
.LHOTE215:
	.section	.text.unlikely._ZNK7testing8UnitTest15start_timestampEv,"x"
	.align 2
.LCOLDB216:
	.section	.text$_ZNK7testing8UnitTest15start_timestampEv,"x"
.LHOTB216:
	.align 2
	.globl	_ZNK7testing8UnitTest15start_timestampEv
	.def	_ZNK7testing8UnitTest15start_timestampEv;	.scl	2;	.type	32;	.endef
	.seh_proc	_ZNK7testing8UnitTest15start_timestampEv
_ZNK7testing8UnitTest15start_timestampEv:
	.seh_endprologue
	movq	16(%rcx), %rax
	movq	344(%rax), %rax
	ret
	.seh_endproc
	.section	.text.unlikely._ZNK7testing8UnitTest15start_timestampEv,"x"
.LCOLDE216:
	.section	.text$_ZNK7testing8UnitTest15start_timestampEv,"x"
.LHOTE216:
	.section	.text.unlikely._ZNK7testing8UnitTest12elapsed_timeEv,"x"
	.align 2
.LCOLDB217:
	.section	.text$_ZNK7testing8UnitTest12elapsed_timeEv,"x"
.LHOTB217:
	.align 2
	.globl	_ZNK7testing8UnitTest12elapsed_timeEv
	.def	_ZNK7testing8UnitTest12elapsed_timeEv;	.scl	2;	.type	32;	.endef
	.seh_proc	_ZNK7testing8UnitTest12elapsed_timeEv
_ZNK7testing8UnitTest12elapsed_timeEv:
	.seh_endprologue
	movq	16(%rcx), %rax
	movq	352(%rax), %rax
	ret
	.seh_endproc
	.section	.text.unlikely._ZNK7testing8UnitTest12elapsed_timeEv,"x"
.LCOLDE217:
	.section	.text$_ZNK7testing8UnitTest12elapsed_timeEv,"x"
.LHOTE217:
	.section	.text.unlikely._ZNK7testing8UnitTest18ad_hoc_test_resultEv,"x"
	.align 2
.LCOLDB218:
	.section	.text$_ZNK7testing8UnitTest18ad_hoc_test_resultEv,"x"
.LHOTB218:
	.align 2
	.globl	_ZNK7testing8UnitTest18ad_hoc_test_resultEv
	.def	_ZNK7testing8UnitTest18ad_hoc_test_resultEv;	.scl	2;	.type	32;	.endef
	.seh_proc	_ZNK7testing8UnitTest18ad_hoc_test_resultEv
_ZNK7testing8UnitTest18ad_hoc_test_resultEv:
	.seh_endprologue
	movq	16(%rcx), %rax
	addq	$224, %rax
	ret
	.seh_endproc
	.section	.text.unlikely._ZNK7testing8UnitTest18ad_hoc_test_resultEv,"x"
.LCOLDE218:
	.section	.text$_ZNK7testing8UnitTest18ad_hoc_test_resultEv,"x"
.LHOTE218:
	.section	.text.unlikely._ZN7testing8UnitTest9listenersEv,"x"
	.align 2
.LCOLDB219:
	.section	.text$_ZN7testing8UnitTest9listenersEv,"x"
.LHOTB219:
	.align 2
	.globl	_ZN7testing8UnitTest9listenersEv
	.def	_ZN7testing8UnitTest9listenersEv;	.scl	2;	.type	32;	.endef
	.seh_proc	_ZN7testing8UnitTest9listenersEv
_ZN7testing8UnitTest9listenersEv:
	.seh_endprologue
	movq	16(%rcx), %rax
	addq	$296, %rax
	ret
	.seh_endproc
	.section	.text.unlikely._ZN7testing8UnitTest9listenersEv,"x"
.LCOLDE219:
	.section	.text$_ZN7testing8UnitTest9listenersEv,"x"
.LHOTE219:
	.section	.text.unlikely._ZNK7testing8UnitTest20original_working_dirEv,"x"
	.align 2
.LCOLDB220:
	.section	.text$_ZNK7testing8UnitTest20original_working_dirEv,"x"
.LHOTB220:
	.align 2
	.globl	_ZNK7testing8UnitTest20original_working_dirEv
	.def	_ZNK7testing8UnitTest20original_working_dirEv;	.scl	2;	.type	32;	.endef
	.seh_proc	_ZNK7testing8UnitTest20original_working_dirEv
_ZNK7testing8UnitTest20original_working_dirEv:
	.seh_endprologue
	movq	16(%rcx), %rax
	movq	16(%rax), %rax
	ret
	.seh_endproc
	.section	.text.unlikely._ZNK7testing8UnitTest20original_working_dirEv,"x"
.LCOLDE220:
	.section	.text$_ZNK7testing8UnitTest20original_working_dirEv,"x"
.LHOTE220:
	.section	.text.unlikely._ZNK7testing8UnitTest17current_test_caseEv,"x"
	.align 2
.LCOLDB221:
	.section	.text$_ZNK7testing8UnitTest17current_test_caseEv,"x"
.LHOTB221:
	.align 2
	.globl	_ZNK7testing8UnitTest17current_test_caseEv
	.def	_ZNK7testing8UnitTest17current_test_caseEv;	.scl	2;	.type	32;	.endef
	.seh_proc	_ZNK7testing8UnitTest17current_test_caseEv
_ZNK7testing8UnitTest17current_test_caseEv:
	.seh_endprologue
	movq	16(%rcx), %rax
	movq	208(%rax), %rax
	ret
	.seh_endproc
	.section	.text.unlikely._ZNK7testing8UnitTest17current_test_caseEv,"x"
.LCOLDE221:
	.section	.text$_ZNK7testing8UnitTest17current_test_caseEv,"x"
.LHOTE221:
	.section	.text.unlikely._ZNK7testing8UnitTest17current_test_infoEv,"x"
	.align 2
.LCOLDB222:
	.section	.text$_ZNK7testing8UnitTest17current_test_infoEv,"x"
.LHOTB222:
	.align 2
	.globl	_ZNK7testing8UnitTest17current_test_infoEv
	.def	_ZNK7testing8UnitTest17current_test_infoEv;	.scl	2;	.type	32;	.endef
	.seh_proc	_ZNK7testing8UnitTest17current_test_infoEv
_ZNK7testing8UnitTest17current_test_infoEv:
	.seh_endprologue
	movq	16(%rcx), %rax
	movq	216(%rax), %rax
	ret
	.seh_endproc
	.section	.text.unlikely._ZNK7testing8UnitTest17current_test_infoEv,"x"
.LCOLDE222:
	.section	.text$_ZNK7testing8UnitTest17current_test_infoEv,"x"
.LHOTE222:
	.section	.text.unlikely._ZNK7testing8UnitTest11random_seedEv,"x"
	.align 2
.LCOLDB223:
	.section	.text$_ZNK7testing8UnitTest11random_seedEv,"x"
.LHOTB223:
	.align 2
	.globl	_ZNK7testing8UnitTest11random_seedEv
	.def	_ZNK7testing8UnitTest11random_seedEv;	.scl	2;	.type	32;	.endef
	.seh_proc	_ZNK7testing8UnitTest11random_seedEv
_ZNK7testing8UnitTest11random_seedEv:
	.seh_endprologue
	movq	16(%rcx), %rax
	movl	332(%rax), %eax
	ret
	.seh_endproc
	.section	.text.unlikely._ZNK7testing8UnitTest11random_seedEv,"x"
.LCOLDE223:
	.section	.text$_ZNK7testing8UnitTest11random_seedEv,"x"
.LHOTE223:
	.section	.text.unlikely._ZN7testing8UnitTest27parameterized_test_registryEv,"x"
	.align 2
.LCOLDB224:
	.section	.text$_ZN7testing8UnitTest27parameterized_test_registryEv,"x"
.LHOTB224:
	.align 2
	.globl	_ZN7testing8UnitTest27parameterized_test_registryEv
	.def	_ZN7testing8UnitTest27parameterized_test_registryEv;	.scl	2;	.type	32;	.endef
	.seh_proc	_ZN7testing8UnitTest27parameterized_test_registryEv
_ZN7testing8UnitTest27parameterized_test_registryEv:
	.seh_endprologue
	movq	16(%rcx), %rax
	addq	$176, %rax
	ret
	.seh_endproc
	.section	.text.unlikely._ZN7testing8UnitTest27parameterized_test_registryEv,"x"
.LCOLDE224:
	.section	.text$_ZN7testing8UnitTest27parameterized_test_registryEv,"x"
.LHOTE224:
	.section	.text.unlikely._ZN7testing8UnitTest13PopGTestTraceEv,"x"
	.align 2
.LCOLDB225:
	.section	.text$_ZN7testing8UnitTest13PopGTestTraceEv,"x"
.LHOTB225:
	.align 2
	.globl	_ZN7testing8UnitTest13PopGTestTraceEv
	.def	_ZN7testing8UnitTest13PopGTestTraceEv;	.scl	2;	.type	32;	.endef
	.seh_proc	_ZN7testing8UnitTest13PopGTestTraceEv
_ZN7testing8UnitTest13PopGTestTraceEv:
	.seh_endprologue
	movq	16(%rcx), %rax
	movq	384(%rax), %rdx
	leaq	-48(%rdx), %rcx
	movq	%rcx, 384(%rax)
	addq	$16, %rcx
	jmp	_ZNSt7__cxx1112basic_stringIcSt11char_traitsIcESaIcEE10_M_disposeEv
	.seh_endproc
	.section	.text.unlikely._ZN7testing8UnitTest13PopGTestTraceEv,"x"
.LCOLDE225:
	.section	.text$_ZN7testing8UnitTest13PopGTestTraceEv,"x"
.LHOTE225:
	.section	.text.unlikely._ZN7testing8internal12UnitTestImpl32SuppressTestEventsIfInSubprocessEv,"x"
	.align 2
.LCOLDB226:
	.section	.text$_ZN7testing8internal12UnitTestImpl32SuppressTestEventsIfInSubprocessEv,"x"
.LHOTB226:
	.align 2
	.globl	_ZN7testing8internal12UnitTestImpl32SuppressTestEventsIfInSubprocessEv
	.def	_ZN7testing8internal12UnitTestImpl32SuppressTestEventsIfInSubprocessEv;	.scl	2;	.type	32;	.endef
	.seh_proc	_ZN7testing8internal12UnitTestImpl32SuppressTestEventsIfInSubprocessEv
_ZN7testing8internal12UnitTestImpl32SuppressTestEventsIfInSubprocessEv:
	.seh_endprologue
	cmpq	$0, 360(%rcx)
	je	.L448
	movq	296(%rcx), %rax
	movb	$0, 8(%rax)
.L448:
	ret
	.seh_endproc
	.section	.text.unlikely._ZN7testing8internal12UnitTestImpl32SuppressTestEventsIfInSubprocessEv,"x"
.LCOLDE226:
	.section	.text$_ZN7testing8internal12UnitTestImpl32SuppressTestEventsIfInSubprocessEv,"x"
.LHOTE226:
	.section	.text$_ZNK7testing8internal14TestCaseNameIsclEPKNS_8TestCaseE,"x"
	.linkonce discard
	.align 2
.LCOLDB227:
.LHOTB227:
	.align 2
	.globl	_ZNK7testing8internal14TestCaseNameIsclEPKNS_8TestCaseE
	.def	_ZNK7testing8internal14TestCaseNameIsclEPKNS_8TestCaseE;	.scl	2;	.type	32;	.endef
	.seh_proc	_ZNK7testing8internal14TestCaseNameIsclEPKNS_8TestCaseE
_ZNK7testing8internal14TestCaseNameIsclEPKNS_8TestCaseE:
	subq	$40, %rsp
	.seh_stackalloc	40
	.seh_endprologue
	xorl	%eax, %eax
	testq	%rdx, %rdx
	je	.L451
	movq	8(%rdx), %rax
	movq	(%rcx), %rdx
	movq	%rax, %rcx
	call	strcmp
	testl	%eax, %eax
	sete	%al
.L451:
	addq	$40, %rsp
	ret
	.seh_endproc
.LCOLDE227:
.LHOTE227:
	.section .rdata,"dr"
.LC228:
	.ascii "w\0"
.LC229:
	.ascii "Could not write to the test shard status file \"%s\" specified by the %s environment variable.\12\0"
	.section	.text.unlikely._ZN7testing8internal30WriteToShardStatusFileIfNeededEv,"x"
.LCOLDB230:
	.section	.text$_ZN7testing8internal30WriteToShardStatusFileIfNeededEv,"x"
.LHOTB230:
	.globl	_ZN7testing8internal30WriteToShardStatusFileIfNeededEv
	.def	_ZN7testing8internal30WriteToShardStatusFileIfNeededEv;	.scl	2;	.type	32;	.endef
	.seh_proc	_ZN7testing8internal30WriteToShardStatusFileIfNeededEv
_ZN7testing8internal30WriteToShardStatusFileIfNeededEv:
	subq	$56, %rsp
	.seh_stackalloc	56
	.seh_endprologue
	leaq	_ZN7testingL20kTestShardStatusFileE(%rip), %rcx
	call	getenv
	testq	%rax, %rax
	je	.L453
	leaq	.LC228(%rip), %rdx
	movq	%rax, %rcx
	movq	%rax, 40(%rsp)
	call	fopen
	movq	40(%rsp), %r8
	testq	%rax, %rax
	jne	.L455
	leaq	_ZN7testingL20kTestShardStatusFileE(%rip), %r9
	movl	$1, %ecx
	leaq	.LC229(%rip), %rdx
	call	_ZN7testing8internal13ColoredPrintfENS0_10GTestColorEPKcz
	call	*__imp___iob_func(%rip)
	leaq	48(%rax), %rcx
	call	fflush
	movl	$1, %ecx
	call	exit
.L455:
	movq	%rax, %rcx
	addq	$56, %rsp
	jmp	fclose
.L453:
	addq	$56, %rsp
	ret
	.seh_endproc
	.section	.text.unlikely._ZN7testing8internal30WriteToShardStatusFileIfNeededEv,"x"
.LCOLDE230:
	.section	.text$_ZN7testing8internal30WriteToShardStatusFileIfNeededEv,"x"
.LHOTE230:
	.section	.text.unlikely._ZN7testing8internal20ShouldRunTestOnShardEiii,"x"
.LCOLDB231:
	.section	.text$_ZN7testing8internal20ShouldRunTestOnShardEiii,"x"
.LHOTB231:
	.globl	_ZN7testing8internal20ShouldRunTestOnShardEiii
	.def	_ZN7testing8internal20ShouldRunTestOnShardEiii;	.scl	2;	.type	32;	.endef
	.seh_proc	_ZN7testing8internal20ShouldRunTestOnShardEiii
_ZN7testing8internal20ShouldRunTestOnShardEiii:
	.seh_endprologue
	movl	%r8d, %eax
	movl	%edx, %r9d
	cltd
	idivl	%ecx
	cmpl	%r9d, %edx
	sete	%al
	ret
	.seh_endproc
	.section	.text.unlikely._ZN7testing8internal20ShouldRunTestOnShardEiii,"x"
.LCOLDE231:
	.section	.text$_ZN7testing8internal20ShouldRunTestOnShardEiii,"x"
.LHOTE231:
	.section .rdata,"dr"
.LC232:
	.ascii "%s.\0"
.LC233:
	.ascii "  # %s = \0"
.LC234:
	.ascii "  %s\0"
	.section	.text.unlikely._ZN7testing8internal12UnitTestImpl23ListTestsMatchingFilterEv,"x"
	.align 2
.LCOLDB235:
	.section	.text$_ZN7testing8internal12UnitTestImpl23ListTestsMatchingFilterEv,"x"
.LHOTB235:
	.align 2
	.globl	_ZN7testing8internal12UnitTestImpl23ListTestsMatchingFilterEv
	.def	_ZN7testing8internal12UnitTestImpl23ListTestsMatchingFilterEv;	.scl	2;	.type	32;	.endef
	.seh_proc	_ZN7testing8internal12UnitTestImpl23ListTestsMatchingFilterEv
_ZN7testing8internal12UnitTestImpl23ListTestsMatchingFilterEv:
	pushq	%r12
	.seh_pushreg	%r12
	pushq	%rbp
	.seh_pushreg	%rbp
	pushq	%rdi
	.seh_pushreg	%rdi
	pushq	%rsi
	.seh_pushreg	%rsi
	pushq	%rbx
	.seh_pushreg	%rbx
	subq	$32, %rsp
	.seh_stackalloc	32
	.seh_endprologue
	xorl	%esi, %esi
	movq	%rcx, %rbp
.L467:
	movq	128(%rbp), %rdx
	movq	136(%rbp), %rax
	subq	%rdx, %rax
	sarq	$3, %rax
	cmpq	%rax, %rsi
	jnb	.L458
	movq	(%rdx,%rsi,8), %rbx
	xorl	%edi, %edi
	xorl	%edx, %edx
.L466:
	movq	48(%rbx), %rcx
	movq	56(%rbx), %rax
	subq	%rcx, %rax
	sarq	$3, %rax
	cmpq	%rax, %rdi
	jnb	.L459
	movq	(%rcx,%rdi,8), %r12
	cmpb	$0, 90(%r12)
	je	.L460
	testb	%dl, %dl
	jne	.L461
	movq	8(%rbx), %rdx
	leaq	.LC232(%rip), %rcx
	call	_ZL6printfPKcz
	movq	40(%rbx), %rax
	testq	%rax, %rax
	je	.L462
	cmpq	$0, (%rax)
	je	.L462
	leaq	.LC233(%rip), %rcx
	leaq	_ZN7testing8internalL15kTypeParamLabelE(%rip), %rdx
	call	_ZL6printfPKcz
	movq	40(%rbx), %rax
	xorl	%ecx, %ecx
	testq	%rax, %rax
	je	.L463
	movq	(%rax), %rcx
.L463:
	call	_ZN7testing8internalL14PrintOnOneLineEPKci.constprop.581
.L462:
	leaq	.LC150(%rip), %rcx
	call	_ZL6printfPKcz
.L461:
	movq	32(%r12), %rdx
	leaq	.LC234(%rip), %rcx
	call	_ZL6printfPKcz
	movq	72(%r12), %rax
	testq	%rax, %rax
	je	.L464
	cmpq	$0, (%rax)
	je	.L464
	leaq	.LC233(%rip), %rcx
	leaq	_ZN7testing8internalL16kValueParamLabelE(%rip), %rdx
	call	_ZL6printfPKcz
	movq	72(%r12), %rax
	xorl	%ecx, %ecx
	testq	%rax, %rax
	je	.L465
	movq	(%rax), %rcx
.L465:
	call	_ZN7testing8internalL14PrintOnOneLineEPKci.constprop.581
.L464:
	leaq	.LC150(%rip), %rcx
	call	_ZL6printfPKcz
	movb	$1, %dl
.L460:
	incq	%rdi
	jmp	.L466
.L459:
	incq	%rsi
	jmp	.L467
.L458:
	call	*__imp___iob_func(%rip)
	leaq	48(%rax), %rcx
	addq	$32, %rsp
	popq	%rbx
	popq	%rsi
	popq	%rdi
	popq	%rbp
	popq	%r12
	jmp	fflush
	.seh_endproc
	.section	.text.unlikely._ZN7testing8internal12UnitTestImpl23ListTestsMatchingFilterEv,"x"
.LCOLDE235:
	.section	.text$_ZN7testing8internal12UnitTestImpl23ListTestsMatchingFilterEv,"x"
.LHOTE235:
	.section	.text.unlikely._ZN7testing8internal12UnitTestImpl25set_os_stack_trace_getterEPNS0_27OsStackTraceGetterInterfaceE,"x"
	.align 2
.LCOLDB236:
	.section	.text$_ZN7testing8internal12UnitTestImpl25set_os_stack_trace_getterEPNS0_27OsStackTraceGetterInterfaceE,"x"
.LHOTB236:
	.align 2
	.globl	_ZN7testing8internal12UnitTestImpl25set_os_stack_trace_getterEPNS0_27OsStackTraceGetterInterfaceE
	.def	_ZN7testing8internal12UnitTestImpl25set_os_stack_trace_getterEPNS0_27OsStackTraceGetterInterfaceE;	.scl	2;	.type	32;	.endef
	.seh_proc	_ZN7testing8internal12UnitTestImpl25set_os_stack_trace_getterEPNS0_27OsStackTraceGetterInterfaceE
_ZN7testing8internal12UnitTestImpl25set_os_stack_trace_getterEPNS0_27OsStackTraceGetterInterfaceE:
	pushq	%rsi
	.seh_pushreg	%rsi
	pushq	%rbx
	.seh_pushreg	%rbx
	subq	$40, %rsp
	.seh_stackalloc	40
	.seh_endprologue
	movq	%rcx, %rbx
	movq	320(%rcx), %rcx
	movq	%rdx, %rsi
	cmpq	%rdx, %rcx
	je	.L476
	testq	%rcx, %rcx
	je	.L478
	movq	(%rcx), %rax
	call	*8(%rax)
.L478:
	movq	%rsi, 320(%rbx)
.L476:
	addq	$40, %rsp
	popq	%rbx
	popq	%rsi
	ret
	.seh_endproc
	.section	.text.unlikely._ZN7testing8internal12UnitTestImpl25set_os_stack_trace_getterEPNS0_27OsStackTraceGetterInterfaceE,"x"
.LCOLDE236:
	.section	.text$_ZN7testing8internal12UnitTestImpl25set_os_stack_trace_getterEPNS0_27OsStackTraceGetterInterfaceE,"x"
.LHOTE236:
	.section	.text.unlikely._ZN7testing8internal12UnitTestImpl21os_stack_trace_getterEv,"x"
	.align 2
.LCOLDB237:
	.section	.text$_ZN7testing8internal12UnitTestImpl21os_stack_trace_getterEv,"x"
.LHOTB237:
	.align 2
	.globl	_ZN7testing8internal12UnitTestImpl21os_stack_trace_getterEv
	.def	_ZN7testing8internal12UnitTestImpl21os_stack_trace_getterEv;	.scl	2;	.type	32;	.endef
	.seh_proc	_ZN7testing8internal12UnitTestImpl21os_stack_trace_getterEv
_ZN7testing8internal12UnitTestImpl21os_stack_trace_getterEv:
	pushq	%rbx
	.seh_pushreg	%rbx
	subq	$32, %rsp
	.seh_stackalloc	32
	.seh_endprologue
	cmpq	$0, 320(%rcx)
	movq	%rcx, %rbx
	jne	.L483
	movl	$24, %ecx
	call	_Znwy
	leaq	16+_ZTVN7testing8internal18OsStackTraceGetterE(%rip), %rdx
	movq	%rdx, (%rax)
	movq	$0, 16(%rax)
	movq	%rax, 320(%rbx)
.L483:
	movq	320(%rbx), %rax
	addq	$32, %rsp
	popq	%rbx
	ret
	.seh_endproc
	.section	.text.unlikely._ZN7testing8internal12UnitTestImpl21os_stack_trace_getterEv,"x"
.LCOLDE237:
	.section	.text$_ZN7testing8internal12UnitTestImpl21os_stack_trace_getterEv,"x"
.LHOTE237:
	.section	.text.unlikely._ZN7testing8internal12UnitTestImpl19current_test_resultEv,"x"
	.align 2
.LCOLDB238:
	.section	.text$_ZN7testing8internal12UnitTestImpl19current_test_resultEv,"x"
.LHOTB238:
	.align 2
	.globl	_ZN7testing8internal12UnitTestImpl19current_test_resultEv
	.def	_ZN7testing8internal12UnitTestImpl19current_test_resultEv;	.scl	2;	.type	32;	.endef
	.seh_proc	_ZN7testing8internal12UnitTestImpl19current_test_resultEv
_ZN7testing8internal12UnitTestImpl19current_test_resultEv:
	.seh_endprologue
	movq	216(%rcx), %rdx
	leaq	104(%rdx), %rax
	addq	$224, %rcx
	testq	%rdx, %rdx
	cmove	%rcx, %rax
	ret
	.seh_endproc
	.section	.text.unlikely._ZN7testing8internal12UnitTestImpl19current_test_resultEv,"x"
.LCOLDE238:
	.section	.text$_ZN7testing8internal12UnitTestImpl19current_test_resultEv,"x"
.LHOTE238:
	.section	.text.unlikely._ZN7testing8internal12UnitTestImpl14UnshuffleTestsEv,"x"
	.align 2
.LCOLDB239:
	.section	.text$_ZN7testing8internal12UnitTestImpl14UnshuffleTestsEv,"x"
.LHOTB239:
	.align 2
	.globl	_ZN7testing8internal12UnitTestImpl14UnshuffleTestsEv
	.def	_ZN7testing8internal12UnitTestImpl14UnshuffleTestsEv;	.scl	2;	.type	32;	.endef
	.seh_proc	_ZN7testing8internal12UnitTestImpl14UnshuffleTestsEv
_ZN7testing8internal12UnitTestImpl14UnshuffleTestsEv:
	pushq	%rsi
	.seh_pushreg	%rsi
	pushq	%rbx
	.seh_pushreg	%rbx
	subq	$40, %rsp
	.seh_stackalloc	40
	.seh_endprologue
	xorl	%ebx, %ebx
	movq	%rcx, %rsi
.L489:
	movq	128(%rsi), %rdx
	movq	136(%rsi), %rax
	subq	%rdx, %rax
	sarq	$3, %rax
	cmpq	%rax, %rbx
	jnb	.L487
	movq	(%rdx,%rbx,8), %rcx
	call	_ZN7testing8TestCase14UnshuffleTestsEv
	movq	152(%rsi), %rax
	movl	%ebx, (%rax,%rbx,4)
	incq	%rbx
	jmp	.L489
.L487:
	addq	$40, %rsp
	popq	%rbx
	popq	%rsi
	ret
	.seh_endproc
	.section	.text.unlikely._ZN7testing8internal12UnitTestImpl14UnshuffleTestsEv,"x"
.LCOLDE239:
	.section	.text$_ZN7testing8internal12UnitTestImpl14UnshuffleTestsEv,"x"
.LHOTE239:
	.section	.text.unlikely._ZN7testing8internal6IsTrueEb,"x"
.LCOLDB240:
	.section	.text$_ZN7testing8internal6IsTrueEb,"x"
.LHOTB240:
	.globl	_ZN7testing8internal6IsTrueEb
	.def	_ZN7testing8internal6IsTrueEb;	.scl	2;	.type	32;	.endef
	.seh_proc	_ZN7testing8internal6IsTrueEb
_ZN7testing8internal6IsTrueEb:
	.seh_endprologue
	movb	%cl, %al
	ret
	.seh_endproc
	.section	.text.unlikely._ZN7testing8internal6IsTrueEb,"x"
.LCOLDE240:
	.section	.text$_ZN7testing8internal6IsTrueEb,"x"
.LHOTE240:
	.section	.text.unlikely._ZN7testing8internal10AlwaysTrueEv,"x"
.LCOLDB241:
	.section	.text$_ZN7testing8internal10AlwaysTrueEv,"x"
.LHOTB241:
	.globl	_ZN7testing8internal10AlwaysTrueEv
	.def	_ZN7testing8internal10AlwaysTrueEv;	.scl	2;	.type	32;	.endef
	.seh_proc	_ZN7testing8internal10AlwaysTrueEv
_ZN7testing8internal10AlwaysTrueEv:
	.seh_endprologue
	movb	$1, %al
	ret
	.seh_endproc
	.section	.text.unlikely._ZN7testing8internal10AlwaysTrueEv,"x"
.LCOLDE241:
	.section	.text$_ZN7testing8internal10AlwaysTrueEv,"x"
.LHOTE241:
	.section	.text.unlikely._ZN7testing8internal10SkipPrefixEPKcPS2_,"x"
.LCOLDB242:
	.section	.text$_ZN7testing8internal10SkipPrefixEPKcPS2_,"x"
.LHOTB242:
	.globl	_ZN7testing8internal10SkipPrefixEPKcPS2_
	.def	_ZN7testing8internal10SkipPrefixEPKcPS2_;	.scl	2;	.type	32;	.endef
	.seh_proc	_ZN7testing8internal10SkipPrefixEPKcPS2_
_ZN7testing8internal10SkipPrefixEPKcPS2_:
	pushq	%rdi
	.seh_pushreg	%rdi
	pushq	%rsi
	.seh_pushreg	%rsi
	pushq	%rbx
	.seh_pushreg	%rbx
	subq	$32, %rsp
	.seh_stackalloc	32
	.seh_endprologue
	xorl	%eax, %eax
	movq	%rcx, %r9
	orq	$-1, %rcx
	movq	%rdx, %rsi
	movq	%r9, %rdi
	repnz scasb
	movq	(%rdx), %rdi
	movq	%r9, %rdx
	notq	%rcx
	leaq	-1(%rcx), %rbx
	movq	%rdi, %rcx
	movq	%rbx, %r8
	call	strncmp
	xorl	%edx, %edx
	testl	%eax, %eax
	jne	.L493
	addq	%rdi, %rbx
	movb	$1, %dl
	movq	%rbx, (%rsi)
.L493:
	movb	%dl, %al
	addq	$32, %rsp
	popq	%rbx
	popq	%rsi
	popq	%rdi
	ret
	.seh_endproc
	.section	.text.unlikely._ZN7testing8internal10SkipPrefixEPKcPS2_,"x"
.LCOLDE242:
	.section	.text$_ZN7testing8internal10SkipPrefixEPKcPS2_,"x"
.LHOTE242:
	.section .rdata,"dr"
.LC243:
	.ascii "--\0"
.LC244:
	.ascii "gtest_internal_\0"
.LC245:
	.ascii "-\0"
.LC246:
	.ascii "/\0"
.LC247:
	.ascii "gtest-\0"
	.section	.text.unlikely._ZN7testing8internalL23HasGoogleTestFlagPrefixEPKc,"x"
.LCOLDB248:
	.section	.text$_ZN7testing8internalL23HasGoogleTestFlagPrefixEPKc,"x"
.LHOTB248:
	.def	_ZN7testing8internalL23HasGoogleTestFlagPrefixEPKc;	.scl	3;	.type	32;	.endef
	.seh_proc	_ZN7testing8internalL23HasGoogleTestFlagPrefixEPKc
_ZN7testing8internalL23HasGoogleTestFlagPrefixEPKc:
	subq	$40, %rsp
	.seh_stackalloc	40
	.seh_endprologue
	movq	%rcx, 48(%rsp)
	leaq	48(%rsp), %rdx
	leaq	.LC243(%rip), %rcx
	call	_ZN7testing8internal10SkipPrefixEPKcPS2_
	testb	%al, %al
	je	.L496
.L499:
	leaq	48(%rsp), %rdx
	leaq	.LC244(%rip), %rcx
	call	_ZN7testing8internal10SkipPrefixEPKcPS2_
	testb	%al, %al
	jne	.L497
	jmp	.L502
.L496:
	leaq	48(%rsp), %rdx
	leaq	.LC245(%rip), %rcx
	call	_ZN7testing8internal10SkipPrefixEPKcPS2_
	testb	%al, %al
	jne	.L499
	leaq	48(%rsp), %rdx
	leaq	.LC246(%rip), %rcx
	call	_ZN7testing8internal10SkipPrefixEPKcPS2_
	testb	%al, %al
	jne	.L499
.L497:
	xorl	%eax, %eax
	jmp	.L500
.L502:
	leaq	48(%rsp), %rdx
	leaq	.LC147(%rip), %rcx
	call	_ZN7testing8internal10SkipPrefixEPKcPS2_
	testb	%al, %al
	jne	.L500
	leaq	48(%rsp), %rdx
	leaq	.LC247(%rip), %rcx
	call	_ZN7testing8internal10SkipPrefixEPKcPS2_
.L500:
	addq	$40, %rsp
	ret
	.seh_endproc
	.section	.text.unlikely._ZN7testing8internalL23HasGoogleTestFlagPrefixEPKc,"x"
.LCOLDE248:
	.section	.text$_ZN7testing8internalL23HasGoogleTestFlagPrefixEPKc,"x"
.LHOTE248:
	.section	.text.unlikely._ZN7testing8internal14ParseFlagValueEPKcS2_b,"x"
.LCOLDB249:
	.section	.text$_ZN7testing8internal14ParseFlagValueEPKcS2_b,"x"
.LHOTB249:
	.globl	_ZN7testing8internal14ParseFlagValueEPKcS2_b
	.def	_ZN7testing8internal14ParseFlagValueEPKcS2_b;	.scl	2;	.type	32;	.endef
	.seh_proc	_ZN7testing8internal14ParseFlagValueEPKcS2_b
_ZN7testing8internal14ParseFlagValueEPKcS2_b:
	pushq	%r12
	.seh_pushreg	%r12
	pushq	%rbp
	.seh_pushreg	%rbp
	pushq	%rdi
	.seh_pushreg	%rdi
	pushq	%rsi
	.seh_pushreg	%rsi
	pushq	%rbx
	.seh_pushreg	%rbx
	addq	$-128, %rsp
	.seh_stackalloc	128
	.seh_endprologue
	movq	%rcx, %rdi
	movq	%rdx, %rbp
	movl	%r8d, %r12d
	testq	%rcx, %rcx
	je	.L507
	testq	%rdx, %rdx
	je	.L507
	leaq	64(%rsp), %rbx
	leaq	.LC243(%rip), %rdx
	movq	%rbx, %rcx
	call	_ZNSt7__cxx1112basic_stringIcSt11char_traitsIcESaIcEEC2EPKcRKS3_.isra.406
	leaq	.LC147(%rip), %rdx
	movq	%rbx, %rcx
	call	_ZNSt7__cxx1112basic_stringIcSt11char_traitsIcESaIcEE6appendEPKc
	leaq	96(%rsp), %rsi
	movq	%rax, %rdx
	movq	%rsi, %rcx
	call	_ZNSt7__cxx1112basic_stringIcSt11char_traitsIcESaIcEEC1EOS4_
	movq	%rbp, %rdx
	movq	%rsi, %rcx
	call	_ZNSt7__cxx1112basic_stringIcSt11char_traitsIcESaIcEE6appendEPKc
	leaq	32(%rsp), %rbp
	movq	%rax, %rdx
	movq	%rbp, %rcx
	call	_ZNSt7__cxx1112basic_stringIcSt11char_traitsIcESaIcEEC1EOS4_
	movq	%rsi, %rcx
	xorl	%esi, %esi
	call	_ZNSt7__cxx1112basic_stringIcSt11char_traitsIcESaIcEE10_M_disposeEv
	movq	%rbx, %rcx
	call	_ZNSt7__cxx1112basic_stringIcSt11char_traitsIcESaIcEE10_M_disposeEv
	movq	40(%rsp), %rbx
	movq	%rdi, %rcx
	movq	32(%rsp), %rdx
	movq	%rbx, %r8
	call	strncmp
	testl	%eax, %eax
	jne	.L505
	leaq	(%rdi,%rbx), %rcx
	testb	%r12b, %r12b
	je	.L506
	cmpb	$0, (%rcx)
	movq	%rcx, %rsi
	je	.L505
.L506:
	cmpb	$61, (%rcx)
	leaq	1(%rcx), %rax
	movl	$0, %esi
	cmove	%rax, %rsi
.L505:
	movq	%rbp, %rcx
	call	_ZNSt7__cxx1112basic_stringIcSt11char_traitsIcESaIcEE10_M_disposeEv
	jmp	.L504
.L507:
	xorl	%esi, %esi
.L504:
	movq	%rsi, %rax
	subq	$-128, %rsp
	popq	%rbx
	popq	%rsi
	popq	%rdi
	popq	%rbp
	popq	%r12
	ret
	.seh_endproc
	.section	.text.unlikely._ZN7testing8internal14ParseFlagValueEPKcS2_b,"x"
.LCOLDE249:
	.section	.text$_ZN7testing8internal14ParseFlagValueEPKcS2_b,"x"
.LHOTE249:
	.section	.text.unlikely._ZN7testing8internal13ParseBoolFlagEPKcS2_Pb,"x"
.LCOLDB250:
	.section	.text$_ZN7testing8internal13ParseBoolFlagEPKcS2_Pb,"x"
.LHOTB250:
	.globl	_ZN7testing8internal13ParseBoolFlagEPKcS2_Pb
	.def	_ZN7testing8internal13ParseBoolFlagEPKcS2_Pb;	.scl	2;	.type	32;	.endef
	.seh_proc	_ZN7testing8internal13ParseBoolFlagEPKcS2_Pb
_ZN7testing8internal13ParseBoolFlagEPKcS2_Pb:
	pushq	%rbx
	.seh_pushreg	%rbx
	subq	$32, %rsp
	.seh_stackalloc	32
	.seh_endprologue
	movq	%r8, %rbx
	movl	$1, %r8d
	call	_ZN7testing8internal14ParseFlagValueEPKcS2_b
	xorl	%edx, %edx
	testq	%rax, %rax
	je	.L512
	movb	(%rax), %dl
	movb	%dl, %al
	andl	$-33, %eax
	cmpb	$70, %al
	setne	%cl
	cmpb	$48, %dl
	movb	$1, %dl
	setne	%al
	andl	%ecx, %eax
	movb	%al, (%rbx)
.L512:
	movb	%dl, %al
	addq	$32, %rsp
	popq	%rbx
	ret
	.seh_endproc
	.section	.text.unlikely._ZN7testing8internal13ParseBoolFlagEPKcS2_Pb,"x"
.LCOLDE250:
	.section	.text$_ZN7testing8internal13ParseBoolFlagEPKcS2_Pb,"x"
.LHOTE250:
	.section	.text.unlikely._ZN7testing8internal15ParseStringFlagEPKcS2_PNSt7__cxx1112basic_stringIcSt11char_traitsIcESaIcEEE,"x"
.LCOLDB251:
	.section	.text$_ZN7testing8internal15ParseStringFlagEPKcS2_PNSt7__cxx1112basic_stringIcSt11char_traitsIcESaIcEEE,"x"
.LHOTB251:
	.globl	_ZN7testing8internal15ParseStringFlagEPKcS2_PNSt7__cxx1112basic_stringIcSt11char_traitsIcESaIcEEE
	.def	_ZN7testing8internal15ParseStringFlagEPKcS2_PNSt7__cxx1112basic_stringIcSt11char_traitsIcESaIcEEE;	.scl	2;	.type	32;	.endef
	.seh_proc	_ZN7testing8internal15ParseStringFlagEPKcS2_PNSt7__cxx1112basic_stringIcSt11char_traitsIcESaIcEEE
_ZN7testing8internal15ParseStringFlagEPKcS2_PNSt7__cxx1112basic_stringIcSt11char_traitsIcESaIcEEE:
	pushq	%rbx
	.seh_pushreg	%rbx
	subq	$32, %rsp
	.seh_stackalloc	32
	.seh_endprologue
	movq	%r8, %rbx
	xorl	%r8d, %r8d
	call	_ZN7testing8internal14ParseFlagValueEPKcS2_b
	movq	%rax, %rdx
	xorl	%eax, %eax
	testq	%rdx, %rdx
	je	.L515
	movq	%rbx, %rcx
	call	_ZNSt7__cxx1112basic_stringIcSt11char_traitsIcESaIcEEaSEPKc
	movb	$1, %al
.L515:
	addq	$32, %rsp
	popq	%rbx
	ret
	.seh_endproc
	.section	.text.unlikely._ZN7testing8internal15ParseStringFlagEPKcS2_PNSt7__cxx1112basic_stringIcSt11char_traitsIcESaIcEEE,"x"
.LCOLDE251:
	.section	.text$_ZN7testing8internal15ParseStringFlagEPKcS2_PNSt7__cxx1112basic_stringIcSt11char_traitsIcESaIcEEE,"x"
.LHOTE251:
	.section	.text.unlikely._ZN7testing8internal16InDeathTestChildEv,"x"
.LCOLDB252:
	.section	.text$_ZN7testing8internal16InDeathTestChildEv,"x"
.LHOTB252:
	.globl	_ZN7testing8internal16InDeathTestChildEv
	.def	_ZN7testing8internal16InDeathTestChildEv;	.scl	2;	.type	32;	.endef
	.seh_proc	_ZN7testing8internal16InDeathTestChildEv
_ZN7testing8internal16InDeathTestChildEv:
	.seh_endprologue
	cmpq	$0, 8+_ZN7testing8internal35FLAGS_gtest_internal_run_death_testB5cxx11E(%rip)
	setne	%al
	ret
	.seh_endproc
	.section	.text.unlikely._ZN7testing8internal16InDeathTestChildEv,"x"
.LCOLDE252:
	.section	.text$_ZN7testing8internal16InDeathTestChildEv,"x"
.LHOTE252:
	.section	.text.unlikely._ZN7testing14ExitedWithCodeC2Ei,"x"
	.align 2
.LCOLDB253:
	.section	.text$_ZN7testing14ExitedWithCodeC2Ei,"x"
.LHOTB253:
	.align 2
	.globl	_ZN7testing14ExitedWithCodeC2Ei
	.def	_ZN7testing14ExitedWithCodeC2Ei;	.scl	2;	.type	32;	.endef
	.seh_proc	_ZN7testing14ExitedWithCodeC2Ei
_ZN7testing14ExitedWithCodeC2Ei:
	.seh_endprologue
	movl	%edx, (%rcx)
	ret
	.seh_endproc
	.section	.text.unlikely._ZN7testing14ExitedWithCodeC2Ei,"x"
.LCOLDE253:
	.section	.text$_ZN7testing14ExitedWithCodeC2Ei,"x"
.LHOTE253:
	.globl	_ZN7testing14ExitedWithCodeC1Ei
	.def	_ZN7testing14ExitedWithCodeC1Ei;	.scl	2;	.type	32;	.endef
	.set	_ZN7testing14ExitedWithCodeC1Ei,_ZN7testing14ExitedWithCodeC2Ei
	.section	.text.unlikely._ZNK7testing14ExitedWithCodeclEi,"x"
	.align 2
.LCOLDB254:
	.section	.text$_ZNK7testing14ExitedWithCodeclEi,"x"
.LHOTB254:
	.align 2
	.globl	_ZNK7testing14ExitedWithCodeclEi
	.def	_ZNK7testing14ExitedWithCodeclEi;	.scl	2;	.type	32;	.endef
	.seh_proc	_ZNK7testing14ExitedWithCodeclEi
_ZNK7testing14ExitedWithCodeclEi:
	.seh_endprologue
	cmpl	%edx, (%rcx)
	sete	%al
	ret
	.seh_endproc
	.section	.text.unlikely._ZNK7testing14ExitedWithCodeclEi,"x"
.LCOLDE254:
	.section	.text$_ZNK7testing14ExitedWithCodeclEi,"x"
.LHOTE254:
	.section	.text.unlikely._ZN7testing8internal20ExitedUnsuccessfullyEi,"x"
.LCOLDB255:
	.section	.text$_ZN7testing8internal20ExitedUnsuccessfullyEi,"x"
.LHOTB255:
	.globl	_ZN7testing8internal20ExitedUnsuccessfullyEi
	.def	_ZN7testing8internal20ExitedUnsuccessfullyEi;	.scl	2;	.type	32;	.endef
	.seh_proc	_ZN7testing8internal20ExitedUnsuccessfullyEi
_ZN7testing8internal20ExitedUnsuccessfullyEi:
	.seh_endprologue
	testl	%ecx, %ecx
	setne	%al
	ret
	.seh_endproc
	.section	.text.unlikely._ZN7testing8internal20ExitedUnsuccessfullyEi,"x"
.LCOLDE255:
	.section	.text$_ZN7testing8internal20ExitedUnsuccessfullyEi,"x"
.LHOTE255:
	.section	.text.unlikely._ZN7testing8internal23GetLastErrnoDescriptionB5cxx11Ev,"x"
.LCOLDB256:
	.section	.text$_ZN7testing8internal23GetLastErrnoDescriptionB5cxx11Ev,"x"
.LHOTB256:
	.globl	_ZN7testing8internal23GetLastErrnoDescriptionB5cxx11Ev
	.def	_ZN7testing8internal23GetLastErrnoDescriptionB5cxx11Ev;	.scl	2;	.type	32;	.endef
	.seh_proc	_ZN7testing8internal23GetLastErrnoDescriptionB5cxx11Ev
_ZN7testing8internal23GetLastErrnoDescriptionB5cxx11Ev:
	pushq	%rsi
	.seh_pushreg	%rsi
	pushq	%rbx
	.seh_pushreg	%rbx
	subq	$40, %rsp
	.seh_stackalloc	40
	.seh_endprologue
	movq	__imp__errno(%rip), %rsi
	movq	%rcx, %rbx
	call	*%rsi
	leaq	.LC72(%rip), %rdx
	cmpl	$0, (%rax)
	je	.L522
	call	*%rsi
	movl	(%rax), %ecx
	call	strerror
	movq	%rax, %rdx
.L522:
	movq	%rbx, %rcx
	call	_ZNSt7__cxx1112basic_stringIcSt11char_traitsIcESaIcEEC2EPKcRKS3_.isra.406
	movq	%rbx, %rax
	addq	$40, %rsp
	popq	%rbx
	popq	%rsi
	ret
	.seh_endproc
	.section	.text.unlikely._ZN7testing8internal23GetLastErrnoDescriptionB5cxx11Ev,"x"
.LCOLDE256:
	.section	.text$_ZN7testing8internal23GetLastErrnoDescriptionB5cxx11Ev,"x"
.LHOTE256:
	.section	.text.unlikely._ZN7testing8internal9DeathTest11LastMessageEv,"x"
	.align 2
.LCOLDB257:
	.section	.text$_ZN7testing8internal9DeathTest11LastMessageEv,"x"
.LHOTB257:
	.align 2
	.globl	_ZN7testing8internal9DeathTest11LastMessageEv
	.def	_ZN7testing8internal9DeathTest11LastMessageEv;	.scl	2;	.type	32;	.endef
	.seh_proc	_ZN7testing8internal9DeathTest11LastMessageEv
_ZN7testing8internal9DeathTest11LastMessageEv:
	.seh_endprologue
	movq	_ZN7testing8internal9DeathTest24last_death_test_message_B5cxx11E(%rip), %rax
	ret
	.seh_endproc
	.section	.text.unlikely._ZN7testing8internal9DeathTest11LastMessageEv,"x"
.LCOLDE257:
	.section	.text$_ZN7testing8internal9DeathTest11LastMessageEv,"x"
.LHOTE257:
	.section	.text.unlikely._ZN7testing8internal9DeathTest27set_last_death_test_messageERKNSt7__cxx1112basic_stringIcSt11char_traitsIcESaIcEEE,"x"
	.align 2
.LCOLDB258:
	.section	.text$_ZN7testing8internal9DeathTest27set_last_death_test_messageERKNSt7__cxx1112basic_stringIcSt11char_traitsIcESaIcEEE,"x"
.LHOTB258:
	.align 2
	.globl	_ZN7testing8internal9DeathTest27set_last_death_test_messageERKNSt7__cxx1112basic_stringIcSt11char_traitsIcESaIcEEE
	.def	_ZN7testing8internal9DeathTest27set_last_death_test_messageERKNSt7__cxx1112basic_stringIcSt11char_traitsIcESaIcEEE;	.scl	2;	.type	32;	.endef
	.seh_proc	_ZN7testing8internal9DeathTest27set_last_death_test_messageERKNSt7__cxx1112basic_stringIcSt11char_traitsIcESaIcEEE
_ZN7testing8internal9DeathTest27set_last_death_test_messageERKNSt7__cxx1112basic_stringIcSt11char_traitsIcESaIcEEE:
	.seh_endprologue
	movq	%rcx, %rdx
	leaq	_ZN7testing8internal9DeathTest24last_death_test_message_B5cxx11E(%rip), %rcx
	jmp	_ZNSt7__cxx1112basic_stringIcSt11char_traitsIcESaIcEE9_M_assignERKS4_
	.seh_endproc
	.section	.text.unlikely._ZN7testing8internal9DeathTest27set_last_death_test_messageERKNSt7__cxx1112basic_stringIcSt11char_traitsIcESaIcEEE,"x"
.LCOLDE258:
	.section	.text$_ZN7testing8internal9DeathTest27set_last_death_test_messageERKNSt7__cxx1112basic_stringIcSt11char_traitsIcESaIcEEE,"x"
.LHOTE258:
	.section	.text.unlikely._ZNK7testing8internal8FilePath21FindLastPathSeparatorEv,"x"
	.align 2
.LCOLDB259:
	.section	.text$_ZNK7testing8internal8FilePath21FindLastPathSeparatorEv,"x"
.LHOTB259:
	.align 2
	.globl	_ZNK7testing8internal8FilePath21FindLastPathSeparatorEv
	.def	_ZNK7testing8internal8FilePath21FindLastPathSeparatorEv;	.scl	2;	.type	32;	.endef
	.seh_proc	_ZNK7testing8internal8FilePath21FindLastPathSeparatorEv
_ZNK7testing8internal8FilePath21FindLastPathSeparatorEv:
	pushq	%rsi
	.seh_pushreg	%rsi
	pushq	%rbx
	.seh_pushreg	%rbx
	subq	$40, %rsp
	.seh_stackalloc	40
	.seh_endprologue
	movl	$92, %edx
	movq	(%rcx), %rsi
	movq	%rsi, %rcx
	call	strrchr
	movl	$47, %edx
	movq	%rsi, %rcx
	movq	%rax, %rbx
	call	strrchr
	movq	%rbx, %rdx
	testq	%rax, %rax
	je	.L527
	testq	%rbx, %rbx
	je	.L531
	cmpq	%rax, %rbx
	jnb	.L527
.L531:
	movq	%rax, %rdx
.L527:
	movq	%rdx, %rax
	addq	$40, %rsp
	popq	%rbx
	popq	%rsi
	ret
	.seh_endproc
	.section	.text.unlikely._ZNK7testing8internal8FilePath21FindLastPathSeparatorEv,"x"
.LCOLDE259:
	.section	.text$_ZNK7testing8internal8FilePath21FindLastPathSeparatorEv,"x"
.LHOTE259:
	.section	.text.unlikely._ZNK7testing8internal8FilePath21FileOrDirectoryExistsEv,"x"
	.align 2
.LCOLDB260:
	.section	.text$_ZNK7testing8internal8FilePath21FileOrDirectoryExistsEv,"x"
.LHOTB260:
	.align 2
	.globl	_ZNK7testing8internal8FilePath21FileOrDirectoryExistsEv
	.def	_ZNK7testing8internal8FilePath21FileOrDirectoryExistsEv;	.scl	2;	.type	32;	.endef
	.seh_proc	_ZNK7testing8internal8FilePath21FileOrDirectoryExistsEv
_ZNK7testing8internal8FilePath21FileOrDirectoryExistsEv:
	subq	$88, %rsp
	.seh_stackalloc	88
	.seh_endprologue
	movq	(%rcx), %rcx
	leaq	32(%rsp), %rdx
	call	_stat64i32
	testl	%eax, %eax
	sete	%al
	addq	$88, %rsp
	ret
	.seh_endproc
	.section	.text.unlikely._ZNK7testing8internal8FilePath21FileOrDirectoryExistsEv,"x"
.LCOLDE260:
	.section	.text$_ZNK7testing8internal8FilePath21FileOrDirectoryExistsEv,"x"
.LHOTE260:
	.section	.text.unlikely._ZNK7testing8internal8FilePath14IsAbsolutePathEv,"x"
	.align 2
.LCOLDB261:
	.section	.text$_ZNK7testing8internal8FilePath14IsAbsolutePathEv,"x"
.LHOTB261:
	.align 2
	.globl	_ZNK7testing8internal8FilePath14IsAbsolutePathEv
	.def	_ZNK7testing8internal8FilePath14IsAbsolutePathEv;	.scl	2;	.type	32;	.endef
	.seh_proc	_ZNK7testing8internal8FilePath14IsAbsolutePathEv
_ZNK7testing8internal8FilePath14IsAbsolutePathEv:
	.seh_endprologue
	xorl	%eax, %eax
	cmpq	$2, 8(%rcx)
	jbe	.L535
	movq	(%rcx), %rcx
	movb	(%rcx), %dl
	andl	$-33, %edx
	subl	$65, %edx
	cmpb	$25, %dl
	ja	.L535
	cmpb	$58, 1(%rcx)
	jne	.L535
	movb	2(%rcx), %dl
	cmpb	$92, %dl
	sete	%cl
	cmpb	$47, %dl
	sete	%al
	orl	%ecx, %eax
.L535:
	ret
	.seh_endproc
	.section	.text.unlikely._ZNK7testing8internal8FilePath14IsAbsolutePathEv,"x"
.LCOLDE261:
	.section	.text$_ZNK7testing8internal8FilePath14IsAbsolutePathEv,"x"
.LHOTE261:
	.section	.text.unlikely._ZNK7testing8internal8FilePath15IsRootDirectoryEv,"x"
	.align 2
.LCOLDB262:
	.section	.text$_ZNK7testing8internal8FilePath15IsRootDirectoryEv,"x"
.LHOTB262:
	.align 2
	.globl	_ZNK7testing8internal8FilePath15IsRootDirectoryEv
	.def	_ZNK7testing8internal8FilePath15IsRootDirectoryEv;	.scl	2;	.type	32;	.endef
	.seh_proc	_ZNK7testing8internal8FilePath15IsRootDirectoryEv
_ZNK7testing8internal8FilePath15IsRootDirectoryEv:
	.seh_endprologue
	cmpq	$3, 8(%rcx)
	jne	.L540
	jmp	_ZNK7testing8internal8FilePath14IsAbsolutePathEv
.L540:
	xorl	%eax, %eax
	ret
	.seh_endproc
	.section	.text.unlikely._ZNK7testing8internal8FilePath15IsRootDirectoryEv,"x"
.LCOLDE262:
	.section	.text$_ZNK7testing8internal8FilePath15IsRootDirectoryEv,"x"
.LHOTE262:
	.section	.text.unlikely._ZNK7testing8internal8FilePath11IsDirectoryEv,"x"
	.align 2
.LCOLDB263:
	.section	.text$_ZNK7testing8internal8FilePath11IsDirectoryEv,"x"
.LHOTB263:
	.align 2
	.globl	_ZNK7testing8internal8FilePath11IsDirectoryEv
	.def	_ZNK7testing8internal8FilePath11IsDirectoryEv;	.scl	2;	.type	32;	.endef
	.seh_proc	_ZNK7testing8internal8FilePath11IsDirectoryEv
_ZNK7testing8internal8FilePath11IsDirectoryEv:
	.seh_endprologue
	xorl	%eax, %eax
	movq	8(%rcx), %rdx
	testq	%rdx, %rdx
	je	.L542
	movq	(%rcx), %rax
	movb	-1(%rax,%rdx), %dl
	cmpb	$92, %dl
	sete	%cl
	cmpb	$47, %dl
	sete	%al
	orl	%ecx, %eax
.L542:
	ret
	.seh_endproc
	.section	.text.unlikely._ZNK7testing8internal8FilePath11IsDirectoryEv,"x"
.LCOLDE263:
	.section	.text$_ZNK7testing8internal8FilePath11IsDirectoryEv,"x"
.LHOTE263:
	.section	.text.unlikely._ZN7testing8internal8FilePath9NormalizeEv,"x"
	.align 2
.LCOLDB264:
	.section	.text$_ZN7testing8internal8FilePath9NormalizeEv,"x"
.LHOTB264:
	.align 2
	.globl	_ZN7testing8internal8FilePath9NormalizeEv
	.def	_ZN7testing8internal8FilePath9NormalizeEv;	.scl	2;	.type	32;	.endef
	.seh_proc	_ZN7testing8internal8FilePath9NormalizeEv
_ZN7testing8internal8FilePath9NormalizeEv:
	pushq	%rbp
	.seh_pushreg	%rbp
	pushq	%rdi
	.seh_pushreg	%rdi
	pushq	%rsi
	.seh_pushreg	%rsi
	pushq	%rbx
	.seh_pushreg	%rbx
	subq	$40, %rsp
	.seh_stackalloc	40
	.seh_endprologue
	movq	(%rcx), %rbx
	movq	%rcx, %rbp
	testq	%rbx, %rbx
	jne	.L546
	leaq	.LC72(%rip), %rdx
	addq	$40, %rsp
	popq	%rbx
	popq	%rsi
	popq	%rdi
	popq	%rbp
	jmp	_ZNSt7__cxx1112basic_stringIcSt11char_traitsIcESaIcEEaSEPKc
.L546:
	movq	8(%rcx), %rax
	leaq	1(%rax), %rcx
	call	_Znay
	movb	$92, %r8b
	movq	%rax, %rsi
	movq	8(%rbp), %rax
	movq	%rsi, %rdi
	movq	%rsi, %rdx
	leaq	1(%rax), %rcx
	xorl	%eax, %eax
	rep stosb
.L553:
	movb	(%rbx), %al
	testb	%al, %al
	je	.L547
	movb	%al, (%rdx)
	movb	(%rbx), %cl
	cmpb	$92, %cl
	je	.L548
	cmpb	$47, %cl
	je	.L548
	incq	%rbx
	jmp	.L549
.L548:
	cmpb	$47, %al
	cmove	%r8d, %eax
	movb	%al, (%rdx)
.L552:
	movb	(%rbx), %al
	cmpb	$92, %al
	je	.L554
	cmpb	$47, %al
	jne	.L549
.L554:
	incq	%rbx
	jmp	.L552
.L549:
	incq	%rdx
	jmp	.L553
.L547:
	movq	%rbp, %rcx
	movb	$0, (%rdx)
	movq	%rsi, %rdx
	call	_ZNSt7__cxx1112basic_stringIcSt11char_traitsIcESaIcEEaSEPKc
	movq	%rsi, %rcx
	addq	$40, %rsp
	popq	%rbx
	popq	%rsi
	popq	%rdi
	popq	%rbp
	jmp	_ZdaPv
	.seh_endproc
	.section	.text.unlikely._ZN7testing8internal8FilePath9NormalizeEv,"x"
.LCOLDE264:
	.section	.text$_ZN7testing8internal8FilePath9NormalizeEv,"x"
.LHOTE264:
	.section	.text$_ZN7testing8internal8FilePathC4ERKNSt7__cxx1112basic_stringIcSt11char_traitsIcESaIcEEE,"x"
	.align 2
.LCOLDB265:
.LHOTB265:
	.align 2
	.def	_ZN7testing8internal8FilePathC4ERKNSt7__cxx1112basic_stringIcSt11char_traitsIcESaIcEEE;	.scl	3;	.type	32;	.endef
	.seh_proc	_ZN7testing8internal8FilePathC4ERKNSt7__cxx1112basic_stringIcSt11char_traitsIcESaIcEEE
_ZN7testing8internal8FilePathC4ERKNSt7__cxx1112basic_stringIcSt11char_traitsIcESaIcEEE:
	pushq	%rbx
	.seh_pushreg	%rbx
	subq	$32, %rsp
	.seh_stackalloc	32
	.seh_endprologue
	movq	%rcx, %rbx
	call	_ZNSt7__cxx1112basic_stringIcSt11char_traitsIcESaIcEEC1ERKS4_
	movq	%rbx, %rcx
	addq	$32, %rsp
	popq	%rbx
	jmp	_ZN7testing8internal8FilePath9NormalizeEv
	.seh_endproc
.LCOLDE265:
.LHOTE265:
	.section	.text.unlikely._ZN7testing8internal8FilePath13GetCurrentDirEv,"x"
	.align 2
.LCOLDB266:
	.section	.text$_ZN7testing8internal8FilePath13GetCurrentDirEv,"x"
.LHOTB266:
	.align 2
	.globl	_ZN7testing8internal8FilePath13GetCurrentDirEv
	.def	_ZN7testing8internal8FilePath13GetCurrentDirEv;	.scl	2;	.type	32;	.endef
	.seh_proc	_ZN7testing8internal8FilePath13GetCurrentDirEv
_ZN7testing8internal8FilePath13GetCurrentDirEv:
	pushq	%rdi
	.seh_pushreg	%rdi
	pushq	%rsi
	.seh_pushreg	%rsi
	pushq	%rbx
	.seh_pushreg	%rbx
	subq	$336, %rsp
	.seh_stackalloc	336
	.seh_endprologue
	xorl	%eax, %eax
	movl	$261, %edx
	leaq	75(%rsp), %rbx
	movq	%rcx, %rsi
	movl	$261, %ecx
	leaq	75(%rsp), %rdi
	rep stosb
	movq	%rbx, %rcx
	call	*__imp__getcwd(%rip)
	leaq	.LC72(%rip), %rdx
	testq	%rax, %rax
	cmovne	%rbx, %rdx
	leaq	40(%rsp), %rbx
	movq	%rbx, %rcx
	call	_ZNSt7__cxx1112basic_stringIcSt11char_traitsIcESaIcEEC2EPKcRKS3_.isra.406
	movq	%rbx, %rdx
	movq	%rsi, %rcx
	call	_ZN7testing8internal8FilePathC4ERKNSt7__cxx1112basic_stringIcSt11char_traitsIcESaIcEEE
	movq	%rbx, %rcx
	call	_ZNSt7__cxx1112basic_stringIcSt11char_traitsIcESaIcEE10_M_disposeEv
	movq	%rsi, %rax
	addq	$336, %rsp
	popq	%rbx
	popq	%rsi
	popq	%rdi
	ret
	.seh_endproc
	.section	.text.unlikely._ZN7testing8internal8FilePath13GetCurrentDirEv,"x"
.LCOLDE266:
	.section	.text$_ZN7testing8internal8FilePath13GetCurrentDirEv,"x"
.LHOTE266:
	.section	.text.unlikely._ZNK7testing8internal8FilePath14RemoveFileNameEv,"x"
	.align 2
.LCOLDB267:
	.section	.text$_ZNK7testing8internal8FilePath14RemoveFileNameEv,"x"
.LHOTB267:
	.align 2
	.globl	_ZNK7testing8internal8FilePath14RemoveFileNameEv
	.def	_ZNK7testing8internal8FilePath14RemoveFileNameEv;	.scl	2;	.type	32;	.endef
	.seh_proc	_ZNK7testing8internal8FilePath14RemoveFileNameEv
_ZNK7testing8internal8FilePath14RemoveFileNameEv:
	pushq	%rdi
	.seh_pushreg	%rdi
	pushq	%rsi
	.seh_pushreg	%rsi
	pushq	%rbx
	.seh_pushreg	%rbx
	subq	$96, %rsp
	.seh_stackalloc	96
	.seh_endprologue
	leaq	32(%rsp), %rbx
	movq	%rcx, %rdi
	movq	%rdx, %rcx
	movq	%rdx, %rsi
	call	_ZNK7testing8internal8FilePath21FindLastPathSeparatorEv
	leaq	16(%rbx), %rdx
	movb	$0, 48(%rsp)
	movq	%rdx, 32(%rsp)
	movq	$0, 40(%rsp)
	testq	%rax, %rax
	je	.L563
	movq	(%rsi), %rdx
	leaq	80(%rsp), %rcx
	leaq	64(%rsp), %rsi
	movq	%rcx, 64(%rsp)
	leaq	1(%rax), %r8
	movq	%rsi, %rcx
	call	_ZNSt7__cxx1112basic_stringIcSt11char_traitsIcESaIcEE12_M_constructIPKcEEvT_S8_St20forward_iterator_tag.isra.404
	movq	%rbx, %rcx
	movq	%rsi, %rdx
	call	_ZNSt7__cxx1112basic_stringIcSt11char_traitsIcESaIcEE4swapERS4_
	movq	%rsi, %rcx
	call	_ZNSt7__cxx1112basic_stringIcSt11char_traitsIcESaIcEE10_M_disposeEv
	jmp	.L564
.L563:
	leaq	_ZN7testing8internalL23kCurrentDirectoryStringE(%rip), %rdx
	movq	%rbx, %rcx
	call	_ZNSt7__cxx1112basic_stringIcSt11char_traitsIcESaIcEEaSEPKc
.L564:
	movq	%rbx, %rdx
	movq	%rdi, %rcx
	call	_ZN7testing8internal8FilePathC4ERKNSt7__cxx1112basic_stringIcSt11char_traitsIcESaIcEEE
	movq	%rbx, %rcx
	call	_ZNSt7__cxx1112basic_stringIcSt11char_traitsIcESaIcEE10_M_disposeEv
	movq	%rdi, %rax
	addq	$96, %rsp
	popq	%rbx
	popq	%rsi
	popq	%rdi
	ret
	.seh_endproc
	.section	.text.unlikely._ZNK7testing8internal8FilePath14RemoveFileNameEv,"x"
.LCOLDE267:
	.section	.text$_ZNK7testing8internal8FilePath14RemoveFileNameEv,"x"
.LHOTE267:
	.section	.text.unlikely._ZNK7testing8internal8FilePath19RemoveDirectoryNameEv,"x"
	.align 2
.LCOLDB268:
	.section	.text$_ZNK7testing8internal8FilePath19RemoveDirectoryNameEv,"x"
.LHOTB268:
	.align 2
	.globl	_ZNK7testing8internal8FilePath19RemoveDirectoryNameEv
	.def	_ZNK7testing8internal8FilePath19RemoveDirectoryNameEv;	.scl	2;	.type	32;	.endef
	.seh_proc	_ZNK7testing8internal8FilePath19RemoveDirectoryNameEv
_ZNK7testing8internal8FilePath19RemoveDirectoryNameEv:
	pushq	%rsi
	.seh_pushreg	%rsi
	pushq	%rbx
	.seh_pushreg	%rbx
	subq	$88, %rsp
	.seh_stackalloc	88
	.seh_endprologue
	movq	%rcx, %rbx
	movq	%rdx, %rcx
	movq	%rdx, 40(%rsp)
	call	_ZNK7testing8internal8FilePath21FindLastPathSeparatorEv
	movq	40(%rsp), %rdx
	testq	%rax, %rax
	je	.L566
	leaq	48(%rsp), %rsi
	leaq	1(%rax), %rdx
	movq	%rsi, %rcx
	call	_ZNSt7__cxx1112basic_stringIcSt11char_traitsIcESaIcEEC2EPKcRKS3_.isra.406
	movq	%rbx, %rcx
	movq	%rsi, %rdx
	call	_ZN7testing8internal8FilePathC4ERKNSt7__cxx1112basic_stringIcSt11char_traitsIcESaIcEEE
	movq	%rsi, %rcx
	call	_ZNSt7__cxx1112basic_stringIcSt11char_traitsIcESaIcEE10_M_disposeEv
	jmp	.L565
.L566:
	movq	%rbx, %rcx
	call	_ZNSt7__cxx1112basic_stringIcSt11char_traitsIcESaIcEEC1ERKS4_
.L565:
	movq	%rbx, %rax
	addq	$88, %rsp
	popq	%rbx
	popq	%rsi
	ret
	.seh_endproc
	.section	.text.unlikely._ZNK7testing8internal8FilePath19RemoveDirectoryNameEv,"x"
.LCOLDE268:
	.section	.text$_ZNK7testing8internal8FilePath19RemoveDirectoryNameEv,"x"
.LHOTE268:
	.section	.text.unlikely._ZNK7testing8internal8FilePath27RemoveTrailingPathSeparatorEv,"x"
	.align 2
.LCOLDB269:
	.section	.text$_ZNK7testing8internal8FilePath27RemoveTrailingPathSeparatorEv,"x"
.LHOTB269:
	.align 2
	.globl	_ZNK7testing8internal8FilePath27RemoveTrailingPathSeparatorEv
	.def	_ZNK7testing8internal8FilePath27RemoveTrailingPathSeparatorEv;	.scl	2;	.type	32;	.endef
	.seh_proc	_ZNK7testing8internal8FilePath27RemoveTrailingPathSeparatorEv
_ZNK7testing8internal8FilePath27RemoveTrailingPathSeparatorEv:
	pushq	%rsi
	.seh_pushreg	%rsi
	pushq	%rbx
	.seh_pushreg	%rbx
	subq	$88, %rsp
	.seh_stackalloc	88
	.seh_endprologue
	movq	%rcx, %rbx
	movq	%rdx, %rcx
	movq	%rdx, 40(%rsp)
	call	_ZNK7testing8internal8FilePath11IsDirectoryEv
	movq	40(%rsp), %rdx
	testb	%al, %al
	je	.L569
	movq	8(%rdx), %r9
	leaq	48(%rsp), %rsi
	xorl	%r8d, %r8d
	movq	%rsi, %rcx
	decq	%r9
	call	_ZNKSt7__cxx1112basic_stringIcSt11char_traitsIcESaIcEE6substrEyy
	movq	%rbx, %rcx
	movq	%rsi, %rdx
	call	_ZN7testing8internal8FilePathC4ERKNSt7__cxx1112basic_stringIcSt11char_traitsIcESaIcEEE
	movq	%rsi, %rcx
	call	_ZNSt7__cxx1112basic_stringIcSt11char_traitsIcESaIcEE10_M_disposeEv
	jmp	.L568
.L569:
	movq	%rbx, %rcx
	call	_ZNSt7__cxx1112basic_stringIcSt11char_traitsIcESaIcEEC1ERKS4_
.L568:
	movq	%rbx, %rax
	addq	$88, %rsp
	popq	%rbx
	popq	%rsi
	ret
	.seh_endproc
	.section	.text.unlikely._ZNK7testing8internal8FilePath27RemoveTrailingPathSeparatorEv,"x"
.LCOLDE269:
	.section	.text$_ZNK7testing8internal8FilePath27RemoveTrailingPathSeparatorEv,"x"
.LHOTE269:
	.section	.text.unlikely._ZNK7testing8internal8FilePath15DirectoryExistsEv,"x"
	.align 2
.LCOLDB270:
	.section	.text$_ZNK7testing8internal8FilePath15DirectoryExistsEv,"x"
.LHOTB270:
	.align 2
	.globl	_ZNK7testing8internal8FilePath15DirectoryExistsEv
	.def	_ZNK7testing8internal8FilePath15DirectoryExistsEv;	.scl	2;	.type	32;	.endef
	.seh_proc	_ZNK7testing8internal8FilePath15DirectoryExistsEv
_ZNK7testing8internal8FilePath15DirectoryExistsEv:
	pushq	%rsi
	.seh_pushreg	%rsi
	pushq	%rbx
	.seh_pushreg	%rbx
	subq	$136, %rsp
	.seh_stackalloc	136
	.seh_endprologue
	movq	%rcx, 40(%rsp)
	leaq	48(%rsp), %rsi
	call	_ZNK7testing8internal8FilePath15IsRootDirectoryEv
	movq	40(%rsp), %rdx
	movq	%rsi, %rcx
	testb	%al, %al
	je	.L572
	call	_ZNSt7__cxx1112basic_stringIcSt11char_traitsIcESaIcEEC1ERKS4_
	jmp	.L573
.L572:
	call	_ZNK7testing8internal8FilePath27RemoveTrailingPathSeparatorEv
.L573:
	movq	48(%rsp), %rcx
	leaq	80(%rsp), %rdx
	xorl	%ebx, %ebx
	call	_stat64i32
	testl	%eax, %eax
	jne	.L574
	movw	86(%rsp), %bx
	shrw	$14, %bx
	andl	$1, %ebx
.L574:
	movq	%rsi, %rcx
	call	_ZNSt7__cxx1112basic_stringIcSt11char_traitsIcESaIcEE10_M_disposeEv
	movb	%bl, %al
	addq	$136, %rsp
	popq	%rbx
	popq	%rsi
	ret
	.seh_endproc
	.section	.text.unlikely._ZNK7testing8internal8FilePath15DirectoryExistsEv,"x"
.LCOLDE270:
	.section	.text$_ZNK7testing8internal8FilePath15DirectoryExistsEv,"x"
.LHOTE270:
	.section	.text.unlikely._ZNK7testing8internal8FilePath12CreateFolderEv,"x"
	.align 2
.LCOLDB271:
	.section	.text$_ZNK7testing8internal8FilePath12CreateFolderEv,"x"
.LHOTB271:
	.align 2
	.globl	_ZNK7testing8internal8FilePath12CreateFolderEv
	.def	_ZNK7testing8internal8FilePath12CreateFolderEv;	.scl	2;	.type	32;	.endef
	.seh_proc	_ZNK7testing8internal8FilePath12CreateFolderEv
_ZNK7testing8internal8FilePath12CreateFolderEv:
	pushq	%rbx
	.seh_pushreg	%rbx
	subq	$32, %rsp
	.seh_stackalloc	32
	.seh_endprologue
	movq	%rcx, %rbx
	movq	(%rcx), %rcx
	call	*__imp__mkdir(%rip)
	incl	%eax
	jne	.L577
	movq	%rbx, %rcx
	addq	$32, %rsp
	popq	%rbx
	jmp	_ZNK7testing8internal8FilePath15DirectoryExistsEv
.L577:
	movb	$1, %al
	addq	$32, %rsp
	popq	%rbx
	ret
	.seh_endproc
	.section	.text.unlikely._ZNK7testing8internal8FilePath12CreateFolderEv,"x"
.LCOLDE271:
	.section	.text$_ZNK7testing8internal8FilePath12CreateFolderEv,"x"
.LHOTE271:
	.section	.text.unlikely._ZNK7testing8internal8FilePath28CreateDirectoriesRecursivelyEv,"x"
	.align 2
.LCOLDB272:
	.section	.text$_ZNK7testing8internal8FilePath28CreateDirectoriesRecursivelyEv,"x"
.LHOTB272:
	.align 2
	.globl	_ZNK7testing8internal8FilePath28CreateDirectoriesRecursivelyEv
	.def	_ZNK7testing8internal8FilePath28CreateDirectoriesRecursivelyEv;	.scl	2;	.type	32;	.endef
	.seh_proc	_ZNK7testing8internal8FilePath28CreateDirectoriesRecursivelyEv
_ZNK7testing8internal8FilePath28CreateDirectoriesRecursivelyEv:
	pushq	%rdi
	.seh_pushreg	%rdi
	pushq	%rsi
	.seh_pushreg	%rsi
	pushq	%rbx
	.seh_pushreg	%rbx
	subq	$96, %rsp
	.seh_stackalloc	96
	.seh_endprologue
	movq	%rcx, %rsi
	call	_ZNK7testing8internal8FilePath11IsDirectoryEv
	movb	%al, %bl
	testb	%al, %al
	je	.L585
	cmpq	$0, 8(%rsi)
	je	.L585
	movq	%rsi, %rcx
	call	_ZNK7testing8internal8FilePath15DirectoryExistsEv
	testb	%al, %al
	jne	.L585
	leaq	64(%rsp), %rbx
	movq	%rsi, %rdx
	leaq	32(%rsp), %rdi
	movq	%rbx, %rcx
	call	_ZNK7testing8internal8FilePath27RemoveTrailingPathSeparatorEv
	movq	%rbx, %rdx
	movq	%rdi, %rcx
	call	_ZNK7testing8internal8FilePath14RemoveFileNameEv
	movq	%rbx, %rcx
	call	_ZNSt7__cxx1112basic_stringIcSt11char_traitsIcESaIcEE10_M_disposeEv
	movq	%rdi, %rcx
	call	_ZNK7testing8internal8FilePath28CreateDirectoriesRecursivelyEv
	movb	%al, %bl
	testb	%al, %al
	je	.L583
	movq	%rsi, %rcx
	call	_ZNK7testing8internal8FilePath12CreateFolderEv
	movb	%al, %bl
.L583:
	movq	%rdi, %rcx
	call	_ZNSt7__cxx1112basic_stringIcSt11char_traitsIcESaIcEE10_M_disposeEv
.L585:
	movb	%bl, %al
	addq	$96, %rsp
	popq	%rbx
	popq	%rsi
	popq	%rdi
	ret
	.seh_endproc
	.section	.text.unlikely._ZNK7testing8internal8FilePath28CreateDirectoriesRecursivelyEv,"x"
.LCOLDE272:
	.section	.text$_ZNK7testing8internal8FilePath28CreateDirectoriesRecursivelyEv,"x"
.LHOTE272:
	.section	.text.unlikely._ZN7testing8internal8FilePath11ConcatPathsERKS1_S3_,"x"
	.align 2
.LCOLDB273:
	.section	.text$_ZN7testing8internal8FilePath11ConcatPathsERKS1_S3_,"x"
.LHOTB273:
	.align 2
	.globl	_ZN7testing8internal8FilePath11ConcatPathsERKS1_S3_
	.def	_ZN7testing8internal8FilePath11ConcatPathsERKS1_S3_;	.scl	2;	.type	32;	.endef
	.seh_proc	_ZN7testing8internal8FilePath11ConcatPathsERKS1_S3_
_ZN7testing8internal8FilePath11ConcatPathsERKS1_S3_:
	pushq	%rbp
	.seh_pushreg	%rbp
	pushq	%rdi
	.seh_pushreg	%rdi
	pushq	%rsi
	.seh_pushreg	%rsi
	pushq	%rbx
	.seh_pushreg	%rbx
	subq	$136, %rsp
	.seh_stackalloc	136
	.seh_endprologue
	cmpq	$0, 8(%rdx)
	movq	%rcx, %rsi
	movq	%r8, %rbp
	jne	.L590
	movq	%r8, %rdx
	call	_ZNSt7__cxx1112basic_stringIcSt11char_traitsIcESaIcEEC1ERKS4_
	jmp	.L589
.L590:
	leaq	32(%rsp), %rdi
	leaq	64(%rsp), %rbx
	movq	%rdi, %rcx
	call	_ZNK7testing8internal8FilePath27RemoveTrailingPathSeparatorEv
	movq	%rdi, %rdx
	movq	%rbx, %rcx
	call	_ZNSt7__cxx1112basic_stringIcSt11char_traitsIcESaIcEEC1ERKS4_
	movl	$92, %r8d
	movl	$1, %edx
	movq	%rbx, %rcx
	call	_ZNSt7__cxx1112basic_stringIcSt11char_traitsIcESaIcEE6appendEyc
	movq	%rbp, %rdx
	movq	%rbx, %rcx
	call	_ZNSt7__cxx1112basic_stringIcSt11char_traitsIcESaIcEE6appendERKS4_
	leaq	96(%rsp), %rbp
	movq	%rax, %rdx
	movq	%rbp, %rcx
	call	_ZNSt7__cxx1112basic_stringIcSt11char_traitsIcESaIcEEC1EOS4_
	movq	%rbp, %rdx
	movq	%rsi, %rcx
	call	_ZN7testing8internal8FilePathC4ERKNSt7__cxx1112basic_stringIcSt11char_traitsIcESaIcEEE
	movq	%rbp, %rcx
	call	_ZNSt7__cxx1112basic_stringIcSt11char_traitsIcESaIcEE10_M_disposeEv
	movq	%rbx, %rcx
	call	_ZNSt7__cxx1112basic_stringIcSt11char_traitsIcESaIcEE10_M_disposeEv
	movq	%rdi, %rcx
	call	_ZNSt7__cxx1112basic_stringIcSt11char_traitsIcESaIcEE10_M_disposeEv
.L589:
	movq	%rsi, %rax
	addq	$136, %rsp
	popq	%rbx
	popq	%rsi
	popq	%rdi
	popq	%rbp
	ret
	.seh_endproc
	.section	.text.unlikely._ZN7testing8internal8FilePath11ConcatPathsERKS1_S3_,"x"
.LCOLDE273:
	.section	.text$_ZN7testing8internal8FilePath11ConcatPathsERKS1_S3_,"x"
.LHOTE273:
	.section	.text.unlikely._ZNK7testing8internal8FilePath15RemoveExtensionEPKc,"x"
	.align 2
.LCOLDB274:
	.section	.text$_ZNK7testing8internal8FilePath15RemoveExtensionEPKc,"x"
.LHOTB274:
	.align 2
	.globl	_ZNK7testing8internal8FilePath15RemoveExtensionEPKc
	.def	_ZNK7testing8internal8FilePath15RemoveExtensionEPKc;	.scl	2;	.type	32;	.endef
	.seh_proc	_ZNK7testing8internal8FilePath15RemoveExtensionEPKc
_ZNK7testing8internal8FilePath15RemoveExtensionEPKc:
	pushq	%rbp
	.seh_pushreg	%rbp
	pushq	%rdi
	.seh_pushreg	%rdi
	pushq	%rsi
	.seh_pushreg	%rsi
	pushq	%rbx
	.seh_pushreg	%rbx
	subq	$120, %rsp
	.seh_stackalloc	120
	.seh_endprologue
	leaq	80(%rsp), %rbx
	movq	%rdx, %rsi
	movq	%rcx, %rdi
	movq	%r8, 40(%rsp)
	leaq	.LC111(%rip), %rdx
	movq	%rbx, %rcx
	call	_ZNSt7__cxx1112basic_stringIcSt11char_traitsIcESaIcEEC2EPKcRKS3_.isra.406
	movq	40(%rsp), %r8
	movq	%rbx, %rcx
	leaq	48(%rsp), %rbp
	movq	%r8, %rdx
	call	_ZNSt7__cxx1112basic_stringIcSt11char_traitsIcESaIcEE6appendEPKc
	movq	%rbp, %rcx
	movq	%rax, %rdx
	call	_ZNSt7__cxx1112basic_stringIcSt11char_traitsIcESaIcEEC1EOS4_
	movq	%rbx, %rcx
	call	_ZNSt7__cxx1112basic_stringIcSt11char_traitsIcESaIcEE10_M_disposeEv
	movq	%rbp, %rdx
	movq	%rsi, %rcx
	call	_ZN7testing8internal6String23EndsWithCaseInsensitiveERKNSt7__cxx1112basic_stringIcSt11char_traitsIcESaIcEEES9_
	testb	%al, %al
	je	.L593
	movq	8(%rsi), %r9
	xorl	%r8d, %r8d
	movq	%rsi, %rdx
	movq	%rbx, %rcx
	subq	56(%rsp), %r9
	call	_ZNKSt7__cxx1112basic_stringIcSt11char_traitsIcESaIcEE6substrEyy
	movq	%rdi, %rcx
	movq	%rbx, %rdx
	call	_ZN7testing8internal8FilePathC4ERKNSt7__cxx1112basic_stringIcSt11char_traitsIcESaIcEEE
	movq	%rbx, %rcx
	call	_ZNSt7__cxx1112basic_stringIcSt11char_traitsIcESaIcEE10_M_disposeEv
	jmp	.L594
.L593:
	movq	%rsi, %rdx
	movq	%rdi, %rcx
	call	_ZNSt7__cxx1112basic_stringIcSt11char_traitsIcESaIcEEC1ERKS4_
.L594:
	movq	%rbp, %rcx
	call	_ZNSt7__cxx1112basic_stringIcSt11char_traitsIcESaIcEE10_M_disposeEv
	movq	%rdi, %rax
	addq	$120, %rsp
	popq	%rbx
	popq	%rsi
	popq	%rdi
	popq	%rbp
	ret
	.seh_endproc
	.section	.text.unlikely._ZNK7testing8internal8FilePath15RemoveExtensionEPKc,"x"
.LCOLDE274:
	.section	.text$_ZNK7testing8internal8FilePath15RemoveExtensionEPKc,"x"
.LHOTE274:
	.section .rdata,"dr"
.LC275:
	.ascii "exe\0"
	.section	.text.unlikely._ZN7testing8internal24GetCurrentExecutableNameEv,"x"
.LCOLDB276:
	.section	.text$_ZN7testing8internal24GetCurrentExecutableNameEv,"x"
.LHOTB276:
	.globl	_ZN7testing8internal24GetCurrentExecutableNameEv
	.def	_ZN7testing8internal24GetCurrentExecutableNameEv;	.scl	2;	.type	32;	.endef
	.seh_proc	_ZN7testing8internal24GetCurrentExecutableNameEv
_ZN7testing8internal24GetCurrentExecutableNameEv:
	pushq	%rbp
	.seh_pushreg	%rbp
	pushq	%rdi
	.seh_pushreg	%rdi
	pushq	%rsi
	.seh_pushreg	%rsi
	pushq	%rbx
	.seh_pushreg	%rbx
	subq	$136, %rsp
	.seh_stackalloc	136
	.seh_endprologue
	leaq	.LC72(%rip), %rdx
	leaq	32(%rsp), %rbx
	movq	%rcx, %rbp
	leaq	64(%rsp), %rsi
	movq	%rbx, %rcx
	call	_ZNSt7__cxx1112basic_stringIcSt11char_traitsIcESaIcEEC2EPKcRKS3_.isra.406
	leaq	96(%rsp), %rdi
	movq	%rsi, %rcx
	leaq	_ZN7testing8internal17g_executable_pathB5cxx11E(%rip), %rdx
	call	_ZN7testing8internal8FilePathC4ERKNSt7__cxx1112basic_stringIcSt11char_traitsIcESaIcEEE
	leaq	.LC275(%rip), %r8
	movq	%rsi, %rdx
	movq	%rdi, %rcx
	call	_ZNK7testing8internal8FilePath15RemoveExtensionEPKc
	movq	%rdi, %rdx
	movq	%rbx, %rcx
	call	_ZNSt7__cxx1112basic_stringIcSt11char_traitsIcESaIcEE9_M_assignERKS4_
	movq	%rdi, %rcx
	call	_ZNSt7__cxx1112basic_stringIcSt11char_traitsIcESaIcEE10_M_disposeEv
	movq	%rsi, %rcx
	call	_ZNSt7__cxx1112basic_stringIcSt11char_traitsIcESaIcEE10_M_disposeEv
	movq	%rbx, %rdx
	movq	%rbp, %rcx
	call	_ZNK7testing8internal8FilePath19RemoveDirectoryNameEv
	movq	%rbx, %rcx
	call	_ZNSt7__cxx1112basic_stringIcSt11char_traitsIcESaIcEE10_M_disposeEv
	movq	%rbp, %rax
	addq	$136, %rsp
	popq	%rbx
	popq	%rsi
	popq	%rdi
	popq	%rbp
	ret
	.seh_endproc
	.section	.text.unlikely._ZN7testing8internal24GetCurrentExecutableNameEv,"x"
.LCOLDE276:
	.section	.text$_ZN7testing8internal24GetCurrentExecutableNameEv,"x"
.LHOTE276:
	.section	.text.unlikely._ZN7testing8internal14GetThreadCountEv,"x"
.LCOLDB277:
	.section	.text$_ZN7testing8internal14GetThreadCountEv,"x"
.LHOTB277:
	.globl	_ZN7testing8internal14GetThreadCountEv
	.def	_ZN7testing8internal14GetThreadCountEv;	.scl	2;	.type	32;	.endef
	.seh_proc	_ZN7testing8internal14GetThreadCountEv
_ZN7testing8internal14GetThreadCountEv:
	.seh_endprologue
	xorl	%eax, %eax
	ret
	.seh_endproc
	.section	.text.unlikely._ZN7testing8internal14GetThreadCountEv,"x"
.LCOLDE277:
	.section	.text$_ZN7testing8internal14GetThreadCountEv,"x"
.LHOTE277:
	.section	.text.unlikely._ZN7testing8internal7IsInSetEcPKc,"x"
.LCOLDB278:
	.section	.text$_ZN7testing8internal7IsInSetEcPKc,"x"
.LHOTB278:
	.globl	_ZN7testing8internal7IsInSetEcPKc
	.def	_ZN7testing8internal7IsInSetEcPKc;	.scl	2;	.type	32;	.endef
	.seh_proc	_ZN7testing8internal7IsInSetEcPKc
_ZN7testing8internal7IsInSetEcPKc:
	subq	$40, %rsp
	.seh_stackalloc	40
	.seh_endprologue
	xorl	%eax, %eax
	movq	%rdx, %r8
	testb	%cl, %cl
	je	.L598
	movsbl	%cl, %edx
	movq	%r8, %rcx
	call	strchr
	testq	%rax, %rax
	setne	%al
.L598:
	addq	$40, %rsp
	ret
	.seh_endproc
	.section	.text.unlikely._ZN7testing8internal7IsInSetEcPKc,"x"
.LCOLDE278:
	.section	.text$_ZN7testing8internal7IsInSetEcPKc,"x"
.LHOTE278:
	.section	.text.unlikely._ZN7testing8internal12IsAsciiDigitEc,"x"
.LCOLDB279:
	.section	.text$_ZN7testing8internal12IsAsciiDigitEc,"x"
.LHOTB279:
	.globl	_ZN7testing8internal12IsAsciiDigitEc
	.def	_ZN7testing8internal12IsAsciiDigitEc;	.scl	2;	.type	32;	.endef
	.seh_proc	_ZN7testing8internal12IsAsciiDigitEc
_ZN7testing8internal12IsAsciiDigitEc:
	.seh_endprologue
	subl	$48, %ecx
	cmpb	$9, %cl
	setbe	%al
	ret
	.seh_endproc
	.section	.text.unlikely._ZN7testing8internal12IsAsciiDigitEc,"x"
.LCOLDE279:
	.section	.text$_ZN7testing8internal12IsAsciiDigitEc,"x"
.LHOTE279:
	.section .rdata,"dr"
.LC280:
	.ascii "^-!\"#$%&'()*+,./:;<=>?@[\\]_`{|}~\0"
	.section	.text.unlikely._ZN7testing8internal12IsAsciiPunctEc,"x"
.LCOLDB281:
	.section	.text$_ZN7testing8internal12IsAsciiPunctEc,"x"
.LHOTB281:
	.globl	_ZN7testing8internal12IsAsciiPunctEc
	.def	_ZN7testing8internal12IsAsciiPunctEc;	.scl	2;	.type	32;	.endef
	.seh_proc	_ZN7testing8internal12IsAsciiPunctEc
_ZN7testing8internal12IsAsciiPunctEc:
	.seh_endprologue
	leaq	.LC280(%rip), %rdx
	movsbl	%cl, %ecx
	jmp	_ZN7testing8internal7IsInSetEcPKc
	.seh_endproc
	.section	.text.unlikely._ZN7testing8internal12IsAsciiPunctEc,"x"
.LCOLDE281:
	.section	.text$_ZN7testing8internal12IsAsciiPunctEc,"x"
.LHOTE281:
	.section .rdata,"dr"
.LC282:
	.ascii "?*+\0"
	.section	.text.unlikely._ZN7testing8internal8IsRepeatEc,"x"
.LCOLDB283:
	.section	.text$_ZN7testing8internal8IsRepeatEc,"x"
.LHOTB283:
	.globl	_ZN7testing8internal8IsRepeatEc
	.def	_ZN7testing8internal8IsRepeatEc;	.scl	2;	.type	32;	.endef
	.seh_proc	_ZN7testing8internal8IsRepeatEc
_ZN7testing8internal8IsRepeatEc:
	.seh_endprologue
	leaq	.LC282(%rip), %rdx
	movsbl	%cl, %ecx
	jmp	_ZN7testing8internal7IsInSetEcPKc
	.seh_endproc
	.section	.text.unlikely._ZN7testing8internal8IsRepeatEc,"x"
.LCOLDE283:
	.section	.text$_ZN7testing8internal8IsRepeatEc,"x"
.LHOTE283:
	.section .rdata,"dr"
.LC284:
	.ascii " \14\12\15\11\13\0"
	.section	.text.unlikely._ZN7testing8internal17IsAsciiWhiteSpaceEc,"x"
.LCOLDB285:
	.section	.text$_ZN7testing8internal17IsAsciiWhiteSpaceEc,"x"
.LHOTB285:
	.globl	_ZN7testing8internal17IsAsciiWhiteSpaceEc
	.def	_ZN7testing8internal17IsAsciiWhiteSpaceEc;	.scl	2;	.type	32;	.endef
	.seh_proc	_ZN7testing8internal17IsAsciiWhiteSpaceEc
_ZN7testing8internal17IsAsciiWhiteSpaceEc:
	.seh_endprologue
	leaq	.LC284(%rip), %rdx
	movsbl	%cl, %ecx
	jmp	_ZN7testing8internal7IsInSetEcPKc
	.seh_endproc
	.section	.text.unlikely._ZN7testing8internal17IsAsciiWhiteSpaceEc,"x"
.LCOLDE285:
	.section	.text$_ZN7testing8internal17IsAsciiWhiteSpaceEc,"x"
.LHOTE285:
	.section	.text.unlikely._ZN7testing8internal15IsAsciiWordCharEc,"x"
.LCOLDB286:
	.section	.text$_ZN7testing8internal15IsAsciiWordCharEc,"x"
.LHOTB286:
	.globl	_ZN7testing8internal15IsAsciiWordCharEc
	.def	_ZN7testing8internal15IsAsciiWordCharEc;	.scl	2;	.type	32;	.endef
	.seh_proc	_ZN7testing8internal15IsAsciiWordCharEc
_ZN7testing8internal15IsAsciiWordCharEc:
	.seh_endprologue
	movb	$1, %al
	movb	%cl, %dl
	andl	$-33, %edx
	subl	$65, %edx
	cmpb	$25, %dl
	jbe	.L605
	leal	-48(%rcx), %eax
	cmpb	$9, %al
	setbe	%dl
	cmpb	$95, %cl
	sete	%al
	orl	%edx, %eax
.L605:
	ret
	.seh_endproc
	.section	.text.unlikely._ZN7testing8internal15IsAsciiWordCharEc,"x"
.LCOLDE286:
	.section	.text$_ZN7testing8internal15IsAsciiWordCharEc,"x"
.LHOTE286:
	.section .rdata,"dr"
.LC287:
	.ascii "dDfnrsStvwW\0"
	.section	.text.unlikely._ZN7testing8internal13IsValidEscapeEc,"x"
.LCOLDB288:
	.section	.text$_ZN7testing8internal13IsValidEscapeEc,"x"
.LHOTB288:
	.globl	_ZN7testing8internal13IsValidEscapeEc
	.def	_ZN7testing8internal13IsValidEscapeEc;	.scl	2;	.type	32;	.endef
	.seh_proc	_ZN7testing8internal13IsValidEscapeEc
_ZN7testing8internal13IsValidEscapeEc:
	pushq	%rbx
	.seh_pushreg	%rbx
	subq	$32, %rsp
	.seh_stackalloc	32
	.seh_endprologue
	movsbl	%cl, %ebx
	movl	%ebx, %ecx
	call	_ZN7testing8internal12IsAsciiPunctEc
	testb	%al, %al
	jne	.L608
	leaq	.LC287(%rip), %rdx
	movl	%ebx, %ecx
	addq	$32, %rsp
	popq	%rbx
	jmp	_ZN7testing8internal7IsInSetEcPKc
.L608:
	addq	$32, %rsp
	popq	%rbx
	ret
	.seh_endproc
	.section	.text.unlikely._ZN7testing8internal13IsValidEscapeEc,"x"
.LCOLDE288:
	.section	.text$_ZN7testing8internal13IsValidEscapeEc,"x"
.LHOTE288:
	.section	.text.unlikely._ZN7testing8internal15AtomMatchesCharEbcc,"x"
.LCOLDB289:
	.section	.text$_ZN7testing8internal15AtomMatchesCharEbcc,"x"
.LHOTB289:
	.globl	_ZN7testing8internal15AtomMatchesCharEbcc
	.def	_ZN7testing8internal15AtomMatchesCharEbcc;	.scl	2;	.type	32;	.endef
	.seh_proc	_ZN7testing8internal15AtomMatchesCharEbcc
_ZN7testing8internal15AtomMatchesCharEbcc:
	pushq	%rbx
	.seh_pushreg	%rbx
	subq	$48, %rsp
	.seh_stackalloc	48
	.seh_endprologue
	movl	%edx, %ebx
	testb	%cl, %cl
	je	.L610
	cmpb	$110, %dl
	je	.L612
	jg	.L613
	cmpb	$87, %dl
	je	.L614
	jg	.L615
	cmpb	$68, %dl
	je	.L616
	cmpb	$83, %dl
	jne	.L611
	movsbl	%r8b, %ecx
	call	_ZN7testing8internal17IsAsciiWhiteSpaceEc
	jmp	.L628
.L615:
	cmpb	$100, %dl
	je	.L618
	cmpb	$102, %dl
	jne	.L611
	cmpb	$12, %r8b
	jmp	.L627
.L613:
	cmpb	$116, %dl
	je	.L620
	jg	.L621
	cmpb	$114, %dl
	je	.L622
	cmpb	$115, %dl
	jne	.L611
	movsbl	%r8b, %ecx
	addq	$48, %rsp
	popq	%rbx
	jmp	_ZN7testing8internal17IsAsciiWhiteSpaceEc
.L621:
	cmpb	$118, %dl
	je	.L624
	cmpb	$119, %dl
	jne	.L611
	movsbl	%r8b, %ecx
	addq	$48, %rsp
	popq	%rbx
	jmp	_ZN7testing8internal15IsAsciiWordCharEc
.L618:
	subl	$48, %r8d
	cmpb	$9, %r8b
	setbe	%al
	jmp	.L626
.L616:
	subl	$48, %r8d
	cmpb	$9, %r8b
	seta	%al
	jmp	.L626
.L612:
	cmpb	$10, %r8b
.L627:
	sete	%al
	jmp	.L626
.L622:
	cmpb	$13, %r8b
	jmp	.L627
.L620:
	cmpb	$9, %r8b
	jmp	.L627
.L624:
	cmpb	$11, %r8b
	jmp	.L627
.L614:
	movsbl	%r8b, %ecx
	call	_ZN7testing8internal15IsAsciiWordCharEc
.L628:
	xorl	$1, %eax
	jmp	.L626
.L611:
	movsbl	%bl, %ecx
	movl	%r8d, 44(%rsp)
	call	_ZN7testing8internal12IsAsciiPunctEc
	movl	44(%rsp), %r8d
	cmpb	%r8b, %bl
	sete	%dl
	andl	%edx, %eax
	jmp	.L626
.L610:
	cmpb	$46, %dl
	sete	%dl
	cmpb	$10, %r8b
	setne	%al
	andl	%edx, %eax
	cmpb	%r8b, %bl
	sete	%dl
	orl	%edx, %eax
.L626:
	addq	$48, %rsp
	popq	%rbx
	ret
	.seh_endproc
	.section	.text.unlikely._ZN7testing8internal15AtomMatchesCharEbcc,"x"
.LCOLDE289:
	.section	.text$_ZN7testing8internal15AtomMatchesCharEbcc,"x"
.LHOTE289:
	.section .rdata,"dr"
.LC290:
	.ascii "Syntax error at index \0"
.LC291:
	.ascii " in simple regular expression \"\0"
.LC292:
	.ascii "\": \0"
	.section	.text.unlikely._ZN7testing8internal22FormatRegexSyntaxErrorB5cxx11EPKci,"x"
.LCOLDB293:
	.section	.text$_ZN7testing8internal22FormatRegexSyntaxErrorB5cxx11EPKci,"x"
.LHOTB293:
	.globl	_ZN7testing8internal22FormatRegexSyntaxErrorB5cxx11EPKci
	.def	_ZN7testing8internal22FormatRegexSyntaxErrorB5cxx11EPKci;	.scl	2;	.type	32;	.endef
	.seh_proc	_ZN7testing8internal22FormatRegexSyntaxErrorB5cxx11EPKci
_ZN7testing8internal22FormatRegexSyntaxErrorB5cxx11EPKci:
	pushq	%rdi
	.seh_pushreg	%rdi
	pushq	%rsi
	.seh_pushreg	%rsi
	pushq	%rbx
	.seh_pushreg	%rbx
	subq	$64, %rsp
	.seh_stackalloc	64
	.seh_endprologue
	leaq	56(%rsp), %rbx
	movq	%rcx, %rsi
	movq	%rdx, %rdi
	movl	%r8d, 44(%rsp)
	movq	%rbx, %rcx
	call	_ZN7testing7MessageC1Ev
	movq	56(%rsp), %rax
	leaq	.LC290(%rip), %rdx
	leaq	16(%rax), %rcx
	call	_ZStlsISt11char_traitsIcEERSt13basic_ostreamIcT_ES5_PKc
	movl	44(%rsp), %r8d
	movq	56(%rsp), %rax
	movl	%r8d, %edx
	leaq	16(%rax), %rcx
	call	_ZNSolsEi
	movq	56(%rsp), %rax
	leaq	.LC291(%rip), %rdx
	leaq	16(%rax), %rcx
	call	_ZStlsISt11char_traitsIcEERSt13basic_ostreamIcT_ES5_PKc
	movq	%rdi, %rdx
	movq	%rbx, %rcx
