	.file	"main.cpp"
	.section	.text$_ZN7testing4Test13SetUpTestCaseEv,"x"
	.linkonce discard
.LCOLDB0:
.LHOTB0:
	.globl	_ZN7testing4Test13SetUpTestCaseEv
	.def	_ZN7testing4Test13SetUpTestCaseEv;	.scl	2;	.type	32;	.endef
	.seh_proc	_ZN7testing4Test13SetUpTestCaseEv
_ZN7testing4Test13SetUpTestCaseEv:
	.seh_endprologue
	ret
	.seh_endproc
.LCOLDE0:
.LHOTE0:
	.section	.text$_ZN7testing4Test16TearDownTestCaseEv,"x"
	.linkonce discard
.LCOLDB1:
.LHOTB1:
	.globl	_ZN7testing4Test16TearDownTestCaseEv
	.def	_ZN7testing4Test16TearDownTestCaseEv;	.scl	2;	.type	32;	.endef
	.seh_proc	_ZN7testing4Test16TearDownTestCaseEv
_ZN7testing4Test16TearDownTestCaseEv:
	.seh_endprologue
	ret
	.seh_endproc
.LCOLDE1:
.LHOTE1:
	.section	.text$_ZN7testing4Test5SetupEv,"x"
	.linkonce discard
	.align 2
.LCOLDB2:
.LHOTB2:
	.align 2
	.globl	_ZN7testing4Test5SetupEv
	.def	_ZN7testing4Test5SetupEv;	.scl	2;	.type	32;	.endef
	.seh_proc	_ZN7testing4Test5SetupEv
_ZN7testing4Test5SetupEv:
	.seh_endprologue
	xorl	%eax, %eax
	ret
	.seh_endproc
.LCOLDE2:
.LHOTE2:
	.section	.text$_ZN7testing8internal15TestFactoryImplI27Get_String20valueConst_TestED1Ev,"x"
	.linkonce discard
	.align 2
.LCOLDB3:
.LHOTB3:
	.align 2
	.globl	_ZN7testing8internal15TestFactoryImplI27Get_String20valueConst_TestED1Ev
	.def	_ZN7testing8internal15TestFactoryImplI27Get_String20valueConst_TestED1Ev;	.scl	2;	.type	32;	.endef
	.seh_proc	_ZN7testing8internal15TestFactoryImplI27Get_String20valueConst_TestED1Ev
_ZN7testing8internal15TestFactoryImplI27Get_String20valueConst_TestED1Ev:
	.seh_endprologue
	ret
	.seh_endproc
.LCOLDE3:
.LHOTE3:
	.section	.text$_ZN7testing8internal15TestFactoryImplI28Get_String20valueChange_TestED1Ev,"x"
	.linkonce discard
	.align 2
.LCOLDB4:
.LHOTB4:
	.align 2
	.globl	_ZN7testing8internal15TestFactoryImplI28Get_String20valueChange_TestED1Ev
	.def	_ZN7testing8internal15TestFactoryImplI28Get_String20valueChange_TestED1Ev;	.scl	2;	.type	32;	.endef
	.seh_proc	_ZN7testing8internal15TestFactoryImplI28Get_String20valueChange_TestED1Ev
_ZN7testing8internal15TestFactoryImplI28Get_String20valueChange_TestED1Ev:
	.seh_endprologue
	ret
	.seh_endproc
.LCOLDE4:
.LHOTE4:
	.section	.text$_ZN7testing8internal15TestFactoryImplI23Get_String20Length_TestED1Ev,"x"
	.linkonce discard
	.align 2
.LCOLDB5:
.LHOTB5:
	.align 2
	.globl	_ZN7testing8internal15TestFactoryImplI23Get_String20Length_TestED1Ev
	.def	_ZN7testing8internal15TestFactoryImplI23Get_String20Length_TestED1Ev;	.scl	2;	.type	32;	.endef
	.seh_proc	_ZN7testing8internal15TestFactoryImplI23Get_String20Length_TestED1Ev
_ZN7testing8internal15TestFactoryImplI23Get_String20Length_TestED1Ev:
	.seh_endprologue
	ret
	.seh_endproc
.LCOLDE5:
.LHOTE5:
	.section	.text$_ZN7testing8internal15TestFactoryImplI34Multiply_string20_int_reverse_TestED1Ev,"x"
	.linkonce discard
	.align 2
.LCOLDB6:
.LHOTB6:
	.align 2
	.globl	_ZN7testing8internal15TestFactoryImplI34Multiply_string20_int_reverse_TestED1Ev
	.def	_ZN7testing8internal15TestFactoryImplI34Multiply_string20_int_reverse_TestED1Ev;	.scl	2;	.type	32;	.endef
	.seh_proc	_ZN7testing8internal15TestFactoryImplI34Multiply_string20_int_reverse_TestED1Ev
_ZN7testing8internal15TestFactoryImplI34Multiply_string20_int_reverse_TestED1Ev:
	.seh_endprologue
	ret
	.seh_endproc
.LCOLDE6:
.LHOTE6:
	.section	.text$_ZN7testing8internal15TestFactoryImplI26Multiply_string20_int_TestED1Ev,"x"
	.linkonce discard
	.align 2
.LCOLDB7:
.LHOTB7:
	.align 2
	.globl	_ZN7testing8internal15TestFactoryImplI26Multiply_string20_int_TestED1Ev
	.def	_ZN7testing8internal15TestFactoryImplI26Multiply_string20_int_TestED1Ev;	.scl	2;	.type	32;	.endef
	.seh_proc	_ZN7testing8internal15TestFactoryImplI26Multiply_string20_int_TestED1Ev
_ZN7testing8internal15TestFactoryImplI26Multiply_string20_int_TestED1Ev:
	.seh_endprologue
	ret
	.seh_endproc
.LCOLDE7:
.LHOTE7:
	.section	.text$_ZN7testing8internal15TestFactoryImplI32Add_string_String20_reverse_TestED1Ev,"x"
	.linkonce discard
	.align 2
.LCOLDB8:
.LHOTB8:
	.align 2
	.globl	_ZN7testing8internal15TestFactoryImplI32Add_string_String20_reverse_TestED1Ev
	.def	_ZN7testing8internal15TestFactoryImplI32Add_string_String20_reverse_TestED1Ev;	.scl	2;	.type	32;	.endef
	.seh_proc	_ZN7testing8internal15TestFactoryImplI32Add_string_String20_reverse_TestED1Ev
_ZN7testing8internal15TestFactoryImplI32Add_string_String20_reverse_TestED1Ev:
	.seh_endprologue
	ret
	.seh_endproc
.LCOLDE8:
.LHOTE8:
	.section	.text$_ZN7testing8internal15TestFactoryImplI30Add_Char_String20_reverse_TestED1Ev,"x"
	.linkonce discard
	.align 2
.LCOLDB9:
.LHOTB9:
	.align 2
	.globl	_ZN7testing8internal15TestFactoryImplI30Add_Char_String20_reverse_TestED1Ev
	.def	_ZN7testing8internal15TestFactoryImplI30Add_Char_String20_reverse_TestED1Ev;	.scl	2;	.type	32;	.endef
	.seh_proc	_ZN7testing8internal15TestFactoryImplI30Add_Char_String20_reverse_TestED1Ev
_ZN7testing8internal15TestFactoryImplI30Add_Char_String20_reverse_TestED1Ev:
	.seh_endprologue
	ret
	.seh_endproc
.LCOLDE9:
.LHOTE9:
	.section	.text$_ZN7testing8internal15TestFactoryImplI15Add_string_TestED1Ev,"x"
	.linkonce discard
	.align 2
.LCOLDB10:
.LHOTB10:
	.align 2
	.globl	_ZN7testing8internal15TestFactoryImplI15Add_string_TestED1Ev
	.def	_ZN7testing8internal15TestFactoryImplI15Add_string_TestED1Ev;	.scl	2;	.type	32;	.endef
	.seh_proc	_ZN7testing8internal15TestFactoryImplI15Add_string_TestED1Ev
_ZN7testing8internal15TestFactoryImplI15Add_string_TestED1Ev:
	.seh_endprologue
	ret
	.seh_endproc
.LCOLDE10:
.LHOTE10:
	.section	.text$_ZN7testing8internal15TestFactoryImplI13Add_Char_TestED1Ev,"x"
	.linkonce discard
	.align 2
.LCOLDB11:
.LHOTB11:
	.align 2
	.globl	_ZN7testing8internal15TestFactoryImplI13Add_Char_TestED1Ev
	.def	_ZN7testing8internal15TestFactoryImplI13Add_Char_TestED1Ev;	.scl	2;	.type	32;	.endef
	.seh_proc	_ZN7testing8internal15TestFactoryImplI13Add_Char_TestED1Ev
_ZN7testing8internal15TestFactoryImplI13Add_Char_TestED1Ev:
	.seh_endprologue
	ret
	.seh_endproc
.LCOLDE11:
.LHOTE11:
	.section	.text$_ZN7testing8internal15TestFactoryImplI17Add_string20_TestED1Ev,"x"
	.linkonce discard
	.align 2
.LCOLDB12:
.LHOTB12:
	.align 2
	.globl	_ZN7testing8internal15TestFactoryImplI17Add_string20_TestED1Ev
	.def	_ZN7testing8internal15TestFactoryImplI17Add_string20_TestED1Ev;	.scl	2;	.type	32;	.endef
	.seh_proc	_ZN7testing8internal15TestFactoryImplI17Add_string20_TestED1Ev
_ZN7testing8internal15TestFactoryImplI17Add_string20_TestED1Ev:
	.seh_endprologue
	ret
	.seh_endproc
.LCOLDE12:
.LHOTE12:
	.section	.text$_ZN7testing8internal15TestFactoryImplI18Append_string_TestED1Ev,"x"
	.linkonce discard
	.align 2
.LCOLDB13:
.LHOTB13:
	.align 2
	.globl	_ZN7testing8internal15TestFactoryImplI18Append_string_TestED1Ev
	.def	_ZN7testing8internal15TestFactoryImplI18Append_string_TestED1Ev;	.scl	2;	.type	32;	.endef
	.seh_proc	_ZN7testing8internal15TestFactoryImplI18Append_string_TestED1Ev
_ZN7testing8internal15TestFactoryImplI18Append_string_TestED1Ev:
	.seh_endprologue
	ret
	.seh_endproc
.LCOLDE13:
.LHOTE13:
	.section	.text$_ZN7testing8internal15TestFactoryImplI16Append_Char_TestED1Ev,"x"
	.linkonce discard
	.align 2
.LCOLDB14:
.LHOTB14:
	.align 2
	.globl	_ZN7testing8internal15TestFactoryImplI16Append_Char_TestED1Ev
	.def	_ZN7testing8internal15TestFactoryImplI16Append_Char_TestED1Ev;	.scl	2;	.type	32;	.endef
	.seh_proc	_ZN7testing8internal15TestFactoryImplI16Append_Char_TestED1Ev
_ZN7testing8internal15TestFactoryImplI16Append_Char_TestED1Ev:
	.seh_endprologue
	ret
	.seh_endproc
.LCOLDE14:
.LHOTE14:
	.section	.text$_ZN7testing8internal15TestFactoryImplI20Append_string20_TestED1Ev,"x"
	.linkonce discard
	.align 2
.LCOLDB15:
.LHOTB15:
	.align 2
	.globl	_ZN7testing8internal15TestFactoryImplI20Append_string20_TestED1Ev
	.def	_ZN7testing8internal15TestFactoryImplI20Append_string20_TestED1Ev;	.scl	2;	.type	32;	.endef
	.seh_proc	_ZN7testing8internal15TestFactoryImplI20Append_string20_TestED1Ev
_ZN7testing8internal15TestFactoryImplI20Append_string20_TestED1Ev:
	.seh_endprologue
	ret
	.seh_endproc
.LCOLDE15:
.LHOTE15:
	.section	.text$_ZN7testing8internal15TestFactoryImplI16Assign_Char_TestED1Ev,"x"
	.linkonce discard
	.align 2
.LCOLDB16:
.LHOTB16:
	.align 2
	.globl	_ZN7testing8internal15TestFactoryImplI16Assign_Char_TestED1Ev
	.def	_ZN7testing8internal15TestFactoryImplI16Assign_Char_TestED1Ev;	.scl	2;	.type	32;	.endef
	.seh_proc	_ZN7testing8internal15TestFactoryImplI16Assign_Char_TestED1Ev
_ZN7testing8internal15TestFactoryImplI16Assign_Char_TestED1Ev:
	.seh_endprologue
	ret
	.seh_endproc
.LCOLDE16:
.LHOTE16:
	.section	.text$_ZN7testing8internal15TestFactoryImplI20Assign_string20_TestED1Ev,"x"
	.linkonce discard
	.align 2
.LCOLDB17:
.LHOTB17:
	.align 2
	.globl	_ZN7testing8internal15TestFactoryImplI20Assign_string20_TestED1Ev
	.def	_ZN7testing8internal15TestFactoryImplI20Assign_string20_TestED1Ev;	.scl	2;	.type	32;	.endef
	.seh_proc	_ZN7testing8internal15TestFactoryImplI20Assign_string20_TestED1Ev
_ZN7testing8internal15TestFactoryImplI20Assign_string20_TestED1Ev:
	.seh_endprologue
	ret
	.seh_endproc
.LCOLDE17:
.LHOTE17:
	.section	.text$_ZN7testing8internal15TestFactoryImplI18Assign_string_TestED1Ev,"x"
	.linkonce discard
	.align 2
.LCOLDB18:
.LHOTB18:
	.align 2
	.globl	_ZN7testing8internal15TestFactoryImplI18Assign_string_TestED1Ev
	.def	_ZN7testing8internal15TestFactoryImplI18Assign_string_TestED1Ev;	.scl	2;	.type	32;	.endef
	.seh_proc	_ZN7testing8internal15TestFactoryImplI18Assign_string_TestED1Ev
_ZN7testing8internal15TestFactoryImplI18Assign_string_TestED1Ev:
	.seh_endprologue
	ret
	.seh_endproc
.LCOLDE18:
.LHOTE18:
	.section	.text$_ZN7testing8internal15TestFactoryImplI26Constructors_String20_TestED1Ev,"x"
	.linkonce discard
	.align 2
.LCOLDB19:
.LHOTB19:
	.align 2
	.globl	_ZN7testing8internal15TestFactoryImplI26Constructors_String20_TestED1Ev
	.def	_ZN7testing8internal15TestFactoryImplI26Constructors_String20_TestED1Ev;	.scl	2;	.type	32;	.endef
	.seh_proc	_ZN7testing8internal15TestFactoryImplI26Constructors_String20_TestED1Ev
_ZN7testing8internal15TestFactoryImplI26Constructors_String20_TestED1Ev:
	.seh_endprologue
	ret
	.seh_endproc
.LCOLDE19:
.LHOTE19:
	.section	.text$_ZN7testing8internal15TestFactoryImplI24Constructors_string_TestED1Ev,"x"
	.linkonce discard
	.align 2
.LCOLDB20:
.LHOTB20:
	.align 2
	.globl	_ZN7testing8internal15TestFactoryImplI24Constructors_string_TestED1Ev
	.def	_ZN7testing8internal15TestFactoryImplI24Constructors_string_TestED1Ev;	.scl	2;	.type	32;	.endef
	.seh_proc	_ZN7testing8internal15TestFactoryImplI24Constructors_string_TestED1Ev
_ZN7testing8internal15TestFactoryImplI24Constructors_string_TestED1Ev:
	.seh_endprologue
	ret
	.seh_endproc
.LCOLDE20:
.LHOTE20:
	.section	.text$_ZN7testing8internal15TestFactoryImplI22Constructors_Char_TestED1Ev,"x"
	.linkonce discard
	.align 2
.LCOLDB21:
.LHOTB21:
	.align 2
	.globl	_ZN7testing8internal15TestFactoryImplI22Constructors_Char_TestED1Ev
	.def	_ZN7testing8internal15TestFactoryImplI22Constructors_Char_TestED1Ev;	.scl	2;	.type	32;	.endef
	.seh_proc	_ZN7testing8internal15TestFactoryImplI22Constructors_Char_TestED1Ev
_ZN7testing8internal15TestFactoryImplI22Constructors_Char_TestED1Ev:
	.seh_endprologue
	ret
	.seh_endproc
.LCOLDE21:
.LHOTE21:
	.section	.text$_ZN7testing8internal15TestFactoryImplI25Constructors_Default_TestED1Ev,"x"
	.linkonce discard
	.align 2
.LCOLDB22:
.LHOTB22:
	.align 2
	.globl	_ZN7testing8internal15TestFactoryImplI25Constructors_Default_TestED1Ev
	.def	_ZN7testing8internal15TestFactoryImplI25Constructors_Default_TestED1Ev;	.scl	2;	.type	32;	.endef
	.seh_proc	_ZN7testing8internal15TestFactoryImplI25Constructors_Default_TestED1Ev
_ZN7testing8internal15TestFactoryImplI25Constructors_Default_TestED1Ev:
	.seh_endprologue
	ret
	.seh_endproc
.LCOLDE22:
.LHOTE22:
	.section	.text$_ZN7testing8internal15TestFactoryImplI27Get_String20valueConst_TestED0Ev,"x"
	.linkonce discard
	.align 2
.LCOLDB23:
.LHOTB23:
	.align 2
	.globl	_ZN7testing8internal15TestFactoryImplI27Get_String20valueConst_TestED0Ev
	.def	_ZN7testing8internal15TestFactoryImplI27Get_String20valueConst_TestED0Ev;	.scl	2;	.type	32;	.endef
	.seh_proc	_ZN7testing8internal15TestFactoryImplI27Get_String20valueConst_TestED0Ev
_ZN7testing8internal15TestFactoryImplI27Get_String20valueConst_TestED0Ev:
	.seh_endprologue
	jmp	_ZdlPv
	.seh_endproc
.LCOLDE23:
.LHOTE23:
	.section	.text$_ZN7testing8internal15TestFactoryImplI28Get_String20valueChange_TestED0Ev,"x"
	.linkonce discard
	.align 2
.LCOLDB24:
.LHOTB24:
	.align 2
	.globl	_ZN7testing8internal15TestFactoryImplI28Get_String20valueChange_TestED0Ev
	.def	_ZN7testing8internal15TestFactoryImplI28Get_String20valueChange_TestED0Ev;	.scl	2;	.type	32;	.endef
	.seh_proc	_ZN7testing8internal15TestFactoryImplI28Get_String20valueChange_TestED0Ev
_ZN7testing8internal15TestFactoryImplI28Get_String20valueChange_TestED0Ev:
	.seh_endprologue
	jmp	_ZdlPv
	.seh_endproc
.LCOLDE24:
.LHOTE24:
	.section	.text$_ZN7testing8internal15TestFactoryImplI23Get_String20Length_TestED0Ev,"x"
	.linkonce discard
	.align 2
.LCOLDB25:
.LHOTB25:
	.align 2
	.globl	_ZN7testing8internal15TestFactoryImplI23Get_String20Length_TestED0Ev
	.def	_ZN7testing8internal15TestFactoryImplI23Get_String20Length_TestED0Ev;	.scl	2;	.type	32;	.endef
	.seh_proc	_ZN7testing8internal15TestFactoryImplI23Get_String20Length_TestED0Ev
_ZN7testing8internal15TestFactoryImplI23Get_String20Length_TestED0Ev:
	.seh_endprologue
	jmp	_ZdlPv
	.seh_endproc
.LCOLDE25:
.LHOTE25:
	.section	.text$_ZN7testing8internal15TestFactoryImplI34Multiply_string20_int_reverse_TestED0Ev,"x"
	.linkonce discard
	.align 2
.LCOLDB26:
.LHOTB26:
	.align 2
	.globl	_ZN7testing8internal15TestFactoryImplI34Multiply_string20_int_reverse_TestED0Ev
	.def	_ZN7testing8internal15TestFactoryImplI34Multiply_string20_int_reverse_TestED0Ev;	.scl	2;	.type	32;	.endef
	.seh_proc	_ZN7testing8internal15TestFactoryImplI34Multiply_string20_int_reverse_TestED0Ev
_ZN7testing8internal15TestFactoryImplI34Multiply_string20_int_reverse_TestED0Ev:
	.seh_endprologue
	jmp	_ZdlPv
	.seh_endproc
.LCOLDE26:
.LHOTE26:
	.section	.text$_ZN7testing8internal15TestFactoryImplI26Multiply_string20_int_TestED0Ev,"x"
	.linkonce discard
	.align 2
.LCOLDB27:
.LHOTB27:
	.align 2
	.globl	_ZN7testing8internal15TestFactoryImplI26Multiply_string20_int_TestED0Ev
	.def	_ZN7testing8internal15TestFactoryImplI26Multiply_string20_int_TestED0Ev;	.scl	2;	.type	32;	.endef
	.seh_proc	_ZN7testing8internal15TestFactoryImplI26Multiply_string20_int_TestED0Ev
_ZN7testing8internal15TestFactoryImplI26Multiply_string20_int_TestED0Ev:
	.seh_endprologue
	jmp	_ZdlPv
	.seh_endproc
.LCOLDE27:
.LHOTE27:
	.section	.text$_ZN7testing8internal15TestFactoryImplI32Add_string_String20_reverse_TestED0Ev,"x"
	.linkonce discard
	.align 2
.LCOLDB28:
.LHOTB28:
	.align 2
	.globl	_ZN7testing8internal15TestFactoryImplI32Add_string_String20_reverse_TestED0Ev
	.def	_ZN7testing8internal15TestFactoryImplI32Add_string_String20_reverse_TestED0Ev;	.scl	2;	.type	32;	.endef
	.seh_proc	_ZN7testing8internal15TestFactoryImplI32Add_string_String20_reverse_TestED0Ev
_ZN7testing8internal15TestFactoryImplI32Add_string_String20_reverse_TestED0Ev:
	.seh_endprologue
	jmp	_ZdlPv
	.seh_endproc
.LCOLDE28:
.LHOTE28:
	.section	.text$_ZN7testing8internal15TestFactoryImplI30Add_Char_String20_reverse_TestED0Ev,"x"
	.linkonce discard
	.align 2
.LCOLDB29:
.LHOTB29:
	.align 2
	.globl	_ZN7testing8internal15TestFactoryImplI30Add_Char_String20_reverse_TestED0Ev
	.def	_ZN7testing8internal15TestFactoryImplI30Add_Char_String20_reverse_TestED0Ev;	.scl	2;	.type	32;	.endef
	.seh_proc	_ZN7testing8internal15TestFactoryImplI30Add_Char_String20_reverse_TestED0Ev
_ZN7testing8internal15TestFactoryImplI30Add_Char_String20_reverse_TestED0Ev:
	.seh_endprologue
	jmp	_ZdlPv
	.seh_endproc
.LCOLDE29:
.LHOTE29:
	.section	.text$_ZN7testing8internal15TestFactoryImplI15Add_string_TestED0Ev,"x"
	.linkonce discard
	.align 2
.LCOLDB30:
.LHOTB30:
	.align 2
	.globl	_ZN7testing8internal15TestFactoryImplI15Add_string_TestED0Ev
	.def	_ZN7testing8internal15TestFactoryImplI15Add_string_TestED0Ev;	.scl	2;	.type	32;	.endef
	.seh_proc	_ZN7testing8internal15TestFactoryImplI15Add_string_TestED0Ev
_ZN7testing8internal15TestFactoryImplI15Add_string_TestED0Ev:
	.seh_endprologue
	jmp	_ZdlPv
	.seh_endproc
.LCOLDE30:
.LHOTE30:
	.section	.text$_ZN7testing8internal15TestFactoryImplI13Add_Char_TestED0Ev,"x"
	.linkonce discard
	.align 2
.LCOLDB31:
.LHOTB31:
	.align 2
	.globl	_ZN7testing8internal15TestFactoryImplI13Add_Char_TestED0Ev
	.def	_ZN7testing8internal15TestFactoryImplI13Add_Char_TestED0Ev;	.scl	2;	.type	32;	.endef
	.seh_proc	_ZN7testing8internal15TestFactoryImplI13Add_Char_TestED0Ev
_ZN7testing8internal15TestFactoryImplI13Add_Char_TestED0Ev:
	.seh_endprologue
	jmp	_ZdlPv
	.seh_endproc
.LCOLDE31:
.LHOTE31:
	.section	.text$_ZN7testing8internal15TestFactoryImplI17Add_string20_TestED0Ev,"x"
	.linkonce discard
	.align 2
.LCOLDB32:
.LHOTB32:
	.align 2
	.globl	_ZN7testing8internal15TestFactoryImplI17Add_string20_TestED0Ev
	.def	_ZN7testing8internal15TestFactoryImplI17Add_string20_TestED0Ev;	.scl	2;	.type	32;	.endef
	.seh_proc	_ZN7testing8internal15TestFactoryImplI17Add_string20_TestED0Ev
_ZN7testing8internal15TestFactoryImplI17Add_string20_TestED0Ev:
	.seh_endprologue
	jmp	_ZdlPv
	.seh_endproc
.LCOLDE32:
.LHOTE32:
	.section	.text$_ZN7testing8internal15TestFactoryImplI18Append_string_TestED0Ev,"x"
	.linkonce discard
	.align 2
.LCOLDB33:
.LHOTB33:
	.align 2
	.globl	_ZN7testing8internal15TestFactoryImplI18Append_string_TestED0Ev
	.def	_ZN7testing8internal15TestFactoryImplI18Append_string_TestED0Ev;	.scl	2;	.type	32;	.endef
	.seh_proc	_ZN7testing8internal15TestFactoryImplI18Append_string_TestED0Ev
_ZN7testing8internal15TestFactoryImplI18Append_string_TestED0Ev:
	.seh_endprologue
	jmp	_ZdlPv
	.seh_endproc
.LCOLDE33:
.LHOTE33:
	.section	.text$_ZN7testing8internal15TestFactoryImplI16Append_Char_TestED0Ev,"x"
	.linkonce discard
	.align 2
.LCOLDB34:
.LHOTB34:
	.align 2
	.globl	_ZN7testing8internal15TestFactoryImplI16Append_Char_TestED0Ev
	.def	_ZN7testing8internal15TestFactoryImplI16Append_Char_TestED0Ev;	.scl	2;	.type	32;	.endef
	.seh_proc	_ZN7testing8internal15TestFactoryImplI16Append_Char_TestED0Ev
_ZN7testing8internal15TestFactoryImplI16Append_Char_TestED0Ev:
	.seh_endprologue
	jmp	_ZdlPv
	.seh_endproc
.LCOLDE34:
.LHOTE34:
	.section	.text$_ZN7testing8internal15TestFactoryImplI20Append_string20_TestED0Ev,"x"
	.linkonce discard
	.align 2
.LCOLDB35:
.LHOTB35:
	.align 2
	.globl	_ZN7testing8internal15TestFactoryImplI20Append_string20_TestED0Ev
	.def	_ZN7testing8internal15TestFactoryImplI20Append_string20_TestED0Ev;	.scl	2;	.type	32;	.endef
	.seh_proc	_ZN7testing8internal15TestFactoryImplI20Append_string20_TestED0Ev
_ZN7testing8internal15TestFactoryImplI20Append_string20_TestED0Ev:
	.seh_endprologue
	jmp	_ZdlPv
	.seh_endproc
.LCOLDE35:
.LHOTE35:
	.section	.text$_ZN7testing8internal15TestFactoryImplI16Assign_Char_TestED0Ev,"x"
	.linkonce discard
	.align 2
.LCOLDB36:
.LHOTB36:
	.align 2
	.globl	_ZN7testing8internal15TestFactoryImplI16Assign_Char_TestED0Ev
	.def	_ZN7testing8internal15TestFactoryImplI16Assign_Char_TestED0Ev;	.scl	2;	.type	32;	.endef
	.seh_proc	_ZN7testing8internal15TestFactoryImplI16Assign_Char_TestED0Ev
_ZN7testing8internal15TestFactoryImplI16Assign_Char_TestED0Ev:
	.seh_endprologue
	jmp	_ZdlPv
	.seh_endproc
.LCOLDE36:
.LHOTE36:
	.section	.text$_ZN7testing8internal15TestFactoryImplI20Assign_string20_TestED0Ev,"x"
	.linkonce discard
	.align 2
.LCOLDB37:
.LHOTB37:
	.align 2
	.globl	_ZN7testing8internal15TestFactoryImplI20Assign_string20_TestED0Ev
	.def	_ZN7testing8internal15TestFactoryImplI20Assign_string20_TestED0Ev;	.scl	2;	.type	32;	.endef
	.seh_proc	_ZN7testing8internal15TestFactoryImplI20Assign_string20_TestED0Ev
_ZN7testing8internal15TestFactoryImplI20Assign_string20_TestED0Ev:
	.seh_endprologue
	jmp	_ZdlPv
	.seh_endproc
.LCOLDE37:
.LHOTE37:
	.section	.text$_ZN7testing8internal15TestFactoryImplI18Assign_string_TestED0Ev,"x"
	.linkonce discard
	.align 2
.LCOLDB38:
.LHOTB38:
	.align 2
	.globl	_ZN7testing8internal15TestFactoryImplI18Assign_string_TestED0Ev
	.def	_ZN7testing8internal15TestFactoryImplI18Assign_string_TestED0Ev;	.scl	2;	.type	32;	.endef
	.seh_proc	_ZN7testing8internal15TestFactoryImplI18Assign_string_TestED0Ev
_ZN7testing8internal15TestFactoryImplI18Assign_string_TestED0Ev:
	.seh_endprologue
	jmp	_ZdlPv
	.seh_endproc
.LCOLDE38:
.LHOTE38:
	.section	.text$_ZN7testing8internal15TestFactoryImplI26Constructors_String20_TestED0Ev,"x"
	.linkonce discard
	.align 2
.LCOLDB39:
.LHOTB39:
	.align 2
	.globl	_ZN7testing8internal15TestFactoryImplI26Constructors_String20_TestED0Ev
	.def	_ZN7testing8internal15TestFactoryImplI26Constructors_String20_TestED0Ev;	.scl	2;	.type	32;	.endef
	.seh_proc	_ZN7testing8internal15TestFactoryImplI26Constructors_String20_TestED0Ev
_ZN7testing8internal15TestFactoryImplI26Constructors_String20_TestED0Ev:
	.seh_endprologue
	jmp	_ZdlPv
	.seh_endproc
.LCOLDE39:
.LHOTE39:
	.section	.text$_ZN7testing8internal15TestFactoryImplI24Constructors_string_TestED0Ev,"x"
	.linkonce discard
	.align 2
.LCOLDB40:
.LHOTB40:
	.align 2
	.globl	_ZN7testing8internal15TestFactoryImplI24Constructors_string_TestED0Ev
	.def	_ZN7testing8internal15TestFactoryImplI24Constructors_string_TestED0Ev;	.scl	2;	.type	32;	.endef
	.seh_proc	_ZN7testing8internal15TestFactoryImplI24Constructors_string_TestED0Ev
_ZN7testing8internal15TestFactoryImplI24Constructors_string_TestED0Ev:
	.seh_endprologue
	jmp	_ZdlPv
	.seh_endproc
.LCOLDE40:
.LHOTE40:
	.section	.text$_ZN7testing8internal15TestFactoryImplI22Constructors_Char_TestED0Ev,"x"
	.linkonce discard
	.align 2
.LCOLDB41:
.LHOTB41:
	.align 2
	.globl	_ZN7testing8internal15TestFactoryImplI22Constructors_Char_TestED0Ev
	.def	_ZN7testing8internal15TestFactoryImplI22Constructors_Char_TestED0Ev;	.scl	2;	.type	32;	.endef
	.seh_proc	_ZN7testing8internal15TestFactoryImplI22Constructors_Char_TestED0Ev
_ZN7testing8internal15TestFactoryImplI22Constructors_Char_TestED0Ev:
	.seh_endprologue
	jmp	_ZdlPv
	.seh_endproc
.LCOLDE41:
.LHOTE41:
	.section	.text$_ZN7testing8internal15TestFactoryImplI25Constructors_Default_TestED0Ev,"x"
	.linkonce discard
	.align 2
.LCOLDB42:
.LHOTB42:
	.align 2
	.globl	_ZN7testing8internal15TestFactoryImplI25Constructors_Default_TestED0Ev
	.def	_ZN7testing8internal15TestFactoryImplI25Constructors_Default_TestED0Ev;	.scl	2;	.type	32;	.endef
	.seh_proc	_ZN7testing8internal15TestFactoryImplI25Constructors_Default_TestED0Ev
_ZN7testing8internal15TestFactoryImplI25Constructors_Default_TestED0Ev:
	.seh_endprologue
	jmp	_ZdlPv
	.seh_endproc
.LCOLDE42:
.LHOTE42:
	.section	.text.unlikely.__tcf_0,"x"
.LCOLDB43:
	.section	.text$__tcf_0,"x"
.LHOTB43:
	.def	__tcf_0;	.scl	3;	.type	32;	.endef
	.seh_proc	__tcf_0
__tcf_0:
	.seh_endprologue
	leaq	_ZStL8__ioinit(%rip), %rcx
	jmp	_ZNSt8ios_base4InitD1Ev
	.seh_endproc
	.section	.text.unlikely.__tcf_0,"x"
.LCOLDE43:
	.section	.text$__tcf_0,"x"
.LHOTE43:
	.section	.text$_ZN7testing8internal15TestFactoryImplI25Constructors_Default_TestE10CreateTestEv,"x"
	.linkonce discard
	.align 2
.LCOLDB44:
.LHOTB44:
	.align 2
	.globl	_ZN7testing8internal15TestFactoryImplI25Constructors_Default_TestE10CreateTestEv
	.def	_ZN7testing8internal15TestFactoryImplI25Constructors_Default_TestE10CreateTestEv;	.scl	2;	.type	32;	.endef
	.seh_proc	_ZN7testing8internal15TestFactoryImplI25Constructors_Default_TestE10CreateTestEv
_ZN7testing8internal15TestFactoryImplI25Constructors_Default_TestE10CreateTestEv:
	subq	$56, %rsp
	.seh_stackalloc	56
	.seh_endprologue
	movl	$16, %ecx
	call	_Znwy
	movq	%rax, %rcx
	movq	%rax, 40(%rsp)
	call	_ZN7testing4TestC2Ev
	movq	40(%rsp), %rax
	leaq	16+_ZTV25Constructors_Default_Test(%rip), %rdx
	movq	%rdx, (%rax)
	addq	$56, %rsp
	ret
	.seh_endproc
.LCOLDE44:
.LHOTE44:
	.section	.text$_ZN7testing8internal15TestFactoryImplI22Constructors_Char_TestE10CreateTestEv,"x"
	.linkonce discard
	.align 2
.LCOLDB45:
.LHOTB45:
	.align 2
	.globl	_ZN7testing8internal15TestFactoryImplI22Constructors_Char_TestE10CreateTestEv
	.def	_ZN7testing8internal15TestFactoryImplI22Constructors_Char_TestE10CreateTestEv;	.scl	2;	.type	32;	.endef
	.seh_proc	_ZN7testing8internal15TestFactoryImplI22Constructors_Char_TestE10CreateTestEv
_ZN7testing8internal15TestFactoryImplI22Constructors_Char_TestE10CreateTestEv:
	subq	$56, %rsp
	.seh_stackalloc	56
	.seh_endprologue
	movl	$16, %ecx
	call	_Znwy
	movq	%rax, %rcx
	movq	%rax, 40(%rsp)
	call	_ZN7testing4TestC2Ev
	movq	40(%rsp), %rax
	leaq	16+_ZTV22Constructors_Char_Test(%rip), %rdx
	movq	%rdx, (%rax)
	addq	$56, %rsp
	ret
	.seh_endproc
.LCOLDE45:
.LHOTE45:
	.section	.text$_ZN7testing8internal15TestFactoryImplI24Constructors_string_TestE10CreateTestEv,"x"
	.linkonce discard
	.align 2
.LCOLDB46:
.LHOTB46:
	.align 2
	.globl	_ZN7testing8internal15TestFactoryImplI24Constructors_string_TestE10CreateTestEv
	.def	_ZN7testing8internal15TestFactoryImplI24Constructors_string_TestE10CreateTestEv;	.scl	2;	.type	32;	.endef
	.seh_proc	_ZN7testing8internal15TestFactoryImplI24Constructors_string_TestE10CreateTestEv
_ZN7testing8internal15TestFactoryImplI24Constructors_string_TestE10CreateTestEv:
	subq	$56, %rsp
	.seh_stackalloc	56
	.seh_endprologue
	movl	$16, %ecx
	call	_Znwy
	movq	%rax, %rcx
	movq	%rax, 40(%rsp)
	call	_ZN7testing4TestC2Ev
	movq	40(%rsp), %rax
	leaq	16+_ZTV24Constructors_string_Test(%rip), %rdx
	movq	%rdx, (%rax)
	addq	$56, %rsp
	ret
	.seh_endproc
.LCOLDE46:
.LHOTE46:
	.section	.text$_ZN7testing8internal15TestFactoryImplI26Constructors_String20_TestE10CreateTestEv,"x"
	.linkonce discard
	.align 2
.LCOLDB47:
.LHOTB47:
	.align 2
	.globl	_ZN7testing8internal15TestFactoryImplI26Constructors_String20_TestE10CreateTestEv
	.def	_ZN7testing8internal15TestFactoryImplI26Constructors_String20_TestE10CreateTestEv;	.scl	2;	.type	32;	.endef
	.seh_proc	_ZN7testing8internal15TestFactoryImplI26Constructors_String20_TestE10CreateTestEv
_ZN7testing8internal15TestFactoryImplI26Constructors_String20_TestE10CreateTestEv:
	subq	$56, %rsp
	.seh_stackalloc	56
	.seh_endprologue
	movl	$16, %ecx
	call	_Znwy
	movq	%rax, %rcx
	movq	%rax, 40(%rsp)
	call	_ZN7testing4TestC2Ev
	movq	40(%rsp), %rax
	leaq	16+_ZTV26Constructors_String20_Test(%rip), %rdx
	movq	%rdx, (%rax)
	addq	$56, %rsp
	ret
	.seh_endproc
.LCOLDE47:
.LHOTE47:
	.section	.text$_ZN7testing8internal15TestFactoryImplI18Assign_string_TestE10CreateTestEv,"x"
	.linkonce discard
	.align 2
.LCOLDB48:
.LHOTB48:
	.align 2
	.globl	_ZN7testing8internal15TestFactoryImplI18Assign_string_TestE10CreateTestEv
	.def	_ZN7testing8internal15TestFactoryImplI18Assign_string_TestE10CreateTestEv;	.scl	2;	.type	32;	.endef
	.seh_proc	_ZN7testing8internal15TestFactoryImplI18Assign_string_TestE10CreateTestEv
_ZN7testing8internal15TestFactoryImplI18Assign_string_TestE10CreateTestEv:
	subq	$56, %rsp
	.seh_stackalloc	56
	.seh_endprologue
	movl	$16, %ecx
	call	_Znwy
	movq	%rax, %rcx
	movq	%rax, 40(%rsp)
	call	_ZN7testing4TestC2Ev
	movq	40(%rsp), %rax
	leaq	16+_ZTV18Assign_string_Test(%rip), %rdx
	movq	%rdx, (%rax)
	addq	$56, %rsp
	ret
	.seh_endproc
.LCOLDE48:
.LHOTE48:
	.section	.text$_ZN7testing8internal15TestFactoryImplI20Assign_string20_TestE10CreateTestEv,"x"
	.linkonce discard
	.align 2
.LCOLDB49:
.LHOTB49:
	.align 2
	.globl	_ZN7testing8internal15TestFactoryImplI20Assign_string20_TestE10CreateTestEv
	.def	_ZN7testing8internal15TestFactoryImplI20Assign_string20_TestE10CreateTestEv;	.scl	2;	.type	32;	.endef
	.seh_proc	_ZN7testing8internal15TestFactoryImplI20Assign_string20_TestE10CreateTestEv
_ZN7testing8internal15TestFactoryImplI20Assign_string20_TestE10CreateTestEv:
	subq	$56, %rsp
	.seh_stackalloc	56
	.seh_endprologue
	movl	$16, %ecx
	call	_Znwy
	movq	%rax, %rcx
	movq	%rax, 40(%rsp)
	call	_ZN7testing4TestC2Ev
	movq	40(%rsp), %rax
	leaq	16+_ZTV20Assign_string20_Test(%rip), %rdx
	movq	%rdx, (%rax)
	addq	$56, %rsp
	ret
	.seh_endproc
.LCOLDE49:
.LHOTE49:
	.section	.text$_ZN7testing8internal15TestFactoryImplI16Assign_Char_TestE10CreateTestEv,"x"
	.linkonce discard
	.align 2
.LCOLDB50:
.LHOTB50:
	.align 2
	.globl	_ZN7testing8internal15TestFactoryImplI16Assign_Char_TestE10CreateTestEv
	.def	_ZN7testing8internal15TestFactoryImplI16Assign_Char_TestE10CreateTestEv;	.scl	2;	.type	32;	.endef
	.seh_proc	_ZN7testing8internal15TestFactoryImplI16Assign_Char_TestE10CreateTestEv
_ZN7testing8internal15TestFactoryImplI16Assign_Char_TestE10CreateTestEv:
	subq	$56, %rsp
	.seh_stackalloc	56
	.seh_endprologue
	movl	$16, %ecx
	call	_Znwy
	movq	%rax, %rcx
	movq	%rax, 40(%rsp)
	call	_ZN7testing4TestC2Ev
	movq	40(%rsp), %rax
	leaq	16+_ZTV16Assign_Char_Test(%rip), %rdx
	movq	%rdx, (%rax)
	addq	$56, %rsp
	ret
	.seh_endproc
.LCOLDE50:
.LHOTE50:
	.section	.text$_ZN7testing8internal15TestFactoryImplI20Append_string20_TestE10CreateTestEv,"x"
	.linkonce discard
	.align 2
.LCOLDB51:
.LHOTB51:
	.align 2
	.globl	_ZN7testing8internal15TestFactoryImplI20Append_string20_TestE10CreateTestEv
	.def	_ZN7testing8internal15TestFactoryImplI20Append_string20_TestE10CreateTestEv;	.scl	2;	.type	32;	.endef
	.seh_proc	_ZN7testing8internal15TestFactoryImplI20Append_string20_TestE10CreateTestEv
_ZN7testing8internal15TestFactoryImplI20Append_string20_TestE10CreateTestEv:
	subq	$56, %rsp
	.seh_stackalloc	56
	.seh_endprologue
	movl	$16, %ecx
	call	_Znwy
	movq	%rax, %rcx
	movq	%rax, 40(%rsp)
	call	_ZN7testing4TestC2Ev
	movq	40(%rsp), %rax
	leaq	16+_ZTV20Append_string20_Test(%rip), %rdx
	movq	%rdx, (%rax)
	addq	$56, %rsp
	ret
	.seh_endproc
.LCOLDE51:
.LHOTE51:
	.section	.text$_ZN7testing8internal15TestFactoryImplI16Append_Char_TestE10CreateTestEv,"x"
	.linkonce discard
	.align 2
.LCOLDB52:
.LHOTB52:
	.align 2
	.globl	_ZN7testing8internal15TestFactoryImplI16Append_Char_TestE10CreateTestEv
	.def	_ZN7testing8internal15TestFactoryImplI16Append_Char_TestE10CreateTestEv;	.scl	2;	.type	32;	.endef
	.seh_proc	_ZN7testing8internal15TestFactoryImplI16Append_Char_TestE10CreateTestEv
_ZN7testing8internal15TestFactoryImplI16Append_Char_TestE10CreateTestEv:
	subq	$56, %rsp
	.seh_stackalloc	56
	.seh_endprologue
	movl	$16, %ecx
	call	_Znwy
	movq	%rax, %rcx
	movq	%rax, 40(%rsp)
	call	_ZN7testing4TestC2Ev
	movq	40(%rsp), %rax
	leaq	16+_ZTV16Append_Char_Test(%rip), %rdx
	movq	%rdx, (%rax)
	addq	$56, %rsp
	ret
	.seh_endproc
.LCOLDE52:
.LHOTE52:
	.section	.text$_ZN7testing8internal15TestFactoryImplI18Append_string_TestE10CreateTestEv,"x"
	.linkonce discard
	.align 2
.LCOLDB53:
.LHOTB53:
	.align 2
	.globl	_ZN7testing8internal15TestFactoryImplI18Append_string_TestE10CreateTestEv
	.def	_ZN7testing8internal15TestFactoryImplI18Append_string_TestE10CreateTestEv;	.scl	2;	.type	32;	.endef
	.seh_proc	_ZN7testing8internal15TestFactoryImplI18Append_string_TestE10CreateTestEv
_ZN7testing8internal15TestFactoryImplI18Append_string_TestE10CreateTestEv:
	subq	$56, %rsp
	.seh_stackalloc	56
	.seh_endprologue
	movl	$16, %ecx
	call	_Znwy
	movq	%rax, %rcx
	movq	%rax, 40(%rsp)
	call	_ZN7testing4TestC2Ev
	movq	40(%rsp), %rax
	leaq	16+_ZTV18Append_string_Test(%rip), %rdx
	movq	%rdx, (%rax)
	addq	$56, %rsp
	ret
	.seh_endproc
.LCOLDE53:
.LHOTE53:
	.section	.text$_ZN7testing8internal15TestFactoryImplI17Add_string20_TestE10CreateTestEv,"x"
	.linkonce discard
	.align 2
.LCOLDB54:
.LHOTB54:
	.align 2
	.globl	_ZN7testing8internal15TestFactoryImplI17Add_string20_TestE10CreateTestEv
	.def	_ZN7testing8internal15TestFactoryImplI17Add_string20_TestE10CreateTestEv;	.scl	2;	.type	32;	.endef
	.seh_proc	_ZN7testing8internal15TestFactoryImplI17Add_string20_TestE10CreateTestEv
_ZN7testing8internal15TestFactoryImplI17Add_string20_TestE10CreateTestEv:
	subq	$56, %rsp
	.seh_stackalloc	56
	.seh_endprologue
	movl	$16, %ecx
	call	_Znwy
	movq	%rax, %rcx
	movq	%rax, 40(%rsp)
	call	_ZN7testing4TestC2Ev
	movq	40(%rsp), %rax
	leaq	16+_ZTV17Add_string20_Test(%rip), %rdx
	movq	%rdx, (%rax)
	addq	$56, %rsp
	ret
	.seh_endproc
.LCOLDE54:
.LHOTE54:
	.section	.text$_ZN7testing8internal15TestFactoryImplI13Add_Char_TestE10CreateTestEv,"x"
	.linkonce discard
	.align 2
.LCOLDB55:
.LHOTB55:
	.align 2
	.globl	_ZN7testing8internal15TestFactoryImplI13Add_Char_TestE10CreateTestEv
	.def	_ZN7testing8internal15TestFactoryImplI13Add_Char_TestE10CreateTestEv;	.scl	2;	.type	32;	.endef
	.seh_proc	_ZN7testing8internal15TestFactoryImplI13Add_Char_TestE10CreateTestEv
_ZN7testing8internal15TestFactoryImplI13Add_Char_TestE10CreateTestEv:
	subq	$56, %rsp
	.seh_stackalloc	56
	.seh_endprologue
	movl	$16, %ecx
	call	_Znwy
	movq	%rax, %rcx
	movq	%rax, 40(%rsp)
	call	_ZN7testing4TestC2Ev
	movq	40(%rsp), %rax
	leaq	16+_ZTV13Add_Char_Test(%rip), %rdx
	movq	%rdx, (%rax)
	addq	$56, %rsp
	ret
	.seh_endproc
.LCOLDE55:
.LHOTE55:
	.section	.text$_ZN7testing8internal15TestFactoryImplI15Add_string_TestE10CreateTestEv,"x"
	.linkonce discard
	.align 2
.LCOLDB56:
.LHOTB56:
	.align 2
	.globl	_ZN7testing8internal15TestFactoryImplI15Add_string_TestE10CreateTestEv
	.def	_ZN7testing8internal15TestFactoryImplI15Add_string_TestE10CreateTestEv;	.scl	2;	.type	32;	.endef
	.seh_proc	_ZN7testing8internal15TestFactoryImplI15Add_string_TestE10CreateTestEv
_ZN7testing8internal15TestFactoryImplI15Add_string_TestE10CreateTestEv:
	subq	$56, %rsp
	.seh_stackalloc	56
	.seh_endprologue
	movl	$16, %ecx
	call	_Znwy
	movq	%rax, %rcx
	movq	%rax, 40(%rsp)
	call	_ZN7testing4TestC2Ev
	movq	40(%rsp), %rax
	leaq	16+_ZTV15Add_string_Test(%rip), %rdx
	movq	%rdx, (%rax)
	addq	$56, %rsp
	ret
	.seh_endproc
.LCOLDE56:
.LHOTE56:
	.section	.text$_ZN7testing8internal15TestFactoryImplI30Add_Char_String20_reverse_TestE10CreateTestEv,"x"
	.linkonce discard
	.align 2
.LCOLDB57:
.LHOTB57:
	.align 2
	.globl	_ZN7testing8internal15TestFactoryImplI30Add_Char_String20_reverse_TestE10CreateTestEv
	.def	_ZN7testing8internal15TestFactoryImplI30Add_Char_String20_reverse_TestE10CreateTestEv;	.scl	2;	.type	32;	.endef
	.seh_proc	_ZN7testing8internal15TestFactoryImplI30Add_Char_String20_reverse_TestE10CreateTestEv
_ZN7testing8internal15TestFactoryImplI30Add_Char_String20_reverse_TestE10CreateTestEv:
	subq	$56, %rsp
	.seh_stackalloc	56
	.seh_endprologue
	movl	$16, %ecx
	call	_Znwy
	movq	%rax, %rcx
	movq	%rax, 40(%rsp)
	call	_ZN7testing4TestC2Ev
	movq	40(%rsp), %rax
	leaq	16+_ZTV30Add_Char_String20_reverse_Test(%rip), %rdx
	movq	%rdx, (%rax)
	addq	$56, %rsp
	ret
	.seh_endproc
.LCOLDE57:
.LHOTE57:
	.section	.text$_ZN7testing8internal15TestFactoryImplI32Add_string_String20_reverse_TestE10CreateTestEv,"x"
	.linkonce discard
	.align 2
.LCOLDB58:
.LHOTB58:
	.align 2
	.globl	_ZN7testing8internal15TestFactoryImplI32Add_string_String20_reverse_TestE10CreateTestEv
	.def	_ZN7testing8internal15TestFactoryImplI32Add_string_String20_reverse_TestE10CreateTestEv;	.scl	2;	.type	32;	.endef
	.seh_proc	_ZN7testing8internal15TestFactoryImplI32Add_string_String20_reverse_TestE10CreateTestEv
_ZN7testing8internal15TestFactoryImplI32Add_string_String20_reverse_TestE10CreateTestEv:
	subq	$56, %rsp
	.seh_stackalloc	56
	.seh_endprologue
	movl	$16, %ecx
	call	_Znwy
	movq	%rax, %rcx
	movq	%rax, 40(%rsp)
	call	_ZN7testing4TestC2Ev
	movq	40(%rsp), %rax
	leaq	16+_ZTV32Add_string_String20_reverse_Test(%rip), %rdx
	movq	%rdx, (%rax)
	addq	$56, %rsp
	ret
	.seh_endproc
.LCOLDE58:
.LHOTE58:
	.section	.text$_ZN7testing8internal15TestFactoryImplI26Multiply_string20_int_TestE10CreateTestEv,"x"
	.linkonce discard
	.align 2
.LCOLDB59:
.LHOTB59:
	.align 2
	.globl	_ZN7testing8internal15TestFactoryImplI26Multiply_string20_int_TestE10CreateTestEv
	.def	_ZN7testing8internal15TestFactoryImplI26Multiply_string20_int_TestE10CreateTestEv;	.scl	2;	.type	32;	.endef
	.seh_proc	_ZN7testing8internal15TestFactoryImplI26Multiply_string20_int_TestE10CreateTestEv
_ZN7testing8internal15TestFactoryImplI26Multiply_string20_int_TestE10CreateTestEv:
	subq	$56, %rsp
	.seh_stackalloc	56
	.seh_endprologue
	movl	$16, %ecx
	call	_Znwy
	movq	%rax, %rcx
	movq	%rax, 40(%rsp)
	call	_ZN7testing4TestC2Ev
	movq	40(%rsp), %rax
	leaq	16+_ZTV26Multiply_string20_int_Test(%rip), %rdx
	movq	%rdx, (%rax)
	addq	$56, %rsp
	ret
	.seh_endproc
.LCOLDE59:
.LHOTE59:
	.section	.text$_ZN7testing8internal15TestFactoryImplI34Multiply_string20_int_reverse_TestE10CreateTestEv,"x"
	.linkonce discard
	.align 2
.LCOLDB60:
.LHOTB60:
	.align 2
	.globl	_ZN7testing8internal15TestFactoryImplI34Multiply_string20_int_reverse_TestE10CreateTestEv
	.def	_ZN7testing8internal15TestFactoryImplI34Multiply_string20_int_reverse_TestE10CreateTestEv;	.scl	2;	.type	32;	.endef
	.seh_proc	_ZN7testing8internal15TestFactoryImplI34Multiply_string20_int_reverse_TestE10CreateTestEv
_ZN7testing8internal15TestFactoryImplI34Multiply_string20_int_reverse_TestE10CreateTestEv:
	subq	$56, %rsp
	.seh_stackalloc	56
	.seh_endprologue
	movl	$16, %ecx
	call	_Znwy
	movq	%rax, %rcx
	movq	%rax, 40(%rsp)
	call	_ZN7testing4TestC2Ev
	movq	40(%rsp), %rax
	leaq	16+_ZTV34Multiply_string20_int_reverse_Test(%rip), %rdx
	movq	%rdx, (%rax)
	addq	$56, %rsp
	ret
	.seh_endproc
.LCOLDE60:
.LHOTE60:
	.section	.text$_ZN7testing8internal15TestFactoryImplI23Get_String20Length_TestE10CreateTestEv,"x"
	.linkonce discard
	.align 2
.LCOLDB61:
.LHOTB61:
	.align 2
	.globl	_ZN7testing8internal15TestFactoryImplI23Get_String20Length_TestE10CreateTestEv
	.def	_ZN7testing8internal15TestFactoryImplI23Get_String20Length_TestE10CreateTestEv;	.scl	2;	.type	32;	.endef
	.seh_proc	_ZN7testing8internal15TestFactoryImplI23Get_String20Length_TestE10CreateTestEv
_ZN7testing8internal15TestFactoryImplI23Get_String20Length_TestE10CreateTestEv:
	subq	$56, %rsp
	.seh_stackalloc	56
	.seh_endprologue
	movl	$16, %ecx
	call	_Znwy
	movq	%rax, %rcx
	movq	%rax, 40(%rsp)
	call	_ZN7testing4TestC2Ev
	movq	40(%rsp), %rax
	leaq	16+_ZTV23Get_String20Length_Test(%rip), %rdx
	movq	%rdx, (%rax)
	addq	$56, %rsp
	ret
	.seh_endproc
.LCOLDE61:
.LHOTE61:
	.section	.text$_ZN7testing8internal15TestFactoryImplI28Get_String20valueChange_TestE10CreateTestEv,"x"
	.linkonce discard
	.align 2
.LCOLDB62:
.LHOTB62:
	.align 2
	.globl	_ZN7testing8internal15TestFactoryImplI28Get_String20valueChange_TestE10CreateTestEv
	.def	_ZN7testing8internal15TestFactoryImplI28Get_String20valueChange_TestE10CreateTestEv;	.scl	2;	.type	32;	.endef
	.seh_proc	_ZN7testing8internal15TestFactoryImplI28Get_String20valueChange_TestE10CreateTestEv
_ZN7testing8internal15TestFactoryImplI28Get_String20valueChange_TestE10CreateTestEv:
	subq	$56, %rsp
	.seh_stackalloc	56
	.seh_endprologue
	movl	$16, %ecx
	call	_Znwy
	movq	%rax, %rcx
	movq	%rax, 40(%rsp)
	call	_ZN7testing4TestC2Ev
	movq	40(%rsp), %rax
	leaq	16+_ZTV28Get_String20valueChange_Test(%rip), %rdx
	movq	%rdx, (%rax)
	addq	$56, %rsp
	ret
	.seh_endproc
.LCOLDE62:
.LHOTE62:
	.section	.text$_ZN7testing8internal15TestFactoryImplI27Get_String20valueConst_TestE10CreateTestEv,"x"
	.linkonce discard
	.align 2
.LCOLDB63:
.LHOTB63:
	.align 2
	.globl	_ZN7testing8internal15TestFactoryImplI27Get_String20valueConst_TestE10CreateTestEv
	.def	_ZN7testing8internal15TestFactoryImplI27Get_String20valueConst_TestE10CreateTestEv;	.scl	2;	.type	32;	.endef
	.seh_proc	_ZN7testing8internal15TestFactoryImplI27Get_String20valueConst_TestE10CreateTestEv
_ZN7testing8internal15TestFactoryImplI27Get_String20valueConst_TestE10CreateTestEv:
	subq	$56, %rsp
	.seh_stackalloc	56
	.seh_endprologue
	movl	$16, %ecx
	call	_Znwy
	movq	%rax, %rcx
	movq	%rax, 40(%rsp)
	call	_ZN7testing4TestC2Ev
	movq	40(%rsp), %rax
	leaq	16+_ZTV27Get_String20valueConst_Test(%rip), %rdx
	movq	%rdx, (%rax)
	addq	$56, %rsp
	ret
	.seh_endproc
.LCOLDE63:
.LHOTE63:
	.section	.text.unlikely._ZN7testing8internal10scoped_ptrINSt7__cxx1112basic_stringIcSt11char_traitsIcESaIcEEEED4Ev.isra.26,"x"
	.align 2
.LCOLDB64:
	.section	.text$_ZN7testing8internal10scoped_ptrINSt7__cxx1112basic_stringIcSt11char_traitsIcESaIcEEEED4Ev.isra.26,"x"
.LHOTB64:
	.align 2
	.def	_ZN7testing8internal10scoped_ptrINSt7__cxx1112basic_stringIcSt11char_traitsIcESaIcEEEED4Ev.isra.26;	.scl	3;	.type	32;	.endef
	.seh_proc	_ZN7testing8internal10scoped_ptrINSt7__cxx1112basic_stringIcSt11char_traitsIcESaIcEEEED4Ev.isra.26
_ZN7testing8internal10scoped_ptrINSt7__cxx1112basic_stringIcSt11char_traitsIcESaIcEEEED4Ev.isra.26:
	pushq	%rbx
	.seh_pushreg	%rbx
	subq	$32, %rsp
	.seh_stackalloc	32
	.seh_endprologue
	cmpq	$0, (%rcx)
	movq	%rcx, %rbx
	je	.L65
	movl	$1, %ecx
	call	_ZN7testing8internal6IsTrueEb
	testb	%al, %al
	je	.L65
	movq	(%rbx), %rbx
	testq	%rbx, %rbx
	je	.L65
	movq	%rbx, %rcx
	call	_ZNSt7__cxx1112basic_stringIcSt11char_traitsIcESaIcEE10_M_disposeEv
	movq	%rbx, %rcx
	addq	$32, %rsp
	popq	%rbx
	jmp	_ZdlPv
.L65:
	addq	$32, %rsp
	popq	%rbx
	ret
	.seh_endproc
	.section	.text.unlikely._ZN7testing8internal10scoped_ptrINSt7__cxx1112basic_stringIcSt11char_traitsIcESaIcEEEED4Ev.isra.26,"x"
.LCOLDE64:
	.section	.text$_ZN7testing8internal10scoped_ptrINSt7__cxx1112basic_stringIcSt11char_traitsIcESaIcEEEED4Ev.isra.26,"x"
.LHOTE64:
	.section	.text.unlikely._ZN7testing8internal10scoped_ptrINSt7__cxx1118basic_stringstreamIcSt11char_traitsIcESaIcEEEED4Ev.isra.15.constprop.50,"x"
	.align 2
.LCOLDB65:
	.section	.text$_ZN7testing8internal10scoped_ptrINSt7__cxx1118basic_stringstreamIcSt11char_traitsIcESaIcEEEED4Ev.isra.15.constprop.50,"x"
.LHOTB65:
	.align 2
	.def	_ZN7testing8internal10scoped_ptrINSt7__cxx1118basic_stringstreamIcSt11char_traitsIcESaIcEEEED4Ev.isra.15.constprop.50;	.scl	3;	.type	32;	.endef
	.seh_proc	_ZN7testing8internal10scoped_ptrINSt7__cxx1118basic_stringstreamIcSt11char_traitsIcESaIcEEEED4Ev.isra.15.constprop.50
_ZN7testing8internal10scoped_ptrINSt7__cxx1118basic_stringstreamIcSt11char_traitsIcESaIcEEEED4Ev.isra.15.constprop.50:
	pushq	%rbx
	.seh_pushreg	%rbx
	subq	$32, %rsp
	.seh_stackalloc	32
	.seh_endprologue
	cmpq	$0, (%rcx)
	movq	%rcx, %rbx
	je	.L74
	movl	$1, %ecx
	call	_ZN7testing8internal6IsTrueEb
	testb	%al, %al
	je	.L74
	movq	(%rbx), %rcx
	testq	%rcx, %rcx
	je	.L74
	movq	(%rcx), %rax
	movq	8(%rax), %rax
	addq	$32, %rsp
	popq	%rbx
	rex.W jmp *%rax
.L74:
	addq	$32, %rsp
	popq	%rbx
	ret
	.seh_endproc
	.section	.text.unlikely._ZN7testing8internal10scoped_ptrINSt7__cxx1118basic_stringstreamIcSt11char_traitsIcESaIcEEEED4Ev.isra.15.constprop.50,"x"
.LCOLDE65:
	.section	.text$_ZN7testing8internal10scoped_ptrINSt7__cxx1118basic_stringstreamIcSt11char_traitsIcESaIcEEEED4Ev.isra.15.constprop.50,"x"
.LHOTE65:
	.section .rdata,"dr"
.LC66:
	.ascii "\0"
	.section	.text$_ZNK7testing15AssertionResult7messageEv,"x"
	.linkonce discard
	.align 2
.LCOLDB67:
.LHOTB67:
	.align 2
	.globl	_ZNK7testing15AssertionResult7messageEv
	.def	_ZNK7testing15AssertionResult7messageEv;	.scl	2;	.type	32;	.endef
	.seh_proc	_ZNK7testing15AssertionResult7messageEv
_ZNK7testing15AssertionResult7messageEv:
	.seh_endprologue
	leaq	.LC66(%rip), %rax
	movq	8(%rcx), %rdx
	testq	%rdx, %rdx
	je	.L83
	movq	(%rdx), %rax
.L83:
	ret
	.seh_endproc
.LCOLDE67:
.LHOTE67:
	.section	.text.unlikely._Z3lenPKc,"x"
.LCOLDB68:
	.section	.text$_Z3lenPKc,"x"
.LHOTB68:
	.globl	_Z3lenPKc
	.def	_Z3lenPKc;	.scl	2;	.type	32;	.endef
	.seh_proc	_Z3lenPKc
_Z3lenPKc:
	.seh_endprologue
	xorl	%edx, %edx
.L86:
	movl	%edx, %eax
	incq	%rdx
	cmpb	$0, -1(%rcx,%rdx)
	jne	.L86
	ret
	.seh_endproc
	.section	.text.unlikely._Z3lenPKc,"x"
.LCOLDE68:
	.section	.text$_Z3lenPKc,"x"
.LHOTE68:
	.def	__main;	.scl	2;	.type	32;	.endef
	.section .rdata,"dr"
.LC69:
	.ascii "testing string20bug = \0"
.LC70:
	.ascii "\12\0"
	.section	.text.unlikely.main,"x"
.LCOLDB71:
	.section	.text.startup.main,"x"
.LHOTB71:
	.globl	main
	.def	main;	.scl	2;	.type	32;	.endef
	.seh_proc	main
main:
	pushq	%rbx
	.seh_pushreg	%rbx
	subq	$32, %rsp
	.seh_stackalloc	32
	.seh_endprologue
	movq	%rdx, %rbx
	movl	%ecx, 48(%rsp)
	call	__main
	movq	.refptr.string20bug(%rip), %rax
	leaq	.LC69(%rip), %rdx
	movq	.refptr._ZSt4cout(%rip), %rcx
	movl	$1, (%rax)
	call	_ZStlsISt11char_traitsIcEERSt13basic_ostreamIcT_ES5_PKc
	movl	$1, %edx
	movq	%rax, %rcx
	call	_ZNSolsEi
	leaq	.LC70(%rip), %rdx
	movq	%rax, %rcx
	call	_ZStlsISt11char_traitsIcEERSt13basic_ostreamIcT_ES5_PKc
	leaq	48(%rsp), %rcx
	movq	%rbx, %rdx
	call	_ZN7testing14InitGoogleTestEPiPPc
	call	_ZN7testing8UnitTest11GetInstanceEv
	movq	%rax, %rcx
	call	_ZN7testing8UnitTest3RunEv
.L89:
	movl	$1000000, %ecx
	call	_ZN5bmptk4waitEx
	jmp	.L89
	.seh_endproc
	.section	.text.unlikely.main,"x"
.LCOLDE71:
	.section	.text.startup.main,"x"
.LHOTE71:
	.section	.text$_ZN7testing13PrintToStringIiEENSt7__cxx1112basic_stringIcSt11char_traitsIcESaIcEEERKT_,"x"
	.linkonce discard
.LCOLDB72:
.LHOTB72:
	.globl	_ZN7testing13PrintToStringIiEENSt7__cxx1112basic_stringIcSt11char_traitsIcESaIcEEERKT_
	.def	_ZN7testing13PrintToStringIiEENSt7__cxx1112basic_stringIcSt11char_traitsIcESaIcEEERKT_;	.scl	2;	.type	32;	.endef
	.seh_proc	_ZN7testing13PrintToStringIiEENSt7__cxx1112basic_stringIcSt11char_traitsIcESaIcEEERKT_
_ZN7testing13PrintToStringIiEENSt7__cxx1112basic_stringIcSt11char_traitsIcESaIcEEERKT_:
	pushq	%rdi
	.seh_pushreg	%rdi
	pushq	%rsi
	.seh_pushreg	%rsi
	pushq	%rbx
	.seh_pushreg	%rbx
	subq	$432, %rsp
	.seh_stackalloc	432
	.seh_endprologue
	leaq	40(%rsp), %rbx
	movq	%rcx, %rsi
	movq	%rdx, %rdi
	movq	%rbx, %rcx
	movl	$24, %edx
	call	_ZNSt7__cxx1118basic_stringstreamIcSt11char_traitsIcESaIcEEC1ESt13_Ios_Openmode
	movl	(%rdi), %edx
	leaq	16(%rbx), %rcx
	call	_ZNSolsEi
	leaq	24(%rbx), %rdx
	movq	%rsi, %rcx
	call	_ZNKSt7__cxx1115basic_stringbufIcSt11char_traitsIcESaIcEE3strEv
	movq	%rbx, %rcx
	call	_ZNSt7__cxx1118basic_stringstreamIcSt11char_traitsIcESaIcEED1Ev
	movq	%rsi, %rax
	addq	$432, %rsp
	popq	%rbx
	popq	%rsi
	popq	%rdi
	ret
	.seh_endproc
.LCOLDE72:
.LHOTE72:
	.section	.text$_ZN7testing8internal11CmpHelperEQIiiEENS_15AssertionResultEPKcS4_RKT_RKT0_,"x"
	.linkonce discard
.LCOLDB73:
.LHOTB73:
	.globl	_ZN7testing8internal11CmpHelperEQIiiEENS_15AssertionResultEPKcS4_RKT_RKT0_
	.def	_ZN7testing8internal11CmpHelperEQIiiEENS_15AssertionResultEPKcS4_RKT_RKT0_;	.scl	2;	.type	32;	.endef
	.seh_proc	_ZN7testing8internal11CmpHelperEQIiiEENS_15AssertionResultEPKcS4_RKT_RKT0_
_ZN7testing8internal11CmpHelperEQIiiEENS_15AssertionResultEPKcS4_RKT_RKT0_:
	pushq	%rbp
	.seh_pushreg	%rbp
	pushq	%rdi
	.seh_pushreg	%rdi
	pushq	%rsi
	.seh_pushreg	%rsi
	pushq	%rbx
	.seh_pushreg	%rbx
	subq	$136, %rsp
	.seh_stackalloc	136
	.seh_endprologue
	movq	%rdx, %rbp
	movq	208(%rsp), %rdx
	movq	%rcx, %rbx
	movl	(%rdx), %eax
	cmpl	%eax, (%r9)
	jne	.L92
	call	_ZN7testing16AssertionSuccessEv
	jmp	.L91
.L92:
	leaq	96(%rsp), %rsi
	movq	%r8, 48(%rsp)
	movq	%r9, 56(%rsp)
	leaq	64(%rsp), %rdi
	movq	%rsi, %rcx
	call	_ZN7testing13PrintToStringIiEENSt7__cxx1112basic_stringIcSt11char_traitsIcESaIcEEERKT_
	movq	56(%rsp), %r9
	movq	%rdi, %rcx
	movq	%r9, %rdx
	call	_ZN7testing13PrintToStringIiEENSt7__cxx1112basic_stringIcSt11char_traitsIcESaIcEEERKT_
	movq	48(%rsp), %r8
	movq	%rdi, %r9
	movq	%rbp, %rdx
	movq	%rbx, %rcx
	movl	$0, 40(%rsp)
	movq	%rsi, 32(%rsp)
	call	_ZN7testing8internal9EqFailureEPKcS2_RKNSt7__cxx1112basic_stringIcSt11char_traitsIcESaIcEEESA_b
	movq	%rdi, %rcx
	call	_ZNSt7__cxx1112basic_stringIcSt11char_traitsIcESaIcEE10_M_disposeEv
	movq	%rsi, %rcx
	call	_ZNSt7__cxx1112basic_stringIcSt11char_traitsIcESaIcEE10_M_disposeEv
.L91:
	movq	%rbx, %rax
	addq	$136, %rsp
	popq	%rbx
	popq	%rsi
	popq	%rdi
	popq	%rbp
	ret
	.seh_endproc
.LCOLDE73:
.LHOTE73:
	.section .rdata,"dr"
.LC74:
	.ascii "0\0"
.LC75:
	.ascii "e.length()\0"
.LC76:
	.ascii "length\0"
.LC77:
	.ascii "main.cpp\0"
	.section	.text.unlikely._ZN25Constructors_Default_Test8TestBodyEv,"x"
	.align 2
.LCOLDB78:
	.section	.text$_ZN25Constructors_Default_Test8TestBodyEv,"x"
.LHOTB78:
	.align 2
	.globl	_ZN25Constructors_Default_Test8TestBodyEv
	.def	_ZN25Constructors_Default_Test8TestBodyEv;	.scl	2;	.type	32;	.endef
	.seh_proc	_ZN25Constructors_Default_Test8TestBodyEv
_ZN25Constructors_Default_Test8TestBodyEv:
	pushq	%rbp
	.seh_pushreg	%rbp
	pushq	%rdi
	.seh_pushreg	%rdi
	pushq	%rsi
	.seh_pushreg	%rsi
	pushq	%rbx
	.seh_pushreg	%rbx
	subq	$120, %rsp
	.seh_stackalloc	120
	.seh_endprologue
	leaq	88(%rsp), %rbx
	leaq	72(%rsp), %rdi
	movq	%rbx, %rcx
	call	_ZN8string20C1Ev
	leaq	56(%rsp), %rsi
	movq	%rbx, %rcx
	movl	$0, 64(%rsp)
	call	_ZNK8string206lengthEv
	leaq	64(%rsp), %rbx
	movq	%rsi, %r9
	movq	%rdi, %rcx
	movq	%rbx, 32(%rsp)
	leaq	.LC74(%rip), %r8
	leaq	.LC75(%rip), %rdx
	movl	%eax, 56(%rsp)
	call	_ZN7testing8internal11CmpHelperEQIiiEENS_15AssertionResultEPKcS4_RKT_RKT0_
	cmpb	$0, 72(%rsp)
	leaq	8(%rdi), %rbp
	jne	.L95
	movq	%rbx, %rcx
	call	_ZN7testing7MessageC1Ev
	movq	64(%rsp), %rax
	leaq	.LC76(%rip), %rdx
	leaq	16(%rax), %rcx
	call	_ZStlsISt11char_traitsIcEERSt13basic_ostreamIcT_ES5_PKc
	movq	%rdi, %rcx
	call	_ZNK7testing15AssertionResult7messageEv
	movl	$21, %r9d
	movl	$2, %edx
	movq	%rsi, %rcx
	movq	%rax, 32(%rsp)
	leaq	.LC77(%rip), %r8
	call	_ZN7testing8internal12AssertHelperC1ENS_14TestPartResult4TypeEPKciS5_
	movq	%rbx, %rdx
	movq	%rsi, %rcx
	call	_ZNK7testing8internal12AssertHelperaSERKNS_7MessageE
	movq	%rsi, %rcx
	call	_ZN7testing8internal12AssertHelperD1Ev
	movq	%rbx, %rcx
	call	_ZN7testing8internal10scoped_ptrINSt7__cxx1118basic_stringstreamIcSt11char_traitsIcESaIcEEEED4Ev.isra.15.constprop.50
.L95:
	movq	%rbp, %rcx
	call	_ZN7testing8internal10scoped_ptrINSt7__cxx1112basic_stringIcSt11char_traitsIcESaIcEEEED4Ev.isra.26
	nop
	addq	$120, %rsp
	popq	%rbx
	popq	%rsi
	popq	%rdi
	popq	%rbp
	ret
	.seh_endproc
	.section	.text.unlikely._ZN25Constructors_Default_Test8TestBodyEv,"x"
.LCOLDE78:
	.section	.text$_ZN25Constructors_Default_Test8TestBodyEv,"x"
.LHOTE78:
	.section	.text$_ZN7testing13PrintToStringIcEENSt7__cxx1112basic_stringIcSt11char_traitsIcESaIcEEERKT_,"x"
	.linkonce discard
.LCOLDB79:
.LHOTB79:
	.globl	_ZN7testing13PrintToStringIcEENSt7__cxx1112basic_stringIcSt11char_traitsIcESaIcEEERKT_
	.def	_ZN7testing13PrintToStringIcEENSt7__cxx1112basic_stringIcSt11char_traitsIcESaIcEEERKT_;	.scl	2;	.type	32;	.endef
	.seh_proc	_ZN7testing13PrintToStringIcEENSt7__cxx1112basic_stringIcSt11char_traitsIcESaIcEEERKT_
_ZN7testing13PrintToStringIcEENSt7__cxx1112basic_stringIcSt11char_traitsIcESaIcEEERKT_:
	pushq	%rdi
	.seh_pushreg	%rdi
	pushq	%rsi
	.seh_pushreg	%rsi
	pushq	%rbx
	.seh_pushreg	%rbx
	subq	$432, %rsp
	.seh_stackalloc	432
	.seh_endprologue
	leaq	40(%rsp), %rbx
	movq	%rcx, %rsi
	movq	%rdx, %rdi
	movq	%rbx, %rcx
	movl	$24, %edx
	call	_ZNSt7__cxx1118basic_stringstreamIcSt11char_traitsIcESaIcEEC1ESt13_Ios_Openmode
	movzbl	(%rdi), %ecx
	leaq	16(%rbx), %rdx
	call	_ZN7testing8internal7PrintToEhPSo
	leaq	24(%rbx), %rdx
	movq	%rsi, %rcx
	call	_ZNKSt7__cxx1115basic_stringbufIcSt11char_traitsIcESaIcEE3strEv
	movq	%rbx, %rcx
	call	_ZNSt7__cxx1118basic_stringstreamIcSt11char_traitsIcESaIcEED1Ev
	movq	%rsi, %rax
	addq	$432, %rsp
	popq	%rbx
	popq	%rsi
	popq	%rdi
	ret
	.seh_endproc
.LCOLDE79:
.LHOTE79:
	.section	.text$_ZN7testing8internal11CmpHelperEQIccEENS_15AssertionResultEPKcS4_RKT_RKT0_,"x"
	.linkonce discard
.LCOLDB80:
.LHOTB80:
	.globl	_ZN7testing8internal11CmpHelperEQIccEENS_15AssertionResultEPKcS4_RKT_RKT0_
	.def	_ZN7testing8internal11CmpHelperEQIccEENS_15AssertionResultEPKcS4_RKT_RKT0_;	.scl	2;	.type	32;	.endef
	.seh_proc	_ZN7testing8internal11CmpHelperEQIccEENS_15AssertionResultEPKcS4_RKT_RKT0_
_ZN7testing8internal11CmpHelperEQIccEENS_15AssertionResultEPKcS4_RKT_RKT0_:
	pushq	%rbp
	.seh_pushreg	%rbp
	pushq	%rdi
	.seh_pushreg	%rdi
	pushq	%rsi
	.seh_pushreg	%rsi
	pushq	%rbx
	.seh_pushreg	%rbx
	subq	$136, %rsp
	.seh_stackalloc	136
	.seh_endprologue
	movq	%rdx, %rbp
	movq	208(%rsp), %rdx
	movq	%rcx, %rbx
	movb	(%rdx), %al
	cmpb	%al, (%r9)
	jne	.L99
	call	_ZN7testing16AssertionSuccessEv
	jmp	.L98
.L99:
	leaq	96(%rsp), %rsi
	movq	%r8, 48(%rsp)
	movq	%r9, 56(%rsp)
	leaq	64(%rsp), %rdi
	movq	%rsi, %rcx
	call	_ZN7testing13PrintToStringIcEENSt7__cxx1112basic_stringIcSt11char_traitsIcESaIcEEERKT_
	movq	56(%rsp), %r9
	movq	%rdi, %rcx
	movq	%r9, %rdx
	call	_ZN7testing13PrintToStringIcEENSt7__cxx1112basic_stringIcSt11char_traitsIcESaIcEEERKT_
	movq	48(%rsp), %r8
	movq	%rdi, %r9
	movq	%rbp, %rdx
	movq	%rbx, %rcx
	movl	$0, 40(%rsp)
	movq	%rsi, 32(%rsp)
	call	_ZN7testing8internal9EqFailureEPKcS2_RKNSt7__cxx1112basic_stringIcSt11char_traitsIcESaIcEEESA_b
	movq	%rdi, %rcx
	call	_ZNSt7__cxx1112basic_stringIcSt11char_traitsIcESaIcEE10_M_disposeEv
	movq	%rsi, %rcx
	call	_ZNSt7__cxx1112basic_stringIcSt11char_traitsIcESaIcEE10_M_disposeEv
.L98:
	movq	%rbx, %rax
	addq	$136, %rsp
	popq	%rbx
	popq	%rsi
	popq	%rdi
	popq	%rbp
	ret
	.seh_endproc
.LCOLDE80:
.LHOTE80:
	.section .rdata,"dr"
.LC81:
	.ascii "visjes\0"
.LC82:
	.ascii "'j'\0"
.LC83:
	.ascii "long_string[ 3 ]\0"
.LC84:
	.ascii "[3]\0"
.LC85:
	.ascii "get and const char\0"
	.section	.text.unlikely._ZN27Get_String20valueConst_Test8TestBodyEv,"x"
	.align 2
.LCOLDB86:
	.section	.text$_ZN27Get_String20valueConst_Test8TestBodyEv,"x"
.LHOTB86:
	.align 2
	.globl	_ZN27Get_String20valueConst_Test8TestBodyEv
	.def	_ZN27Get_String20valueConst_Test8TestBodyEv;	.scl	2;	.type	32;	.endef
	.seh_proc	_ZN27Get_String20valueConst_Test8TestBodyEv
_ZN27Get_String20valueConst_Test8TestBodyEv:
	pushq	%rbp
	.seh_pushreg	%rbp
	pushq	%rdi
	.seh_pushreg	%rdi
	pushq	%rsi
	.seh_pushreg	%rsi
	pushq	%rbx
	.seh_pushreg	%rbx
	subq	$120, %rsp
	.seh_stackalloc	120
	.seh_endprologue
	leaq	.LC81(%rip), %rdx
	leaq	88(%rsp), %rbx
	leaq	72(%rsp), %rdi
	movq	%rbx, %rcx
	call	_ZN8string20C1EPKc
	movb	$106, 64(%rsp)
	leaq	8(%rdi), %rbp
	movq	%rbx, %rcx
	leaq	56(%rsp), %rsi
	movl	$3, %edx
	call	_ZNK8string20ixEi
	leaq	64(%rsp), %rbx
	movq	%rsi, %r9
	movq	%rdi, %rcx
	movq	%rbx, 32(%rsp)
	leaq	.LC82(%rip), %r8
	leaq	.LC83(%rip), %rdx
	movb	%al, 56(%rsp)
	call	_ZN7testing8internal11CmpHelperEQIccEENS_15AssertionResultEPKcS4_RKT_RKT0_
	cmpb	$0, 72(%rsp)
	jne	.L102
	movq	%rbx, %rcx
	call	_ZN7testing7MessageC1Ev
	movq	64(%rsp), %rax
	leaq	.LC84(%rip), %rdx
	leaq	16(%rax), %rcx
	call	_ZStlsISt11char_traitsIcEERSt13basic_ostreamIcT_ES5_PKc
	movq	64(%rsp), %rax
	leaq	.LC85(%rip), %rdx
	leaq	16(%rax), %rcx
	call	_ZStlsISt11char_traitsIcEERSt13basic_ostreamIcT_ES5_PKc
	movq	%rdi, %rcx
	call	_ZNK7testing15AssertionResult7messageEv
	movl	$157, %r9d
	movl	$2, %edx
	movq	%rsi, %rcx
	movq	%rax, 32(%rsp)
	leaq	.LC77(%rip), %r8
	call	_ZN7testing8internal12AssertHelperC1ENS_14TestPartResult4TypeEPKciS5_
	movq	%rbx, %rdx
	movq	%rsi, %rcx
	call	_ZNK7testing8internal12AssertHelperaSERKNS_7MessageE
	movq	%rsi, %rcx
	call	_ZN7testing8internal12AssertHelperD1Ev
	movq	%rbx, %rcx
	call	_ZN7testing8internal10scoped_ptrINSt7__cxx1118basic_stringstreamIcSt11char_traitsIcESaIcEEEED4Ev.isra.15.constprop.50
.L102:
	movq	%rbp, %rcx
	call	_ZN7testing8internal10scoped_ptrINSt7__cxx1112basic_stringIcSt11char_traitsIcESaIcEEEED4Ev.isra.26
	nop
	addq	$120, %rsp
	popq	%rbx
	popq	%rsi
	popq	%rdi
	popq	%rbp
	ret
	.seh_endproc
	.section	.text.unlikely._ZN27Get_String20valueConst_Test8TestBodyEv,"x"
.LCOLDE86:
	.section	.text$_ZN27Get_String20valueConst_Test8TestBodyEv,"x"
.LHOTE86:
	.section .rdata,"dr"
.LC87:
	.ascii "len( rhs )\0"
.LC88:
	.ascii "lhs.length()\0"
.LC89:
	.ascii "rhs[ i ]\0"
.LC90:
	.ascii "lhs[ i ]\0"
.LC91:
	.ascii "content @ \0"
	.section	.text.unlikely._Z5equalRK8string20PKc,"x"
.LCOLDB92:
	.section	.text$_Z5equalRK8string20PKc,"x"
.LHOTB92:
	.globl	_Z5equalRK8string20PKc
	.def	_Z5equalRK8string20PKc;	.scl	2;	.type	32;	.endef
	.seh_proc	_Z5equalRK8string20PKc
_Z5equalRK8string20PKc:
	pushq	%r15
	.seh_pushreg	%r15
	pushq	%r14
	.seh_pushreg	%r14
	pushq	%r13
	.seh_pushreg	%r13
	pushq	%r12
	.seh_pushreg	%r12
	pushq	%rbp
	.seh_pushreg	%rbp
	pushq	%rdi
	.seh_pushreg	%rdi
	pushq	%rsi
	.seh_pushreg	%rsi
	pushq	%rbx
	.seh_pushreg	%rbx
	subq	$104, %rsp
	.seh_stackalloc	104
	.seh_endprologue
	leaq	80(%rsp), %r12
	movq	%rcx, %rbp
	movq	%rdx, %rcx
	leaq	64(%rsp), %rdi
	movq	%rdx, %r13
	call	_Z3lenPKc
	leaq	72(%rsp), %rsi
	movq	%rbp, %rcx
	movl	%eax, 72(%rsp)
	call	_ZNK8string206lengthEv
	movq	%rsi, 32(%rsp)
	movq	%rdi, %r9
	movq	%r12, %rcx
	leaq	.LC87(%rip), %r8
	movl	%eax, 64(%rsp)
	leaq	.LC88(%rip), %rdx
	call	_ZN7testing8internal11CmpHelperEQIiiEENS_15AssertionResultEPKcS4_RKT_RKT0_
	cmpb	$0, 80(%rsp)
	jne	.L105
	movq	%rsi, %rcx
	call	_ZN7testing7MessageC1Ev
	movq	72(%rsp), %rax
	leaq	.LC76(%rip), %rdx
	leaq	16(%rax), %rcx
	call	_ZStlsISt11char_traitsIcEERSt13basic_ostreamIcT_ES5_PKc
	movq	%r12, %rcx
	call	_ZNK7testing15AssertionResult7messageEv
	movl	$10, %r9d
	movl	$1, %edx
	movq	%rdi, %rcx
	movq	%rax, 32(%rsp)
	leaq	.LC77(%rip), %r8
	call	_ZN7testing8internal12AssertHelperC1ENS_14TestPartResult4TypeEPKciS5_
	movq	%rsi, %rdx
	movq	%rdi, %rcx
	call	_ZNK7testing8internal12AssertHelperaSERKNS_7MessageE
	movq	%rdi, %rcx
	call	_ZN7testing8internal12AssertHelperD1Ev
	movq	%rsi, %rcx
	call	_ZN7testing8internal10scoped_ptrINSt7__cxx1118basic_stringstreamIcSt11char_traitsIcESaIcEEEED4Ev.isra.15.constprop.50
.L105:
	leaq	8(%r12), %r14
	movq	%r14, %rcx
	call	_ZN7testing8internal10scoped_ptrINSt7__cxx1112basic_stringIcSt11char_traitsIcESaIcEEEED4Ev.isra.26
	movq	%rbp, %rcx
	call	_ZNK8string206lengthEv
	movq	%r13, %rcx
	movl	%eax, %r8d
	call	_Z3lenPKc
	cmpl	%eax, %r8d
	jne	.L106
	xorl	%ebx, %ebx
	movq	%r14, 56(%rsp)
.L109:
	movq	%rbp, %rcx
	movl	%ebx, %r15d
	call	_ZNK8string206lengthEv
	cmpl	%ebx, %eax
	jle	.L110
	leaq	0(%r13,%rbx), %r14
	movl	%ebx, %edx
	movq	%rbp, %rcx
	call	_ZNK8string20ixEi
	movq	%r14, 32(%rsp)
	movq	%rsi, %r9
	movq	%r12, %rcx
	leaq	.LC89(%rip), %r8
	movb	%al, 72(%rsp)
	leaq	.LC90(%rip), %rdx
	call	_ZN7testing8internal11CmpHelperEQIccEENS_15AssertionResultEPKcS4_RKT_RKT0_
	cmpb	$0, 80(%rsp)
	jne	.L108
	movq	%rsi, %rcx
	call	_ZN7testing7MessageC1Ev
	movq	72(%rsp), %rax
	leaq	.LC91(%rip), %rdx
	leaq	16(%rax), %rcx
	call	_ZStlsISt11char_traitsIcEERSt13basic_ostreamIcT_ES5_PKc
	movq	72(%rsp), %rax
	movl	%ebx, %edx
	leaq	16(%rax), %rcx
	call	_ZNSolsEi
	movq	%r12, %rcx
	call	_ZNK7testing15AssertionResult7messageEv
	movl	$13, %r9d
	movl	$1, %edx
	movq	%rdi, %rcx
	movq	%rax, 32(%rsp)
	leaq	.LC77(%rip), %r8
	call	_ZN7testing8internal12AssertHelperC1ENS_14TestPartResult4TypeEPKciS5_
	movq	%rsi, %rdx
	movq	%rdi, %rcx
	call	_ZNK7testing8internal12AssertHelperaSERKNS_7MessageE
	movq	%rdi, %rcx
	call	_ZN7testing8internal12AssertHelperD1Ev
	movq	%rsi, %rcx
	call	_ZN7testing8internal10scoped_ptrINSt7__cxx1118basic_stringstreamIcSt11char_traitsIcESaIcEEEED4Ev.isra.15.constprop.50
.L108:
	movq	56(%rsp), %rcx
	incq	%rbx
	call	_ZN7testing8internal10scoped_ptrINSt7__cxx1112basic_stringIcSt11char_traitsIcESaIcEEEED4Ev.isra.26
	movl	%r15d, %edx
	movq	%rbp, %rcx
	call	_ZNK8string20ixEi
	cmpb	-1(%r13,%rbx), %al
	je	.L109
.L106:
	xorl	%eax, %eax
	jmp	.L107
.L110:
	movb	$1, %al
.L107:
	addq	$104, %rsp
	popq	%rbx
	popq	%rsi
	popq	%rdi
	popq	%rbp
	popq	%r12
	popq	%r13
	popq	%r14
	popq	%r15
	ret
	.seh_endproc
	.section	.text.unlikely._Z5equalRK8string20PKc,"x"
.LCOLDE92:
	.section	.text$_Z5equalRK8string20PKc,"x"
.LHOTE92:
	.section .rdata,"dr"
.LC93:
	.ascii "empty\0"
.LC94:
	.ascii "false\0"
.LC95:
	.ascii "equal( s, \"\" )\0"
.LC96:
	.ascii "true\0"
.LC97:
	.ascii "x\0"
.LC98:
	.ascii "1char\0"
.LC99:
	.ascii "equal( s, \"x\" )\0"
.LC100:
	.ascii "01234567890123456789\0"
.LC101:
	.ascii "20char\0"
.LC102:
	.ascii "equal( s, \"01234567890123456789\" )\0"
.LC103:
	.ascii "012345678901234567890\0"
.LC104:
	.ascii "21char\0"
.LC105:
	.ascii "abc\0"
.LC106:
	.ascii "retval\0"
.LC107:
	.ascii "equal( s = \"abc\", \"abc\" )\0"
.LC108:
	.ascii "fgh\0"
.LC109:
	.ascii "retval assign\0"
.LC110:
	.ascii "equal( ( s = \"abc\" ) = \"fgh\", \"fgh\" )\0"
	.section	.text.unlikely._ZN18Assign_string_Test8TestBodyEv,"x"
	.align 2
.LCOLDB111:
	.section	.text$_ZN18Assign_string_Test8TestBodyEv,"x"
.LHOTB111:
	.align 2
	.globl	_ZN18Assign_string_Test8TestBodyEv
	.def	_ZN18Assign_string_Test8TestBodyEv;	.scl	2;	.type	32;	.endef
	.seh_proc	_ZN18Assign_string_Test8TestBodyEv
_ZN18Assign_string_Test8TestBodyEv:
	pushq	%rbp
	.seh_pushreg	%rbp
	pushq	%rdi
	.seh_pushreg	%rdi
	pushq	%rsi
	.seh_pushreg	%rsi
	pushq	%rbx
	.seh_pushreg	%rbx
	subq	$152, %rsp
	.seh_stackalloc	152
	.seh_endprologue
	leaq	88(%rsp), %rsi
	leaq	72(%rsp), %rdi
	movq	%rsi, %rcx
	call	_ZN8string20C1Ev
	leaq	.LC66(%rip), %rdx
	movq	%rsi, %rcx
	call	_ZN8string20aSEPKc
	leaq	.LC66(%rip), %rdx
	movq	%rsi, %rcx
	call	_Z5equalRK8string20PKc
	movq	$0, 80(%rsp)
	testb	%al, %al
	movb	%al, 72(%rsp)
	jne	.L113
	leaq	64(%rsp), %rbx
	leaq	112(%rsp), %rbp
	movq	%rbx, %rcx
	call	_ZN7testing7MessageC1Ev
	movq	64(%rsp), %rax
	leaq	56(%rsp), %rsi
	leaq	.LC93(%rip), %rdx
	leaq	16(%rax), %rcx
	call	_ZStlsISt11char_traitsIcEERSt13basic_ostreamIcT_ES5_PKc
	leaq	.LC96(%rip), %rax
	movq	%rdi, %rdx
	movq	%rbp, %rcx
	movq	%rax, 32(%rsp)
	leaq	.LC94(%rip), %r9
	leaq	.LC95(%rip), %r8
	call	_ZN7testing8internal30GetBoolAssertionFailureMessageB5cxx11ERKNS_15AssertionResultEPKcS5_S5_
	movq	112(%rsp), %rax
	movl	$47, %r9d
	movq	%rsi, %rcx
	leaq	.LC77(%rip), %r8
	movl	$2, %edx
	movq	%rax, 32(%rsp)
	call	_ZN7testing8internal12AssertHelperC1ENS_14TestPartResult4TypeEPKciS5_
	movq	%rbx, %rdx
	movq	%rsi, %rcx
	call	_ZNK7testing8internal12AssertHelperaSERKNS_7MessageE
	movq	%rsi, %rcx
	call	_ZN7testing8internal12AssertHelperD1Ev
	movq	%rbp, %rcx
	call	_ZNSt7__cxx1112basic_stringIcSt11char_traitsIcESaIcEE10_M_disposeEv
	movq	%rbx, %rcx
	call	_ZN7testing8internal10scoped_ptrINSt7__cxx1118basic_stringstreamIcSt11char_traitsIcESaIcEEEED4Ev.isra.15.constprop.50
	leaq	8(%rdi), %rcx
	jmp	.L121
.L113:
	leaq	8(%rdi), %rbx
	movq	%rbx, %rcx
	call	_ZN7testing8internal10scoped_ptrINSt7__cxx1112basic_stringIcSt11char_traitsIcESaIcEEEED4Ev.isra.26
	leaq	.LC97(%rip), %rdx
	movq	%rsi, %rcx
	call	_ZN8string20aSEPKc
	leaq	.LC97(%rip), %rdx
	movq	%rsi, %rcx
	call	_Z5equalRK8string20PKc
	movq	$0, 80(%rsp)
	movb	%al, 72(%rsp)
	testb	%al, %al
	jne	.L115
	leaq	64(%rsp), %rsi
	leaq	112(%rsp), %rbp
	movq	%rsi, %rcx
	call	_ZN7testing7MessageC1Ev
	movq	64(%rsp), %rax
	leaq	.LC98(%rip), %rdx
	leaq	16(%rax), %rcx
	call	_ZStlsISt11char_traitsIcEERSt13basic_ostreamIcT_ES5_PKc
	leaq	.LC96(%rip), %rax
	movq	%rdi, %rdx
	movq	%rbp, %rcx
	movq	%rax, 32(%rsp)
	leaq	.LC94(%rip), %r9
	leaq	.LC99(%rip), %r8
	call	_ZN7testing8internal30GetBoolAssertionFailureMessageB5cxx11ERKNS_15AssertionResultEPKcS5_S5_
	movq	112(%rsp), %rax
	leaq	56(%rsp), %rdi
	movl	$49, %r9d
	movq	%rax, 32(%rsp)
	jmp	.L122
.L115:
	movq	%rbx, %rcx
	call	_ZN7testing8internal10scoped_ptrINSt7__cxx1112basic_stringIcSt11char_traitsIcESaIcEEEED4Ev.isra.26
	leaq	.LC100(%rip), %rdx
	movq	%rsi, %rcx
	call	_ZN8string20aSEPKc
	leaq	.LC100(%rip), %rdx
	movq	%rsi, %rcx
	call	_Z5equalRK8string20PKc
	movq	$0, 80(%rsp)
	movb	%al, 72(%rsp)
	testb	%al, %al
	jne	.L116
	leaq	64(%rsp), %rsi
	leaq	112(%rsp), %rbp
	movq	%rsi, %rcx
	call	_ZN7testing7MessageC1Ev
	movq	64(%rsp), %rax
	leaq	.LC101(%rip), %rdx
	leaq	16(%rax), %rcx
	call	_ZStlsISt11char_traitsIcEERSt13basic_ostreamIcT_ES5_PKc
	leaq	.LC96(%rip), %rax
	movq	%rdi, %rdx
	movq	%rbp, %rcx
	movq	%rax, 32(%rsp)
	leaq	.LC94(%rip), %r9
	leaq	.LC102(%rip), %r8
	call	_ZN7testing8internal30GetBoolAssertionFailureMessageB5cxx11ERKNS_15AssertionResultEPKcS5_S5_
	movq	112(%rsp), %rax
	leaq	56(%rsp), %rdi
	movl	$52, %r9d
	movq	%rax, 32(%rsp)
	jmp	.L122
.L116:
	movq	%rbx, %rcx
	call	_ZN7testing8internal10scoped_ptrINSt7__cxx1112basic_stringIcSt11char_traitsIcESaIcEEEED4Ev.isra.26
	leaq	.LC103(%rip), %rdx
	movq	%rsi, %rcx
	call	_ZN8string20aSEPKc
	leaq	.LC100(%rip), %rdx
	movq	%rsi, %rcx
	call	_Z5equalRK8string20PKc
	movq	$0, 80(%rsp)
	movb	%al, 72(%rsp)
	testb	%al, %al
	jne	.L117
	leaq	64(%rsp), %rsi
	leaq	112(%rsp), %rbp
	movq	%rsi, %rcx
	call	_ZN7testing7MessageC1Ev
	movq	64(%rsp), %rax
	leaq	.LC104(%rip), %rdx
	leaq	16(%rax), %rcx
	call	_ZStlsISt11char_traitsIcEERSt13basic_ostreamIcT_ES5_PKc
	leaq	.LC96(%rip), %rax
	movq	%rdi, %rdx
	movq	%rbp, %rcx
	movq	%rax, 32(%rsp)
	leaq	.LC94(%rip), %r9
	leaq	.LC102(%rip), %r8
	call	_ZN7testing8internal30GetBoolAssertionFailureMessageB5cxx11ERKNS_15AssertionResultEPKcS5_S5_
	movq	112(%rsp), %rax
	leaq	56(%rsp), %rdi
	movl	$55, %r9d
	movq	%rax, 32(%rsp)
	jmp	.L122
.L117:
	movq	%rbx, %rcx
	call	_ZN7testing8internal10scoped_ptrINSt7__cxx1112basic_stringIcSt11char_traitsIcESaIcEEEED4Ev.isra.26
	leaq	.LC105(%rip), %rdx
	movq	%rsi, %rcx
	call	_ZN8string20aSEPKc
	leaq	.LC105(%rip), %rdx
	movq	%rax, %rcx
	call	_Z5equalRK8string20PKc
	movq	$0, 80(%rsp)
	movb	%al, 72(%rsp)
	testb	%al, %al
	jne	.L118
	leaq	64(%rsp), %rsi
	leaq	112(%rsp), %rbp
	movq	%rsi, %rcx
	call	_ZN7testing7MessageC1Ev
	movq	64(%rsp), %rax
	leaq	.LC106(%rip), %rdx
	leaq	16(%rax), %rcx
	call	_ZStlsISt11char_traitsIcEERSt13basic_ostreamIcT_ES5_PKc
	leaq	.LC96(%rip), %rax
	movq	%rdi, %rdx
	movq	%rbp, %rcx
	movq	%rax, 32(%rsp)
	leaq	.LC94(%rip), %r9
	leaq	.LC107(%rip), %r8
	call	_ZN7testing8internal30GetBoolAssertionFailureMessageB5cxx11ERKNS_15AssertionResultEPKcS5_S5_
	movq	112(%rsp), %rax
	leaq	56(%rsp), %rdi
	movl	$57, %r9d
	movq	%rax, 32(%rsp)
	jmp	.L122
.L118:
	movq	%rbx, %rcx
	call	_ZN7testing8internal10scoped_ptrINSt7__cxx1112basic_stringIcSt11char_traitsIcESaIcEEEED4Ev.isra.26
	leaq	.LC105(%rip), %rdx
	movq	%rsi, %rcx
	call	_ZN8string20aSEPKc
	leaq	.LC108(%rip), %rdx
	movq	%rax, %rcx
	call	_ZN8string20aSEPKc
	leaq	.LC108(%rip), %rdx
	movq	%rax, %rcx
	call	_Z5equalRK8string20PKc
	movq	$0, 80(%rsp)
	movb	%al, 72(%rsp)
	testb	%al, %al
	jne	.L119
	leaq	64(%rsp), %rsi
	leaq	112(%rsp), %rbp
	movq	%rsi, %rcx
	call	_ZN7testing7MessageC1Ev
	movq	64(%rsp), %rax
	leaq	.LC109(%rip), %rdx
	leaq	16(%rax), %rcx
	call	_ZStlsISt11char_traitsIcEERSt13basic_ostreamIcT_ES5_PKc
	leaq	.LC96(%rip), %rax
	movq	%rdi, %rdx
	movq	%rbp, %rcx
	movq	%rax, 32(%rsp)
	leaq	.LC94(%rip), %r9
	leaq	.LC110(%rip), %r8
	call	_ZN7testing8internal30GetBoolAssertionFailureMessageB5cxx11ERKNS_15AssertionResultEPKcS5_S5_
	movq	112(%rsp), %rax
	leaq	56(%rsp), %rdi
	movl	$58, %r9d
	movq	%rax, 32(%rsp)
.L122:
	leaq	.LC77(%rip), %r8
	movl	$2, %edx
	movq	%rdi, %rcx
	call	_ZN7testing8internal12AssertHelperC1ENS_14TestPartResult4TypeEPKciS5_
	movq	%rsi, %rdx
	movq	%rdi, %rcx
	call	_ZNK7testing8internal12AssertHelperaSERKNS_7MessageE
	movq	%rdi, %rcx
	call	_ZN7testing8internal12AssertHelperD1Ev
	movq	%rbp, %rcx
	call	_ZNSt7__cxx1112basic_stringIcSt11char_traitsIcESaIcEE10_M_disposeEv
	movq	%rsi, %rcx
	call	_ZN7testing8internal10scoped_ptrINSt7__cxx1118basic_stringstreamIcSt11char_traitsIcESaIcEEEED4Ev.isra.15.constprop.50
.L119:
	movq	%rbx, %rcx
.L121:
	call	_ZN7testing8internal10scoped_ptrINSt7__cxx1112basic_stringIcSt11char_traitsIcESaIcEEEED4Ev.isra.26
	nop
	addq	$152, %rsp
	popq	%rbx
	popq	%rsi
	popq	%rdi
	popq	%rbp
	ret
	.seh_endproc
	.section	.text.unlikely._ZN18Assign_string_Test8TestBodyEv,"x"
.LCOLDE111:
	.section	.text$_ZN18Assign_string_Test8TestBodyEv,"x"
.LHOTE111:
	.section .rdata,"dr"
.LC112:
	.ascii "stringetje\0"
.LC113:
	.ascii "stringetje equals stringetje.\0"
.LC114:
	.ascii "equal( beassigned, \"stringetje\" )\0"
	.section	.text.unlikely._ZN20Assign_string20_Test8TestBodyEv,"x"
	.align 2
.LCOLDB115:
	.section	.text$_ZN20Assign_string20_Test8TestBodyEv,"x"
.LHOTB115:
	.align 2
	.globl	_ZN20Assign_string20_Test8TestBodyEv
	.def	_ZN20Assign_string20_Test8TestBodyEv;	.scl	2;	.type	32;	.endef
	.seh_proc	_ZN20Assign_string20_Test8TestBodyEv
_ZN20Assign_string20_Test8TestBodyEv:
	pushq	%rbp
	.seh_pushreg	%rbp
	pushq	%rdi
	.seh_pushreg	%rdi
	pushq	%rsi
	.seh_pushreg	%rsi
	pushq	%rbx
	.seh_pushreg	%rbx
	subq	$168, %rsp
	.seh_stackalloc	168
	.seh_endprologue
	leaq	.LC112(%rip), %rdx
	leaq	80(%rsp), %rsi
	leaq	104(%rsp), %rbx
	movq	%rsi, %rcx
	call	_ZN8string20C1EPKc
	movq	%rbx, %rcx
	movl	$51, %edx
	call	_ZN8string20C1Ec
	movq	%rbx, %rcx
	movq	%rsi, %rdx
	call	_ZN8string20aSERKS_
	leaq	.LC112(%rip), %rdx
	movq	%rbx, %rcx
	call	_Z5equalRK8string20PKc
	leaq	64(%rsp), %rbx
	movq	$0, 72(%rsp)
	testb	%al, %al
	movb	%al, 64(%rsp)
	jne	.L124
	leaq	56(%rsp), %rsi
	leaq	128(%rsp), %rbp
	movq	%rsi, %rcx
	call	_ZN7testing7MessageC1Ev
	movq	56(%rsp), %rax
	leaq	48(%rsp), %rdi
	leaq	.LC113(%rip), %rdx
	leaq	16(%rax), %rcx
	call	_ZStlsISt11char_traitsIcEERSt13basic_ostreamIcT_ES5_PKc
	leaq	.LC96(%rip), %rax
	movq	%rbx, %rdx
	movq	%rbp, %rcx
	movq	%rax, 32(%rsp)
	leaq	.LC94(%rip), %r9
	leaq	.LC114(%rip), %r8
	call	_ZN7testing8internal30GetBoolAssertionFailureMessageB5cxx11ERKNS_15AssertionResultEPKcS5_S5_
	movq	128(%rsp), %rax
	movl	$65, %r9d
	movq	%rdi, %rcx
	leaq	.LC77(%rip), %r8
	movl	$2, %edx
	movq	%rax, 32(%rsp)
	call	_ZN7testing8internal12AssertHelperC1ENS_14TestPartResult4TypeEPKciS5_
	movq	%rsi, %rdx
	movq	%rdi, %rcx
	call	_ZNK7testing8internal12AssertHelperaSERKNS_7MessageE
	movq	%rdi, %rcx
	call	_ZN7testing8internal12AssertHelperD1Ev
	movq	%rbp, %rcx
	call	_ZNSt7__cxx1112basic_stringIcSt11char_traitsIcESaIcEE10_M_disposeEv
	movq	%rsi, %rcx
	call	_ZN7testing8internal10scoped_ptrINSt7__cxx1118basic_stringstreamIcSt11char_traitsIcESaIcEEEED4Ev.isra.15.constprop.50
.L124:
	leaq	8(%rbx), %rcx
	call	_ZN7testing8internal10scoped_ptrINSt7__cxx1112basic_stringIcSt11char_traitsIcESaIcEEEED4Ev.isra.26
	nop
	addq	$168, %rsp
	popq	%rbx
	popq	%rsi
	popq	%rdi
	popq	%rbp
	ret
	.seh_endproc
	.section	.text.unlikely._ZN20Assign_string20_Test8TestBodyEv,"x"
.LCOLDE115:
	.section	.text$_ZN20Assign_string20_Test8TestBodyEv,"x"
.LHOTE115:
	.section .rdata,"dr"
.LC116:
	.ascii "b\0"
.LC117:
	.ascii "b equals b.\0"
.LC118:
	.ascii "equal( beassigned, \"b\" )\0"
	.section	.text.unlikely._ZN16Assign_Char_Test8TestBodyEv,"x"
	.align 2
.LCOLDB119:
	.section	.text$_ZN16Assign_Char_Test8TestBodyEv,"x"
.LHOTB119:
	.align 2
	.globl	_ZN16Assign_Char_Test8TestBodyEv
	.def	_ZN16Assign_Char_Test8TestBodyEv;	.scl	2;	.type	32;	.endef
	.seh_proc	_ZN16Assign_Char_Test8TestBodyEv
_ZN16Assign_Char_Test8TestBodyEv:
	pushq	%rbp
	.seh_pushreg	%rbp
	pushq	%rdi
	.seh_pushreg	%rdi
	pushq	%rsi
	.seh_pushreg	%rsi
	pushq	%rbx
	.seh_pushreg	%rbx
	subq	$152, %rsp
	.seh_stackalloc	152
	.seh_endprologue
	leaq	88(%rsp), %rbx
	movq	%rbx, %rcx
	call	_ZN8string20C1Ev
	movq	%rbx, %rcx
	movl	$98, %edx
	call	_ZN8string20aSEc
	leaq	.LC116(%rip), %rdx
	movq	%rbx, %rcx
	call	_Z5equalRK8string20PKc
	leaq	72(%rsp), %rbx
	movq	$0, 80(%rsp)
	testb	%al, %al
	movb	%al, 72(%rsp)
	jne	.L127
	leaq	64(%rsp), %rsi
	leaq	112(%rsp), %rbp
	movq	%rsi, %rcx
	call	_ZN7testing7MessageC1Ev
	movq	64(%rsp), %rax
	leaq	56(%rsp), %rdi
	leaq	.LC117(%rip), %rdx
	leaq	16(%rax), %rcx
	call	_ZStlsISt11char_traitsIcEERSt13basic_ostreamIcT_ES5_PKc
	leaq	.LC96(%rip), %rax
	movq	%rbx, %rdx
	movq	%rbp, %rcx
	movq	%rax, 32(%rsp)
	leaq	.LC94(%rip), %r9
	leaq	.LC118(%rip), %r8
	call	_ZN7testing8internal30GetBoolAssertionFailureMessageB5cxx11ERKNS_15AssertionResultEPKcS5_S5_
	movq	112(%rsp), %rax
	movl	$72, %r9d
	movq	%rdi, %rcx
	leaq	.LC77(%rip), %r8
	movl	$2, %edx
	movq	%rax, 32(%rsp)
	call	_ZN7testing8internal12AssertHelperC1ENS_14TestPartResult4TypeEPKciS5_
	movq	%rsi, %rdx
	movq	%rdi, %rcx
	call	_ZNK7testing8internal12AssertHelperaSERKNS_7MessageE
	movq	%rdi, %rcx
	call	_ZN7testing8internal12AssertHelperD1Ev
	movq	%rbp, %rcx
	call	_ZNSt7__cxx1112basic_stringIcSt11char_traitsIcESaIcEE10_M_disposeEv
	movq	%rsi, %rcx
	call	_ZN7testing8internal10scoped_ptrINSt7__cxx1118basic_stringstreamIcSt11char_traitsIcESaIcEEEED4Ev.isra.15.constprop.50
.L127:
	leaq	8(%rbx), %rcx
	call	_ZN7testing8internal10scoped_ptrINSt7__cxx1112basic_stringIcSt11char_traitsIcESaIcEEEED4Ev.isra.26
	nop
	addq	$152, %rsp
	popq	%rbx
	popq	%rsi
	popq	%rdi
	popq	%rbp
	ret
	.seh_endproc
	.section	.text.unlikely._ZN16Assign_Char_Test8TestBodyEv,"x"
.LCOLDE119:
	.section	.text$_ZN16Assign_Char_Test8TestBodyEv,"x"
.LHOTE119:
	.section .rdata,"dr"
.LC120:
	.ascii "firstpart_\0"
.LC121:
	.ascii "appended\0"
.LC122:
	.ascii "firstpart_appended\0"
.LC123:
	.ascii "appended string20\0"
.LC124:
	.ascii "equal( f, \"firstpart_appended\" )\0"
	.section	.text.unlikely._ZN20Append_string20_Test8TestBodyEv,"x"
	.align 2
.LCOLDB125:
	.section	.text$_ZN20Append_string20_Test8TestBodyEv,"x"
.LHOTB125:
	.align 2
	.globl	_ZN20Append_string20_Test8TestBodyEv
	.def	_ZN20Append_string20_Test8TestBodyEv;	.scl	2;	.type	32;	.endef
	.seh_proc	_ZN20Append_string20_Test8TestBodyEv
_ZN20Append_string20_Test8TestBodyEv:
	pushq	%rbp
	.seh_pushreg	%rbp
	pushq	%rdi
	.seh_pushreg	%rdi
	pushq	%rsi
	.seh_pushreg	%rsi
	pushq	%rbx
	.seh_pushreg	%rbx
	subq	$168, %rsp
	.seh_stackalloc	168
	.seh_endprologue
	leaq	.LC120(%rip), %rdx
	leaq	80(%rsp), %rbx
	leaq	104(%rsp), %rsi
	movq	%rbx, %rcx
	call	_ZN8string20C1EPKc
	leaq	.LC121(%rip), %rdx
	movq	%rsi, %rcx
	call	_ZN8string20C1EPKc
	movq	%rbx, %rcx
	movq	%rsi, %rdx
	call	_ZN8string20pLERKS_
	leaq	.LC122(%rip), %rdx
	movq	%rbx, %rcx
	call	_Z5equalRK8string20PKc
	leaq	64(%rsp), %rbx
	movq	$0, 72(%rsp)
	testb	%al, %al
	movb	%al, 64(%rsp)
	jne	.L130
	leaq	56(%rsp), %rsi
	leaq	128(%rsp), %rbp
	movq	%rsi, %rcx
	call	_ZN7testing7MessageC1Ev
	movq	56(%rsp), %rax
	leaq	48(%rsp), %rdi
	leaq	.LC123(%rip), %rdx
	leaq	16(%rax), %rcx
	call	_ZStlsISt11char_traitsIcEERSt13basic_ostreamIcT_ES5_PKc
	leaq	.LC96(%rip), %rax
	movq	%rbx, %rdx
	movq	%rbp, %rcx
	movq	%rax, 32(%rsp)
	leaq	.LC94(%rip), %r9
	leaq	.LC124(%rip), %r8
	call	_ZN7testing8internal30GetBoolAssertionFailureMessageB5cxx11ERKNS_15AssertionResultEPKcS5_S5_
	movq	128(%rsp), %rax
	movl	$80, %r9d
	movq	%rdi, %rcx
	leaq	.LC77(%rip), %r8
	movl	$2, %edx
	movq	%rax, 32(%rsp)
	call	_ZN7testing8internal12AssertHelperC1ENS_14TestPartResult4TypeEPKciS5_
	movq	%rsi, %rdx
	movq	%rdi, %rcx
	call	_ZNK7testing8internal12AssertHelperaSERKNS_7MessageE
	movq	%rdi, %rcx
	call	_ZN7testing8internal12AssertHelperD1Ev
	movq	%rbp, %rcx
	call	_ZNSt7__cxx1112basic_stringIcSt11char_traitsIcESaIcEE10_M_disposeEv
	movq	%rsi, %rcx
	call	_ZN7testing8internal10scoped_ptrINSt7__cxx1118basic_stringstreamIcSt11char_traitsIcESaIcEEEED4Ev.isra.15.constprop.50
.L130:
	leaq	8(%rbx), %rcx
	call	_ZN7testing8internal10scoped_ptrINSt7__cxx1112basic_stringIcSt11char_traitsIcESaIcEEEED4Ev.isra.26
	nop
	addq	$168, %rsp
	popq	%rbx
	popq	%rsi
	popq	%rdi
	popq	%rbp
	ret
	.seh_endproc
	.section	.text.unlikely._ZN20Append_string20_Test8TestBodyEv,"x"
.LCOLDE125:
	.section	.text$_ZN20Append_string20_Test8TestBodyEv,"x"
.LHOTE125:
	.section .rdata,"dr"
.LC126:
	.ascii "appended_\0"
.LC127:
	.ascii "appended_a\0"
.LC128:
	.ascii "appended char\0"
.LC129:
	.ascii "equal( s, \"appended_a\" )\0"
	.section	.text.unlikely._ZN16Append_Char_Test8TestBodyEv,"x"
	.align 2
.LCOLDB130:
	.section	.text$_ZN16Append_Char_Test8TestBodyEv,"x"
.LHOTB130:
	.align 2
	.globl	_ZN16Append_Char_Test8TestBodyEv
	.def	_ZN16Append_Char_Test8TestBodyEv;	.scl	2;	.type	32;	.endef
	.seh_proc	_ZN16Append_Char_Test8TestBodyEv
_ZN16Append_Char_Test8TestBodyEv:
	pushq	%rbp
	.seh_pushreg	%rbp
	pushq	%rdi
	.seh_pushreg	%rdi
	pushq	%rsi
	.seh_pushreg	%rsi
	pushq	%rbx
	.seh_pushreg	%rbx
	subq	$152, %rsp
	.seh_stackalloc	152
	.seh_endprologue
	leaq	.LC126(%rip), %rdx
	leaq	88(%rsp), %rbx
	movq	%rbx, %rcx
	call	_ZN8string20C1EPKc
	movq	%rbx, %rcx
	movl	$97, %edx
	call	_ZN8string20pLEc
	leaq	.LC127(%rip), %rdx
	movq	%rbx, %rcx
	call	_Z5equalRK8string20PKc
	leaq	72(%rsp), %rbx
	movq	$0, 80(%rsp)
	testb	%al, %al
	movb	%al, 72(%rsp)
	jne	.L133
	leaq	64(%rsp), %rsi
	leaq	112(%rsp), %rbp
	movq	%rsi, %rcx
	call	_ZN7testing7MessageC1Ev
	movq	64(%rsp), %rax
	leaq	56(%rsp), %rdi
	leaq	.LC128(%rip), %rdx
	leaq	16(%rax), %rcx
	call	_ZStlsISt11char_traitsIcEERSt13basic_ostreamIcT_ES5_PKc
	leaq	.LC96(%rip), %rax
	movq	%rbx, %rdx
	movq	%rbp, %rcx
	movq	%rax, 32(%rsp)
	leaq	.LC94(%rip), %r9
	leaq	.LC129(%rip), %r8
	call	_ZN7testing8internal30GetBoolAssertionFailureMessageB5cxx11ERKNS_15AssertionResultEPKcS5_S5_
	movq	112(%rsp), %rax
	movl	$88, %r9d
	movq	%rdi, %rcx
	leaq	.LC77(%rip), %r8
	movl	$2, %edx
	movq	%rax, 32(%rsp)
	call	_ZN7testing8internal12AssertHelperC1ENS_14TestPartResult4TypeEPKciS5_
	movq	%rsi, %rdx
	movq	%rdi, %rcx
	call	_ZNK7testing8internal12AssertHelperaSERKNS_7MessageE
	movq	%rdi, %rcx
	call	_ZN7testing8internal12AssertHelperD1Ev
	movq	%rbp, %rcx
	call	_ZNSt7__cxx1112basic_stringIcSt11char_traitsIcESaIcEE10_M_disposeEv
	movq	%rsi, %rcx
	call	_ZN7testing8internal10scoped_ptrINSt7__cxx1118basic_stringstreamIcSt11char_traitsIcESaIcEEEED4Ev.isra.15.constprop.50
.L133:
	leaq	8(%rbx), %rcx
	call	_ZN7testing8internal10scoped_ptrINSt7__cxx1112basic_stringIcSt11char_traitsIcESaIcEEEED4Ev.isra.26
	nop
	addq	$152, %rsp
	popq	%rbx
	popq	%rsi
	popq	%rdi
	popq	%rbp
	ret
	.seh_endproc
	.section	.text.unlikely._ZN16Append_Char_Test8TestBodyEv,"x"
.LCOLDE130:
	.section	.text$_ZN16Append_Char_Test8TestBodyEv,"x"
.LHOTE130:
	.section .rdata,"dr"
.LC131:
	.ascii "string_appending\0"
.LC132:
	.ascii "appended_string_appending\0"
.LC133:
	.ascii "appended string\0"
.LC134:
	.ascii "equal( s, \"appended_string_appending\" )\0"
	.section	.text.unlikely._ZN18Append_string_Test8TestBodyEv,"x"
	.align 2
.LCOLDB135:
	.section	.text$_ZN18Append_string_Test8TestBodyEv,"x"
.LHOTB135:
	.align 2
	.globl	_ZN18Append_string_Test8TestBodyEv
	.def	_ZN18Append_string_Test8TestBodyEv;	.scl	2;	.type	32;	.endef
	.seh_proc	_ZN18Append_string_Test8TestBodyEv
_ZN18Append_string_Test8TestBodyEv:
	pushq	%rbp
	.seh_pushreg	%rbp
	pushq	%rdi
	.seh_pushreg	%rdi
	pushq	%rsi
	.seh_pushreg	%rsi
	pushq	%rbx
	.seh_pushreg	%rbx
	subq	$152, %rsp
	.seh_stackalloc	152
	.seh_endprologue
	leaq	.LC126(%rip), %rdx
	leaq	88(%rsp), %rbx
	movq	%rbx, %rcx
	call	_ZN8string20C1EPKc
	leaq	.LC131(%rip), %rdx
	movq	%rbx, %rcx
	call	_ZN8string20pLEPKc
	leaq	.LC132(%rip), %rdx
	movq	%rbx, %rcx
	call	_Z5equalRK8string20PKc
	leaq	72(%rsp), %rbx
	movq	$0, 80(%rsp)
	testb	%al, %al
	movb	%al, 72(%rsp)
	jne	.L136
	leaq	64(%rsp), %rsi
	leaq	112(%rsp), %rbp
	movq	%rsi, %rcx
	call	_ZN7testing7MessageC1Ev
	movq	64(%rsp), %rax
	leaq	56(%rsp), %rdi
	leaq	.LC133(%rip), %rdx
	leaq	16(%rax), %rcx
	call	_ZStlsISt11char_traitsIcEERSt13basic_ostreamIcT_ES5_PKc
	leaq	.LC96(%rip), %rax
	movq	%rbx, %rdx
	movq	%rbp, %rcx
	movq	%rax, 32(%rsp)
	leaq	.LC94(%rip), %r9
	leaq	.LC134(%rip), %r8
	call	_ZN7testing8internal30GetBoolAssertionFailureMessageB5cxx11ERKNS_15AssertionResultEPKcS5_S5_
	movq	112(%rsp), %rax
	movl	$96, %r9d
	movq	%rdi, %rcx
	leaq	.LC77(%rip), %r8
	movl	$2, %edx
	movq	%rax, 32(%rsp)
	call	_ZN7testing8internal12AssertHelperC1ENS_14TestPartResult4TypeEPKciS5_
	movq	%rsi, %rdx
	movq	%rdi, %rcx
	call	_ZNK7testing8internal12AssertHelperaSERKNS_7MessageE
	movq	%rdi, %rcx
	call	_ZN7testing8internal12AssertHelperD1Ev
	movq	%rbp, %rcx
	call	_ZNSt7__cxx1112basic_stringIcSt11char_traitsIcESaIcEE10_M_disposeEv
	movq	%rsi, %rcx
	call	_ZN7testing8internal10scoped_ptrINSt7__cxx1118basic_stringstreamIcSt11char_traitsIcESaIcEEEED4Ev.isra.15.constprop.50
.L136:
	leaq	8(%rbx), %rcx
	call	_ZN7testing8internal10scoped_ptrINSt7__cxx1112basic_stringIcSt11char_traitsIcESaIcEEEED4Ev.isra.26
	nop
	addq	$152, %rsp
	popq	%rbx
	popq	%rsi
	popq	%rdi
	popq	%rbp
	ret
	.seh_endproc
	.section	.text.unlikely._ZN18Append_string_Test8TestBodyEv,"x"
.LCOLDE135:
	.section	.text$_ZN18Append_string_Test8TestBodyEv,"x"
.LHOTE135:
	.section .rdata,"dr"
.LC136:
	.ascii "asdf\0"
.LC137:
	.ascii "asdfasdf\0"
.LC138:
	.ascii "added string20\0"
.LC139:
	.ascii "equal( first + second, \"asdfasdf\" )\0"
	.section	.text.unlikely._ZN17Add_string20_Test8TestBodyEv,"x"
	.align 2
.LCOLDB140:
	.section	.text$_ZN17Add_string20_Test8TestBodyEv,"x"
.LHOTB140:
	.align 2
	.globl	_ZN17Add_string20_Test8TestBodyEv
	.def	_ZN17Add_string20_Test8TestBodyEv;	.scl	2;	.type	32;	.endef
	.seh_proc	_ZN17Add_string20_Test8TestBodyEv
_ZN17Add_string20_Test8TestBodyEv:
	pushq	%rbp
	.seh_pushreg	%rbp
	pushq	%rdi
	.seh_pushreg	%rdi
	pushq	%rsi
	.seh_pushreg	%rsi
	pushq	%rbx
	.seh_pushreg	%rbx
	subq	$184, %rsp
	.seh_stackalloc	184
	.seh_endprologue
	leaq	.LC136(%rip), %rdx
	leaq	96(%rsp), %rbx
	leaq	144(%rsp), %rsi
	movq	%rbx, %rcx
	call	_ZN8string20C1EPKc
	leaq	120(%rsp), %r8
	leaq	.LC136(%rip), %rdx
	movq	%r8, %rcx
	movq	%r8, 56(%rsp)
	call	_ZN8string20C1EPKc
	movq	56(%rsp), %r8
	movq	%rbx, %rdx
	movq	%rsi, %rcx
	leaq	80(%rsp), %rbx
	call	_ZNK8string20plERKS_
	leaq	.LC137(%rip), %rdx
	movq	%rsi, %rcx
	call	_Z5equalRK8string20PKc
	movq	$0, 88(%rsp)
	testb	%al, %al
	movb	%al, 80(%rsp)
	jne	.L139
	leaq	72(%rsp), %rdi
	leaq	64(%rsp), %rbp
	movq	%rdi, %rcx
	call	_ZN7testing7MessageC1Ev
	movq	72(%rsp), %rax
	leaq	.LC138(%rip), %rdx
	leaq	16(%rax), %rcx
	call	_ZStlsISt11char_traitsIcEERSt13basic_ostreamIcT_ES5_PKc
	leaq	.LC96(%rip), %rax
	movq	%rbx, %rdx
	movq	%rsi, %rcx
	movq	%rax, 32(%rsp)
	leaq	.LC94(%rip), %r9
	leaq	.LC139(%rip), %r8
	call	_ZN7testing8internal30GetBoolAssertionFailureMessageB5cxx11ERKNS_15AssertionResultEPKcS5_S5_
	movq	144(%rsp), %rax
	movl	$102, %r9d
	movq	%rbp, %rcx
	leaq	.LC77(%rip), %r8
	movl	$2, %edx
	movq	%rax, 32(%rsp)
	call	_ZN7testing8internal12AssertHelperC1ENS_14TestPartResult4TypeEPKciS5_
	movq	%rdi, %rdx
	movq	%rbp, %rcx
	call	_ZNK7testing8internal12AssertHelperaSERKNS_7MessageE
	movq	%rbp, %rcx
	call	_ZN7testing8internal12AssertHelperD1Ev
	movq	%rsi, %rcx
	call	_ZNSt7__cxx1112basic_stringIcSt11char_traitsIcESaIcEE10_M_disposeEv
	movq	%rdi, %rcx
	call	_ZN7testing8internal10scoped_ptrINSt7__cxx1118basic_stringstreamIcSt11char_traitsIcESaIcEEEED4Ev.isra.15.constprop.50
.L139:
	leaq	8(%rbx), %rcx
	call	_ZN7testing8internal10scoped_ptrINSt7__cxx1112basic_stringIcSt11char_traitsIcESaIcEEEED4Ev.isra.26
	nop
	addq	$184, %rsp
	popq	%rbx
	popq	%rsi
	popq	%rdi
	popq	%rbp
	ret
	.seh_endproc
	.section	.text.unlikely._ZN17Add_string20_Test8TestBodyEv,"x"
.LCOLDE140:
	.section	.text$_ZN17Add_string20_Test8TestBodyEv,"x"
.LHOTE140:
	.section .rdata,"dr"
.LC141:
	.ascii "asdfg\0"
.LC142:
	.ascii "added char\0"
.LC143:
	.ascii "equal( first + second, \"asdfg\" )\0"
	.section	.text.unlikely._ZN13Add_Char_Test8TestBodyEv,"x"
	.align 2
.LCOLDB144:
	.section	.text$_ZN13Add_Char_Test8TestBodyEv,"x"
.LHOTB144:
	.align 2
	.globl	_ZN13Add_Char_Test8TestBodyEv
	.def	_ZN13Add_Char_Test8TestBodyEv;	.scl	2;	.type	32;	.endef
	.seh_proc	_ZN13Add_Char_Test8TestBodyEv
_ZN13Add_Char_Test8TestBodyEv:
	pushq	%rbp
	.seh_pushreg	%rbp
	pushq	%rdi
	.seh_pushreg	%rdi
	pushq	%rsi
	.seh_pushreg	%rsi
	pushq	%rbx
	.seh_pushreg	%rbx
	subq	$152, %rsp
	.seh_stackalloc	152
	.seh_endprologue
	leaq	.LC136(%rip), %rdx
	leaq	88(%rsp), %rbx
	leaq	112(%rsp), %rsi
	movq	%rbx, %rcx
	call	_ZN8string20C1EPKc
	movq	%rbx, %rdx
	movl	$103, %r8d
	movq	%rsi, %rcx
	call	_ZNK8string20plEc
	leaq	.LC141(%rip), %rdx
	movq	%rsi, %rcx
	call	_Z5equalRK8string20PKc
	leaq	72(%rsp), %rbx
	movq	$0, 80(%rsp)
	testb	%al, %al
	movb	%al, 72(%rsp)
	jne	.L142
	leaq	64(%rsp), %rdi
	leaq	56(%rsp), %rbp
	movq	%rdi, %rcx
	call	_ZN7testing7MessageC1Ev
	movq	64(%rsp), %rax
	leaq	.LC142(%rip), %rdx
	leaq	16(%rax), %rcx
	call	_ZStlsISt11char_traitsIcEERSt13basic_ostreamIcT_ES5_PKc
	leaq	.LC96(%rip), %rax
	movq	%rbx, %rdx
	movq	%rsi, %rcx
	movq	%rax, 32(%rsp)
	leaq	.LC94(%rip), %r9
	leaq	.LC143(%rip), %r8
	call	_ZN7testing8internal30GetBoolAssertionFailureMessageB5cxx11ERKNS_15AssertionResultEPKcS5_S5_
	movq	112(%rsp), %rax
	movl	$108, %r9d
	movq	%rbp, %rcx
	leaq	.LC77(%rip), %r8
	movl	$2, %edx
	movq	%rax, 32(%rsp)
	call	_ZN7testing8internal12AssertHelperC1ENS_14TestPartResult4TypeEPKciS5_
	movq	%rdi, %rdx
	movq	%rbp, %rcx
	call	_ZNK7testing8internal12AssertHelperaSERKNS_7MessageE
	movq	%rbp, %rcx
	call	_ZN7testing8internal12AssertHelperD1Ev
	movq	%rsi, %rcx
	call	_ZNSt7__cxx1112basic_stringIcSt11char_traitsIcESaIcEE10_M_disposeEv
	movq	%rdi, %rcx
	call	_ZN7testing8internal10scoped_ptrINSt7__cxx1118basic_stringstreamIcSt11char_traitsIcESaIcEEEED4Ev.isra.15.constprop.50
.L142:
	leaq	8(%rbx), %rcx
	call	_ZN7testing8internal10scoped_ptrINSt7__cxx1112basic_stringIcSt11char_traitsIcESaIcEEEED4Ev.isra.26
	nop
	addq	$152, %rsp
	popq	%rbx
	popq	%rsi
	popq	%rdi
	popq	%rbp
	ret
	.seh_endproc
	.section	.text.unlikely._ZN13Add_Char_Test8TestBodyEv,"x"
.LCOLDE144:
	.section	.text$_ZN13Add_Char_Test8TestBodyEv,"x"
.LHOTE144:
	.section .rdata,"dr"
.LC145:
	.ascii "_fdsa\0"
.LC146:
	.ascii "asdf_fdsa\0"
.LC147:
	.ascii "added string\0"
.LC148:
	.ascii "equal( first + second, \"asdf_fdsa\" )\0"
	.section	.text.unlikely._ZN15Add_string_Test8TestBodyEv,"x"
	.align 2
.LCOLDB149:
	.section	.text$_ZN15Add_string_Test8TestBodyEv,"x"
.LHOTB149:
	.align 2
	.globl	_ZN15Add_string_Test8TestBodyEv
	.def	_ZN15Add_string_Test8TestBodyEv;	.scl	2;	.type	32;	.endef
	.seh_proc	_ZN15Add_string_Test8TestBodyEv
_ZN15Add_string_Test8TestBodyEv:
	pushq	%rbp
	.seh_pushreg	%rbp
	pushq	%rdi
	.seh_pushreg	%rdi
	pushq	%rsi
	.seh_pushreg	%rsi
	pushq	%rbx
	.seh_pushreg	%rbx
	subq	$152, %rsp
	.seh_stackalloc	152
	.seh_endprologue
	leaq	.LC136(%rip), %rdx
	leaq	88(%rsp), %rbx
	leaq	112(%rsp), %rsi
	movq	%rbx, %rcx
	call	_ZN8string20C1EPKc
	movq	%rbx, %rdx
	movq	%rsi, %rcx
	leaq	.LC145(%rip), %r8
	call	_ZNK8string20plEPKc
	leaq	.LC146(%rip), %rdx
	movq	%rsi, %rcx
	call	_Z5equalRK8string20PKc
	leaq	72(%rsp), %rbx
	movq	$0, 80(%rsp)
	testb	%al, %al
	movb	%al, 72(%rsp)
	jne	.L145
	leaq	64(%rsp), %rdi
	leaq	56(%rsp), %rbp
	movq	%rdi, %rcx
	call	_ZN7testing7MessageC1Ev
	movq	64(%rsp), %rax
	leaq	.LC147(%rip), %rdx
	leaq	16(%rax), %rcx
	call	_ZStlsISt11char_traitsIcEERSt13basic_ostreamIcT_ES5_PKc
	leaq	.LC96(%rip), %rax
	movq	%rbx, %rdx
	movq	%rsi, %rcx
	movq	%rax, 32(%rsp)
	leaq	.LC94(%rip), %r9
	leaq	.LC148(%rip), %r8
	call	_ZN7testing8internal30GetBoolAssertionFailureMessageB5cxx11ERKNS_15AssertionResultEPKcS5_S5_
	movq	112(%rsp), %rax
	movl	$114, %r9d
	movq	%rbp, %rcx
	leaq	.LC77(%rip), %r8
	movl	$2, %edx
	movq	%rax, 32(%rsp)
	call	_ZN7testing8internal12AssertHelperC1ENS_14TestPartResult4TypeEPKciS5_
	movq	%rdi, %rdx
	movq	%rbp, %rcx
	call	_ZNK7testing8internal12AssertHelperaSERKNS_7MessageE
	movq	%rbp, %rcx
	call	_ZN7testing8internal12AssertHelperD1Ev
	movq	%rsi, %rcx
	call	_ZNSt7__cxx1112basic_stringIcSt11char_traitsIcESaIcEE10_M_disposeEv
	movq	%rdi, %rcx
	call	_ZN7testing8internal10scoped_ptrINSt7__cxx1118basic_stringstreamIcSt11char_traitsIcESaIcEEEED4Ev.isra.15.constprop.50
.L145:
	leaq	8(%rbx), %rcx
	call	_ZN7testing8internal10scoped_ptrINSt7__cxx1112basic_stringIcSt11char_traitsIcESaIcEEEED4Ev.isra.26
	nop
	addq	$152, %rsp
	popq	%rbx
	popq	%rsi
	popq	%rdi
	popq	%rbp
	ret
	.seh_endproc
	.section	.text.unlikely._ZN15Add_string_Test8TestBodyEv,"x"
.LCOLDE149:
	.section	.text$_ZN15Add_string_Test8TestBodyEv,"x"
.LHOTE149:
	.section .rdata,"dr"
.LC150:
	.ascii "fasdf\0"
.LC151:
	.ascii "added string reverse\0"
.LC152:
	.ascii "equal( s + first, \"fasdf\" )\0"
	.section	.text.unlikely._ZN30Add_Char_String20_reverse_Test8TestBodyEv,"x"
	.align 2
.LCOLDB153:
	.section	.text$_ZN30Add_Char_String20_reverse_Test8TestBodyEv,"x"
.LHOTB153:
	.align 2
	.globl	_ZN30Add_Char_String20_reverse_Test8TestBodyEv
	.def	_ZN30Add_Char_String20_reverse_Test8TestBodyEv;	.scl	2;	.type	32;	.endef
	.seh_proc	_ZN30Add_Char_String20_reverse_Test8TestBodyEv
_ZN30Add_Char_String20_reverse_Test8TestBodyEv:
	pushq	%rbp
	.seh_pushreg	%rbp
	pushq	%rdi
	.seh_pushreg	%rdi
	pushq	%rsi
	.seh_pushreg	%rsi
	pushq	%rbx
	.seh_pushreg	%rbx
	subq	$168, %rsp
	.seh_stackalloc	168
	.seh_endprologue
	leaq	.LC136(%rip), %rdx
	leaq	104(%rsp), %r8
	movq	%r8, 56(%rsp)
	leaq	128(%rsp), %rsi
	movq	%r8, %rcx
	call	_ZN8string20C1EPKc
	movq	56(%rsp), %r8
	movl	$102, %edx
	movq	%rsi, %rcx
	leaq	88(%rsp), %rbx
	call	_ZplcRK8string20
	leaq	.LC150(%rip), %rdx
	movq	%rsi, %rcx
	call	_Z5equalRK8string20PKc
	movq	$0, 96(%rsp)
	testb	%al, %al
	movb	%al, 88(%rsp)
	jne	.L148
	leaq	80(%rsp), %rdi
	leaq	72(%rsp), %rbp
	movq	%rdi, %rcx
	call	_ZN7testing7MessageC1Ev
	movq	80(%rsp), %rax
	leaq	.LC151(%rip), %rdx
	leaq	16(%rax), %rcx
	call	_ZStlsISt11char_traitsIcEERSt13basic_ostreamIcT_ES5_PKc
	leaq	.LC96(%rip), %rax
	movq	%rbx, %rdx
	movq	%rsi, %rcx
	movq	%rax, 32(%rsp)
	leaq	.LC94(%rip), %r9
	leaq	.LC152(%rip), %r8
	call	_ZN7testing8internal30GetBoolAssertionFailureMessageB5cxx11ERKNS_15AssertionResultEPKcS5_S5_
	movq	128(%rsp), %rax
	movl	$120, %r9d
	movq	%rbp, %rcx
	leaq	.LC77(%rip), %r8
	movl	$2, %edx
	movq	%rax, 32(%rsp)
	call	_ZN7testing8internal12AssertHelperC1ENS_14TestPartResult4TypeEPKciS5_
	movq	%rdi, %rdx
	movq	%rbp, %rcx
	call	_ZNK7testing8internal12AssertHelperaSERKNS_7MessageE
	movq	%rbp, %rcx
	call	_ZN7testing8internal12AssertHelperD1Ev
	movq	%rsi, %rcx
	call	_ZNSt7__cxx1112basic_stringIcSt11char_traitsIcESaIcEE10_M_disposeEv
	movq	%rdi, %rcx
	call	_ZN7testing8internal10scoped_ptrINSt7__cxx1118basic_stringstreamIcSt11char_traitsIcESaIcEEEED4Ev.isra.15.constprop.50
.L148:
	leaq	8(%rbx), %rcx
	call	_ZN7testing8internal10scoped_ptrINSt7__cxx1112basic_stringIcSt11char_traitsIcESaIcEEEED4Ev.isra.26
	nop
	addq	$168, %rsp
	popq	%rbx
	popq	%rsi
	popq	%rdi
	popq	%rbp
	ret
	.seh_endproc
	.section	.text.unlikely._ZN30Add_Char_String20_reverse_Test8TestBodyEv,"x"
.LCOLDE153:
	.section	.text$_ZN30Add_Char_String20_reverse_Test8TestBodyEv,"x"
.LHOTE153:
	.section .rdata,"dr"
.LC154:
	.ascii "vissenkop_\0"
.LC155:
	.ascii "vissenkop_asdf\0"
.LC156:
	.ascii "added string20 reverse\0"
.LC157:
	.ascii "equal( second + first, \"vissenkop_asdf\" )\0"
	.section	.text.unlikely._ZN32Add_string_String20_reverse_Test8TestBodyEv,"x"
	.align 2
.LCOLDB158:
	.section	.text$_ZN32Add_string_String20_reverse_Test8TestBodyEv,"x"
.LHOTB158:
	.align 2
	.globl	_ZN32Add_string_String20_reverse_Test8TestBodyEv
	.def	_ZN32Add_string_String20_reverse_Test8TestBodyEv;	.scl	2;	.type	32;	.endef
	.seh_proc	_ZN32Add_string_String20_reverse_Test8TestBodyEv
_ZN32Add_string_String20_reverse_Test8TestBodyEv:
	pushq	%rbp
	.seh_pushreg	%rbp
	pushq	%rdi
	.seh_pushreg	%rdi
	pushq	%rsi
	.seh_pushreg	%rsi
	pushq	%rbx
	.seh_pushreg	%rbx
	subq	$168, %rsp
	.seh_stackalloc	168
	.seh_endprologue
	leaq	.LC136(%rip), %rdx
	leaq	104(%rsp), %r8
	movq	%r8, 56(%rsp)
	leaq	128(%rsp), %rsi
	movq	%r8, %rcx
	call	_ZN8string20C1EPKc
	movq	56(%rsp), %r8
	movq	%rsi, %rcx
	leaq	.LC154(%rip), %rdx
	leaq	88(%rsp), %rbx
	call	_ZplPKcRK8string20
	leaq	.LC155(%rip), %rdx
	movq	%rsi, %rcx
	call	_Z5equalRK8string20PKc
	movq	$0, 96(%rsp)
	testb	%al, %al
	movb	%al, 88(%rsp)
	jne	.L151
	leaq	80(%rsp), %rdi
	leaq	72(%rsp), %rbp
	movq	%rdi, %rcx
	call	_ZN7testing7MessageC1Ev
	movq	80(%rsp), %rax
	leaq	.LC156(%rip), %rdx
	leaq	16(%rax), %rcx
	call	_ZStlsISt11char_traitsIcEERSt13basic_ostreamIcT_ES5_PKc
	leaq	.LC96(%rip), %rax
	movq	%rbx, %rdx
	movq	%rsi, %rcx
	movq	%rax, 32(%rsp)
	leaq	.LC94(%rip), %r9
	leaq	.LC157(%rip), %r8
	call	_ZN7testing8internal30GetBoolAssertionFailureMessageB5cxx11ERKNS_15AssertionResultEPKcS5_S5_
	movq	128(%rsp), %rax
	movl	$126, %r9d
	movq	%rbp, %rcx
	leaq	.LC77(%rip), %r8
	movl	$2, %edx
	movq	%rax, 32(%rsp)
	call	_ZN7testing8internal12AssertHelperC1ENS_14TestPartResult4TypeEPKciS5_
	movq	%rdi, %rdx
	movq	%rbp, %rcx
	call	_ZNK7testing8internal12AssertHelperaSERKNS_7MessageE
	movq	%rbp, %rcx
	call	_ZN7testing8internal12AssertHelperD1Ev
	movq	%rsi, %rcx
	call	_ZNSt7__cxx1112basic_stringIcSt11char_traitsIcESaIcEE10_M_disposeEv
	movq	%rdi, %rcx
	call	_ZN7testing8internal10scoped_ptrINSt7__cxx1118basic_stringstreamIcSt11char_traitsIcESaIcEEEED4Ev.isra.15.constprop.50
.L151:
	leaq	8(%rbx), %rcx
	call	_ZN7testing8internal10scoped_ptrINSt7__cxx1112basic_stringIcSt11char_traitsIcESaIcEEEED4Ev.isra.26
	nop
	addq	$168, %rsp
	popq	%rbx
	popq	%rsi
	popq	%rdi
	popq	%rbp
	ret
	.seh_endproc
	.section	.text.unlikely._ZN32Add_string_String20_reverse_Test8TestBodyEv,"x"
.LCOLDE158:
	.section	.text$_ZN32Add_string_String20_reverse_Test8TestBodyEv,"x"
.LHOTE158:
	.section .rdata,"dr"
.LC159:
	.ascii "asdfasdfasdfasdf\0"
.LC160:
	.ascii "multiplied string\0"
.LC161:
	.ascii "equal( first*4, \"asdfasdfasdfasdf\" )\0"
	.section	.text.unlikely._ZN26Multiply_string20_int_Test8TestBodyEv,"x"
	.align 2
.LCOLDB162:
	.section	.text$_ZN26Multiply_string20_int_Test8TestBodyEv,"x"
.LHOTB162:
	.align 2
	.globl	_ZN26Multiply_string20_int_Test8TestBodyEv
	.def	_ZN26Multiply_string20_int_Test8TestBodyEv;	.scl	2;	.type	32;	.endef
	.seh_proc	_ZN26Multiply_string20_int_Test8TestBodyEv
_ZN26Multiply_string20_int_Test8TestBodyEv:
	pushq	%rbp
	.seh_pushreg	%rbp
	pushq	%rdi
	.seh_pushreg	%rdi
	pushq	%rsi
	.seh_pushreg	%rsi
	pushq	%rbx
	.seh_pushreg	%rbx
	subq	$152, %rsp
	.seh_stackalloc	152
	.seh_endprologue
	leaq	.LC136(%rip), %rdx
	leaq	88(%rsp), %rbx
	leaq	112(%rsp), %rsi
	movq	%rbx, %rcx
	call	_ZN8string20C1EPKc
	movq	%rbx, %rdx
	movl	$4, %r8d
	movq	%rsi, %rcx
	call	_ZNK8string20mlEi
	leaq	.LC159(%rip), %rdx
	movq	%rsi, %rcx
	call	_Z5equalRK8string20PKc
	leaq	72(%rsp), %rbx
	movq	$0, 80(%rsp)
	testb	%al, %al
	movb	%al, 72(%rsp)
	jne	.L154
	leaq	64(%rsp), %rdi
	leaq	56(%rsp), %rbp
	movq	%rdi, %rcx
	call	_ZN7testing7MessageC1Ev
	movq	64(%rsp), %rax
	leaq	.LC160(%rip), %rdx
	leaq	16(%rax), %rcx
	call	_ZStlsISt11char_traitsIcEERSt13basic_ostreamIcT_ES5_PKc
	leaq	.LC96(%rip), %rax
	movq	%rbx, %rdx
	movq	%rsi, %rcx
	movq	%rax, 32(%rsp)
	leaq	.LC94(%rip), %r9
	leaq	.LC161(%rip), %r8
	call	_ZN7testing8internal30GetBoolAssertionFailureMessageB5cxx11ERKNS_15AssertionResultEPKcS5_S5_
	movq	112(%rsp), %rax
	movl	$131, %r9d
	movq	%rbp, %rcx
	leaq	.LC77(%rip), %r8
	movl	$2, %edx
	movq	%rax, 32(%rsp)
	call	_ZN7testing8internal12AssertHelperC1ENS_14TestPartResult4TypeEPKciS5_
	movq	%rdi, %rdx
	movq	%rbp, %rcx
	call	_ZNK7testing8internal12AssertHelperaSERKNS_7MessageE
	movq	%rbp, %rcx
	call	_ZN7testing8internal12AssertHelperD1Ev
	movq	%rsi, %rcx
	call	_ZNSt7__cxx1112basic_stringIcSt11char_traitsIcESaIcEE10_M_disposeEv
	movq	%rdi, %rcx
	call	_ZN7testing8internal10scoped_ptrINSt7__cxx1118basic_stringstreamIcSt11char_traitsIcESaIcEEEED4Ev.isra.15.constprop.50
.L154:
	leaq	8(%rbx), %rcx
	call	_ZN7testing8internal10scoped_ptrINSt7__cxx1112basic_stringIcSt11char_traitsIcESaIcEEEED4Ev.isra.26
	nop
	addq	$152, %rsp
	popq	%rbx
	popq	%rsi
	popq	%rdi
	popq	%rbp
	ret
	.seh_endproc
	.section	.text.unlikely._ZN26Multiply_string20_int_Test8TestBodyEv,"x"
.LCOLDE162:
	.section	.text$_ZN26Multiply_string20_int_Test8TestBodyEv,"x"
.LHOTE162:
	.section .rdata,"dr"
.LC163:
	.ascii "kip_\0"
.LC164:
	.ascii "kip_kip_kip_kip_\0"
.LC165:
	.ascii "multiplied string reverse\0"
.LC166:
	.ascii "equal( 4*first, \"kip_kip_kip_kip_\" )\0"
	.section	.text.unlikely._ZN34Multiply_string20_int_reverse_Test8TestBodyEv,"x"
	.align 2
.LCOLDB167:
	.section	.text$_ZN34Multiply_string20_int_reverse_Test8TestBodyEv,"x"
.LHOTB167:
	.align 2
	.globl	_ZN34Multiply_string20_int_reverse_Test8TestBodyEv
	.def	_ZN34Multiply_string20_int_reverse_Test8TestBodyEv;	.scl	2;	.type	32;	.endef
	.seh_proc	_ZN34Multiply_string20_int_reverse_Test8TestBodyEv
_ZN34Multiply_string20_int_reverse_Test8TestBodyEv:
	pushq	%rbp
	.seh_pushreg	%rbp
	pushq	%rdi
	.seh_pushreg	%rdi
	pushq	%rsi
	.seh_pushreg	%rsi
	pushq	%rbx
	.seh_pushreg	%rbx
	subq	$168, %rsp
	.seh_stackalloc	168
	.seh_endprologue
	leaq	.LC163(%rip), %rdx
	leaq	104(%rsp), %r8
	movq	%r8, 56(%rsp)
	leaq	128(%rsp), %rsi
	movq	%r8, %rcx
	call	_ZN8string20C1EPKc
	movq	56(%rsp), %r8
	movl	$4, %edx
	movq	%rsi, %rcx
	leaq	88(%rsp), %rbx
	call	_ZmliRK8string20
	leaq	.LC164(%rip), %rdx
	movq	%rsi, %rcx
	call	_Z5equalRK8string20PKc
	movq	$0, 96(%rsp)
	testb	%al, %al
	movb	%al, 88(%rsp)
	jne	.L157
	leaq	80(%rsp), %rdi
	leaq	72(%rsp), %rbp
	movq	%rdi, %rcx
	call	_ZN7testing7MessageC1Ev
	movq	80(%rsp), %rax
	leaq	.LC165(%rip), %rdx
	leaq	16(%rax), %rcx
	call	_ZStlsISt11char_traitsIcEERSt13basic_ostreamIcT_ES5_PKc
	leaq	.LC96(%rip), %rax
	movq	%rbx, %rdx
	movq	%rsi, %rcx
	movq	%rax, 32(%rsp)
	leaq	.LC94(%rip), %r9
	leaq	.LC166(%rip), %r8
	call	_ZN7testing8internal30GetBoolAssertionFailureMessageB5cxx11ERKNS_15AssertionResultEPKcS5_S5_
	movq	128(%rsp), %rax
	movl	$136, %r9d
	movq	%rbp, %rcx
	leaq	.LC77(%rip), %r8
	movl	$2, %edx
	movq	%rax, 32(%rsp)
	call	_ZN7testing8internal12AssertHelperC1ENS_14TestPartResult4TypeEPKciS5_
	movq	%rdi, %rdx
	movq	%rbp, %rcx
	call	_ZNK7testing8internal12AssertHelperaSERKNS_7MessageE
	movq	%rbp, %rcx
	call	_ZN7testing8internal12AssertHelperD1Ev
	movq	%rsi, %rcx
	call	_ZNSt7__cxx1112basic_stringIcSt11char_traitsIcESaIcEE10_M_disposeEv
	movq	%rdi, %rcx
	call	_ZN7testing8internal10scoped_ptrINSt7__cxx1118basic_stringstreamIcSt11char_traitsIcESaIcEEEED4Ev.isra.15.constprop.50
.L157:
	leaq	8(%rbx), %rcx
	call	_ZN7testing8internal10scoped_ptrINSt7__cxx1112basic_stringIcSt11char_traitsIcESaIcEEEED4Ev.isra.26
	nop
	addq	$168, %rsp
	popq	%rbx
	popq	%rsi
	popq	%rdi
	popq	%rbp
	ret
	.seh_endproc
	.section	.text.unlikely._ZN34Multiply_string20_int_reverse_Test8TestBodyEv,"x"
.LCOLDE167:
	.section	.text$_ZN34Multiply_string20_int_reverse_Test8TestBodyEv,"x"
.LHOTE167:
	.section .rdata,"dr"
.LC168:
	.ascii "pisjes\0"
.LC169:
	.ascii "get and change char\0"
.LC170:
	.ascii "equal(long_string, \"pisjes\")\0"
	.section	.text.unlikely._ZN28Get_String20valueChange_Test8TestBodyEv,"x"
	.align 2
.LCOLDB171:
	.section	.text$_ZN28Get_String20valueChange_Test8TestBodyEv,"x"
.LHOTB171:
	.align 2
	.globl	_ZN28Get_String20valueChange_Test8TestBodyEv
	.def	_ZN28Get_String20valueChange_Test8TestBodyEv;	.scl	2;	.type	32;	.endef
	.seh_proc	_ZN28Get_String20valueChange_Test8TestBodyEv
_ZN28Get_String20valueChange_Test8TestBodyEv:
	pushq	%rbp
	.seh_pushreg	%rbp
	pushq	%rdi
	.seh_pushreg	%rdi
	pushq	%rsi
	.seh_pushreg	%rsi
	pushq	%rbx
	.seh_pushreg	%rbx
	subq	$152, %rsp
	.seh_stackalloc	152
	.seh_endprologue
	leaq	.LC81(%rip), %rdx
	leaq	88(%rsp), %rbx
	movq	%rbx, %rcx
	call	_ZN8string20C1EPKc
	xorl	%edx, %edx
	movq	%rbx, %rcx
	call	_ZN8string20ixEi
	leaq	.LC168(%rip), %rdx
	movq	%rbx, %rcx
	movb	$112, (%rax)
	leaq	72(%rsp), %rbx
	call	_Z5equalRK8string20PKc
	movq	$0, 80(%rsp)
	testb	%al, %al
	movb	%al, 72(%rsp)
	jne	.L160
	leaq	64(%rsp), %rsi
	leaq	112(%rsp), %rbp
	movq	%rsi, %rcx
	call	_ZN7testing7MessageC1Ev
	movq	64(%rsp), %rax
	leaq	56(%rsp), %rdi
	leaq	.LC169(%rip), %rdx
	leaq	16(%rax), %rcx
	call	_ZStlsISt11char_traitsIcEERSt13basic_ostreamIcT_ES5_PKc
	leaq	.LC96(%rip), %rax
	movq	%rbx, %rdx
	movq	%rbp, %rcx
	movq	%rax, 32(%rsp)
	leaq	.LC94(%rip), %r9
	leaq	.LC170(%rip), %r8
	call	_ZN7testing8internal30GetBoolAssertionFailureMessageB5cxx11ERKNS_15AssertionResultEPKcS5_S5_
	movq	112(%rsp), %rax
	movl	$152, %r9d
	movq	%rdi, %rcx
	leaq	.LC77(%rip), %r8
	movl	$2, %edx
	movq	%rax, 32(%rsp)
	call	_ZN7testing8internal12AssertHelperC1ENS_14TestPartResult4TypeEPKciS5_
	movq	%rsi, %rdx
	movq	%rdi, %rcx
	call	_ZNK7testing8internal12AssertHelperaSERKNS_7MessageE
	movq	%rdi, %rcx
	call	_ZN7testing8internal12AssertHelperD1Ev
	movq	%rbp, %rcx
	call	_ZNSt7__cxx1112basic_stringIcSt11char_traitsIcESaIcEE10_M_disposeEv
	movq	%rsi, %rcx
	call	_ZN7testing8internal10scoped_ptrINSt7__cxx1118basic_stringstreamIcSt11char_traitsIcESaIcEEEED4Ev.isra.15.constprop.50
.L160:
	leaq	8(%rbx), %rcx
	call	_ZN7testing8internal10scoped_ptrINSt7__cxx1112basic_stringIcSt11char_traitsIcESaIcEEEED4Ev.isra.26
	nop
	addq	$152, %rsp
	popq	%rbx
	popq	%rsi
	popq	%rdi
	popq	%rbp
	ret
	.seh_endproc
	.section	.text.unlikely._ZN28Get_String20valueChange_Test8TestBodyEv,"x"
.LCOLDE171:
	.section	.text$_ZN28Get_String20valueChange_Test8TestBodyEv,"x"
.LHOTE171:
	.section .rdata,"dr"
.LC172:
	.ascii "1\0"
.LC173:
	.ascii "c.length()\0"
.LC174:
	.ascii "'x'\0"
.LC175:
	.ascii "c[ 0 ]\0"
.LC176:
	.ascii "[0]\0"
	.section	.text.unlikely._ZN22Constructors_Char_Test8TestBodyEv,"x"
	.align 2
.LCOLDB177:
	.section	.text$_ZN22Constructors_Char_Test8TestBodyEv,"x"
.LHOTB177:
	.align 2
	.globl	_ZN22Constructors_Char_Test8TestBodyEv
	.def	_ZN22Constructors_Char_Test8TestBodyEv;	.scl	2;	.type	32;	.endef
	.seh_proc	_ZN22Constructors_Char_Test8TestBodyEv
_ZN22Constructors_Char_Test8TestBodyEv:
	pushq	%r12
	.seh_pushreg	%r12
	pushq	%rbp
	.seh_pushreg	%rbp
	pushq	%rdi
	.seh_pushreg	%rdi
	pushq	%rsi
	.seh_pushreg	%rsi
	pushq	%rbx
	.seh_pushreg	%rbx
	subq	$112, %rsp
	.seh_stackalloc	112
	.seh_endprologue
	movl	$120, %edx
	leaq	88(%rsp), %r12
	leaq	72(%rsp), %rdi
	movq	%r12, %rcx
	call	_ZN8string20C1Ec
	leaq	56(%rsp), %rsi
	movq	%r12, %rcx
	movl	$1, 64(%rsp)
	call	_ZNK8string206lengthEv
	leaq	64(%rsp), %rbx
	movq	%rsi, %r9
	movq	%rdi, %rcx
	movq	%rbx, 32(%rsp)
	leaq	.LC172(%rip), %r8
	leaq	.LC173(%rip), %rdx
	movl	%eax, 56(%rsp)
	call	_ZN7testing8internal11CmpHelperEQIiiEENS_15AssertionResultEPKcS4_RKT_RKT0_
	cmpb	$0, 72(%rsp)
	leaq	8(%rdi), %rbp
	jne	.L163
	movq	%rbx, %rcx
	call	_ZN7testing7MessageC1Ev
	movq	64(%rsp), %rax
	leaq	.LC76(%rip), %rdx
	leaq	16(%rax), %rcx
	call	_ZStlsISt11char_traitsIcEERSt13basic_ostreamIcT_ES5_PKc
	movq	%rdi, %rcx
	call	_ZNK7testing15AssertionResult7messageEv
	movl	$26, %r9d
	movq	%rax, 32(%rsp)
	jmp	.L167
.L163:
	movq	%rbp, %rcx
	call	_ZN7testing8internal10scoped_ptrINSt7__cxx1112basic_stringIcSt11char_traitsIcESaIcEEEED4Ev.isra.26
	xorl	%edx, %edx
	movq	%r12, %rcx
	movb	$120, 64(%rsp)
	call	_ZN8string20ixEi
	movq	%rbx, 32(%rsp)
	leaq	.LC174(%rip), %r8
	movq	%rdi, %rcx
	leaq	.LC175(%rip), %rdx
	movq	%rax, %r9
	call	_ZN7testing8internal11CmpHelperEQIccEENS_15AssertionResultEPKcS4_RKT_RKT0_
	cmpb	$0, 72(%rsp)
	jne	.L165
	movq	%rbx, %rcx
	call	_ZN7testing7MessageC1Ev
	movq	64(%rsp), %rax
	leaq	.LC176(%rip), %rdx
	leaq	16(%rax), %rcx
	call	_ZStlsISt11char_traitsIcEERSt13basic_ostreamIcT_ES5_PKc
	movq	%rdi, %rcx
	call	_ZNK7testing15AssertionResult7messageEv
	movl	$27, %r9d
	movq	%rax, 32(%rsp)
.L167:
	leaq	.LC77(%rip), %r8
	movl	$2, %edx
	movq	%rsi, %rcx
	call	_ZN7testing8internal12AssertHelperC1ENS_14TestPartResult4TypeEPKciS5_
	movq	%rbx, %rdx
	movq	%rsi, %rcx
	call	_ZNK7testing8internal12AssertHelperaSERKNS_7MessageE
	movq	%rsi, %rcx
	call	_ZN7testing8internal12AssertHelperD1Ev
	movq	%rbx, %rcx
	call	_ZN7testing8internal10scoped_ptrINSt7__cxx1118basic_stringstreamIcSt11char_traitsIcESaIcEEEED4Ev.isra.15.constprop.50
.L165:
	movq	%rbp, %rcx
	call	_ZN7testing8internal10scoped_ptrINSt7__cxx1112basic_stringIcSt11char_traitsIcESaIcEEEED4Ev.isra.26
	nop
	addq	$112, %rsp
	popq	%rbx
	popq	%rsi
	popq	%rdi
	popq	%rbp
	popq	%r12
	ret
	.seh_endproc
	.section	.text.unlikely._ZN22Constructors_Char_Test8TestBodyEv,"x"
.LCOLDE177:
	.section	.text$_ZN22Constructors_Char_Test8TestBodyEv,"x"
.LHOTE177:
	.section .rdata,"dr"
.LC178:
	.ascii "'b'\0"
	.section	.text.unlikely._ZN24Constructors_string_Test8TestBodyEv,"x"
	.align 2
.LCOLDB179:
	.section	.text$_ZN24Constructors_string_Test8TestBodyEv,"x"
.LHOTB179:
	.align 2
	.globl	_ZN24Constructors_string_Test8TestBodyEv
	.def	_ZN24Constructors_string_Test8TestBodyEv;	.scl	2;	.type	32;	.endef
	.seh_proc	_ZN24Constructors_string_Test8TestBodyEv
_ZN24Constructors_string_Test8TestBodyEv:
	pushq	%r12
	.seh_pushreg	%r12
	pushq	%rbp
	.seh_pushreg	%rbp
	pushq	%rdi
	.seh_pushreg	%rdi
	pushq	%rsi
	.seh_pushreg	%rsi
	pushq	%rbx
	.seh_pushreg	%rbx
	subq	$112, %rsp
	.seh_stackalloc	112
	.seh_endprologue
	movl	$1, %ecx
	call	_Znwy
	leaq	88(%rsp), %r12
	movb	$98, (%rax)
	leaq	72(%rsp), %rdi
	movq	%rax, %rdx
	movq	%r12, %rcx
	call	_ZN8string20C1EPKc
	leaq	56(%rsp), %rsi
	movq	%r12, %rcx
	movl	$1, 64(%rsp)
	call	_ZNK8string206lengthEv
	leaq	64(%rsp), %rbx
	movq	%rsi, %r9
	movq	%rdi, %rcx
	movq	%rbx, 32(%rsp)
	leaq	.LC172(%rip), %r8
	leaq	.LC173(%rip), %rdx
	movl	%eax, 56(%rsp)
	call	_ZN7testing8internal11CmpHelperEQIiiEENS_15AssertionResultEPKcS4_RKT_RKT0_
	cmpb	$0, 72(%rsp)
	leaq	8(%rdi), %rbp
	jne	.L169
	movq	%rbx, %rcx
	call	_ZN7testing7MessageC1Ev
	movq	64(%rsp), %rax
	leaq	.LC76(%rip), %rdx
	leaq	16(%rax), %rcx
	call	_ZStlsISt11char_traitsIcEERSt13basic_ostreamIcT_ES5_PKc
	movq	%rdi, %rcx
	call	_ZNK7testing15AssertionResult7messageEv
	movl	$33, %r9d
	movq	%rax, 32(%rsp)
	jmp	.L173
.L169:
	movq	%rbp, %rcx
	call	_ZN7testing8internal10scoped_ptrINSt7__cxx1112basic_stringIcSt11char_traitsIcESaIcEEEED4Ev.isra.26
	xorl	%edx, %edx
	movq	%r12, %rcx
	movb	$98, 64(%rsp)
	call	_ZN8string20ixEi
	movq	%rbx, 32(%rsp)
	leaq	.LC178(%rip), %r8
	movq	%rdi, %rcx
	leaq	.LC175(%rip), %rdx
	movq	%rax, %r9
	call	_ZN7testing8internal11CmpHelperEQIccEENS_15AssertionResultEPKcS4_RKT_RKT0_
	cmpb	$0, 72(%rsp)
	jne	.L171
	movq	%rbx, %rcx
	call	_ZN7testing7MessageC1Ev
	movq	64(%rsp), %rax
	leaq	.LC176(%rip), %rdx
	leaq	16(%rax), %rcx
	call	_ZStlsISt11char_traitsIcEERSt13basic_ostreamIcT_ES5_PKc
	movq	%rdi, %rcx
	call	_ZNK7testing15AssertionResult7messageEv
	movl	$34, %r9d
	movq	%rax, 32(%rsp)
.L173:
	leaq	.LC77(%rip), %r8
	movl	$2, %edx
	movq	%rsi, %rcx
	call	_ZN7testing8internal12AssertHelperC1ENS_14TestPartResult4TypeEPKciS5_
	movq	%rbx, %rdx
	movq	%rsi, %rcx
	call	_ZNK7testing8internal12AssertHelperaSERKNS_7MessageE
	movq	%rsi, %rcx
	call	_ZN7testing8internal12AssertHelperD1Ev
	movq	%rbx, %rcx
	call	_ZN7testing8internal10scoped_ptrINSt7__cxx1118basic_stringstreamIcSt11char_traitsIcESaIcEEEED4Ev.isra.15.constprop.50
.L171:
	movq	%rbp, %rcx
	call	_ZN7testing8internal10scoped_ptrINSt7__cxx1112basic_stringIcSt11char_traitsIcESaIcEEEED4Ev.isra.26
	nop
	addq	$112, %rsp
	popq	%rbx
	popq	%rsi
	popq	%rdi
	popq	%rbp
	popq	%r12
	ret
	.seh_endproc
	.section	.text.unlikely._ZN24Constructors_string_Test8TestBodyEv,"x"
.LCOLDE179:
	.section	.text$_ZN24Constructors_string_Test8TestBodyEv,"x"
.LHOTE179:
	.section .rdata,"dr"
.LC180:
	.ascii "'z'\0"
	.section	.text.unlikely._ZN26Constructors_String20_Test8TestBodyEv,"x"
	.align 2
.LCOLDB181:
	.section	.text$_ZN26Constructors_String20_Test8TestBodyEv,"x"
.LHOTB181:
	.align 2
	.globl	_ZN26Constructors_String20_Test8TestBodyEv
	.def	_ZN26Constructors_String20_Test8TestBodyEv;	.scl	2;	.type	32;	.endef
	.seh_proc	_ZN26Constructors_String20_Test8TestBodyEv
_ZN26Constructors_String20_Test8TestBodyEv:
	pushq	%r12
	.seh_pushreg	%r12
	pushq	%rbp
	.seh_pushreg	%rbp
	pushq	%rdi
	.seh_pushreg	%rdi
	pushq	%rsi
	.seh_pushreg	%rsi
	pushq	%rbx
	.seh_pushreg	%rbx
	addq	$-128, %rsp
	.seh_stackalloc	128
	.seh_endprologue
	movl	$122, %edx
	leaq	80(%rsp), %rbx
	leaq	104(%rsp), %r12
	movq	%rbx, %rcx
	call	_ZN8string20C1Ec
	leaq	64(%rsp), %rdi
	movq	%rbx, %rdx
	movq	%r12, %rcx
	call	_ZN8string20C1ERKS_
	leaq	48(%rsp), %rsi
	movq	%r12, %rcx
	movl	$1, 56(%rsp)
	call	_ZNK8string206lengthEv
	leaq	56(%rsp), %rbx
	movq	%rsi, %r9
	movq	%rdi, %rcx
	movq	%rbx, 32(%rsp)
	leaq	.LC172(%rip), %r8
	leaq	.LC173(%rip), %rdx
	movl	%eax, 48(%rsp)
	call	_ZN7testing8internal11CmpHelperEQIiiEENS_15AssertionResultEPKcS4_RKT_RKT0_
	cmpb	$0, 64(%rsp)
	leaq	8(%rdi), %rbp
	jne	.L175
	movq	%rbx, %rcx
	call	_ZN7testing7MessageC1Ev
	movq	56(%rsp), %rax
	leaq	.LC76(%rip), %rdx
	leaq	16(%rax), %rcx
	call	_ZStlsISt11char_traitsIcEERSt13basic_ostreamIcT_ES5_PKc
	movq	%rdi, %rcx
	call	_ZNK7testing15AssertionResult7messageEv
	movl	$40, %r9d
	movq	%rax, 32(%rsp)
	jmp	.L179
.L175:
	movq	%rbp, %rcx
	call	_ZN7testing8internal10scoped_ptrINSt7__cxx1112basic_stringIcSt11char_traitsIcESaIcEEEED4Ev.isra.26
	xorl	%edx, %edx
	movq	%r12, %rcx
	movb	$122, 56(%rsp)
	call	_ZN8string20ixEi
	movq	%rbx, 32(%rsp)
	leaq	.LC180(%rip), %r8
	movq	%rdi, %rcx
	leaq	.LC175(%rip), %rdx
	movq	%rax, %r9
	call	_ZN7testing8internal11CmpHelperEQIccEENS_15AssertionResultEPKcS4_RKT_RKT0_
	cmpb	$0, 64(%rsp)
	jne	.L177
	movq	%rbx, %rcx
	call	_ZN7testing7MessageC1Ev
	movq	56(%rsp), %rax
	leaq	.LC176(%rip), %rdx
	leaq	16(%rax), %rcx
	call	_ZStlsISt11char_traitsIcEERSt13basic_ostreamIcT_ES5_PKc
	movq	%rdi, %rcx
	call	_ZNK7testing15AssertionResult7messageEv
	movl	$41, %r9d
	movq	%rax, 32(%rsp)
.L179:
	leaq	.LC77(%rip), %r8
	movl	$2, %edx
	movq	%rsi, %rcx
	call	_ZN7testing8internal12AssertHelperC1ENS_14TestPartResult4TypeEPKciS5_
	movq	%rbx, %rdx
	movq	%rsi, %rcx
	call	_ZNK7testing8internal12AssertHelperaSERKNS_7MessageE
	movq	%rsi, %rcx
	call	_ZN7testing8internal12AssertHelperD1Ev
	movq	%rbx, %rcx
	call	_ZN7testing8internal10scoped_ptrINSt7__cxx1118basic_stringstreamIcSt11char_traitsIcESaIcEEEED4Ev.isra.15.constprop.50
.L177:
	movq	%rbp, %rcx
	call	_ZN7testing8internal10scoped_ptrINSt7__cxx1112basic_stringIcSt11char_traitsIcESaIcEEEED4Ev.isra.26
	nop
	subq	$-128, %rsp
	popq	%rbx
	popq	%rsi
	popq	%rdi
	popq	%rbp
	popq	%r12
	ret
	.seh_endproc
	.section	.text.unlikely._ZN26Constructors_String20_Test8TestBodyEv,"x"
.LCOLDE181:
	.section	.text$_ZN26Constructors_String20_Test8TestBodyEv,"x"
.LHOTE181:
	.section .rdata,"dr"
.LC182:
	.ascii "4\0"
.LC183:
	.ascii "long_string.length()\0"
.LC184:
	.ascii "'a'\0"
.LC185:
	.ascii "long_string[ 0 ]\0"
.LC186:
	.ascii "'s'\0"
.LC187:
	.ascii "long_string[ 1 ]\0"
.LC188:
	.ascii "[1]\0"
.LC189:
	.ascii "'d'\0"
.LC190:
	.ascii "long_string[ 2 ]\0"
.LC191:
	.ascii "[2]\0"
.LC192:
	.ascii "'f'\0"
	.section	.text.unlikely._ZN23Get_String20Length_Test8TestBodyEv,"x"
	.align 2
.LCOLDB193:
	.section	.text$_ZN23Get_String20Length_Test8TestBodyEv,"x"
.LHOTB193:
	.align 2
	.globl	_ZN23Get_String20Length_Test8TestBodyEv
	.def	_ZN23Get_String20Length_Test8TestBodyEv;	.scl	2;	.type	32;	.endef
	.seh_proc	_ZN23Get_String20Length_Test8TestBodyEv
_ZN23Get_String20Length_Test8TestBodyEv:
	pushq	%r12
	.seh_pushreg	%r12
	pushq	%rbp
	.seh_pushreg	%rbp
	pushq	%rdi
	.seh_pushreg	%rdi
	pushq	%rsi
	.seh_pushreg	%rsi
	pushq	%rbx
	.seh_pushreg	%rbx
	subq	$112, %rsp
	.seh_stackalloc	112
	.seh_endprologue
	leaq	.LC136(%rip), %rdx
	leaq	88(%rsp), %r12
	leaq	72(%rsp), %rdi
	movq	%r12, %rcx
	call	_ZN8string20C1EPKc
	leaq	56(%rsp), %rsi
	movq	%r12, %rcx
	movl	$4, 64(%rsp)
	call	_ZNK8string206lengthEv
	leaq	64(%rsp), %rbx
	movq	%rsi, %r9
	movq	%rdi, %rcx
	movq	%rbx, 32(%rsp)
	leaq	.LC182(%rip), %r8
	leaq	.LC183(%rip), %rdx
	movl	%eax, 56(%rsp)
	call	_ZN7testing8internal11CmpHelperEQIiiEENS_15AssertionResultEPKcS4_RKT_RKT0_
	cmpb	$0, 72(%rsp)
	leaq	8(%rdi), %rbp
	jne	.L181
	movq	%rbx, %rcx
	call	_ZN7testing7MessageC1Ev
	movq	64(%rsp), %rax
	leaq	.LC76(%rip), %rdx
	leaq	16(%rax), %rcx
	call	_ZStlsISt11char_traitsIcEERSt13basic_ostreamIcT_ES5_PKc
	movq	%rdi, %rcx
	call	_ZNK7testing15AssertionResult7messageEv
	movl	$142, %r9d
	movq	%rax, 32(%rsp)
	jmp	.L188
.L181:
	movq	%rbp, %rcx
	call	_ZN7testing8internal10scoped_ptrINSt7__cxx1112basic_stringIcSt11char_traitsIcESaIcEEEED4Ev.isra.26
	xorl	%edx, %edx
	movq	%r12, %rcx
	movb	$97, 64(%rsp)
	call	_ZN8string20ixEi
	movq	%rbx, 32(%rsp)
	leaq	.LC184(%rip), %r8
	movq	%rdi, %rcx
	leaq	.LC185(%rip), %rdx
	movq	%rax, %r9
	call	_ZN7testing8internal11CmpHelperEQIccEENS_15AssertionResultEPKcS4_RKT_RKT0_
	cmpb	$0, 72(%rsp)
	jne	.L183
	movq	%rbx, %rcx
	call	_ZN7testing7MessageC1Ev
	movq	64(%rsp), %rax
	leaq	.LC176(%rip), %rdx
	leaq	16(%rax), %rcx
	call	_ZStlsISt11char_traitsIcEERSt13basic_ostreamIcT_ES5_PKc
	movq	%rdi, %rcx
	call	_ZNK7testing15AssertionResult7messageEv
	movl	$143, %r9d
	movq	%rax, 32(%rsp)
	jmp	.L188
.L183:
	movq	%rbp, %rcx
	call	_ZN7testing8internal10scoped_ptrINSt7__cxx1112basic_stringIcSt11char_traitsIcESaIcEEEED4Ev.isra.26
	movl	$1, %edx
	movq	%r12, %rcx
	movb	$115, 64(%rsp)
	call	_ZN8string20ixEi
	movq	%rbx, 32(%rsp)
	leaq	.LC186(%rip), %r8
	movq	%rdi, %rcx
	leaq	.LC187(%rip), %rdx
	movq	%rax, %r9
	call	_ZN7testing8internal11CmpHelperEQIccEENS_15AssertionResultEPKcS4_RKT_RKT0_
	cmpb	$0, 72(%rsp)
	jne	.L184
	movq	%rbx, %rcx
	call	_ZN7testing7MessageC1Ev
	movq	64(%rsp), %rax
	leaq	.LC188(%rip), %rdx
	leaq	16(%rax), %rcx
	call	_ZStlsISt11char_traitsIcEERSt13basic_ostreamIcT_ES5_PKc
	movq	%rdi, %rcx
	call	_ZNK7testing15AssertionResult7messageEv
	movl	$144, %r9d
	movq	%rax, 32(%rsp)
	jmp	.L188
.L184:
	movq	%rbp, %rcx
	call	_ZN7testing8internal10scoped_ptrINSt7__cxx1112basic_stringIcSt11char_traitsIcESaIcEEEED4Ev.isra.26
	movl	$2, %edx
	movq	%r12, %rcx
	movb	$100, 64(%rsp)
	call	_ZN8string20ixEi
	movq	%rbx, 32(%rsp)
	leaq	.LC189(%rip), %r8
	movq	%rdi, %rcx
	leaq	.LC190(%rip), %rdx
	movq	%rax, %r9
	call	_ZN7testing8internal11CmpHelperEQIccEENS_15AssertionResultEPKcS4_RKT_RKT0_
	cmpb	$0, 72(%rsp)
	jne	.L185
	movq	%rbx, %rcx
	call	_ZN7testing7MessageC1Ev
	movq	64(%rsp), %rax
	leaq	.LC191(%rip), %rdx
	leaq	16(%rax), %rcx
	call	_ZStlsISt11char_traitsIcEERSt13basic_ostreamIcT_ES5_PKc
	movq	%rdi, %rcx
	call	_ZNK7testing15AssertionResult7messageEv
	movl	$145, %r9d
	movq	%rax, 32(%rsp)
	jmp	.L188
.L185:
	movq	%rbp, %rcx
	call	_ZN7testing8internal10scoped_ptrINSt7__cxx1112basic_stringIcSt11char_traitsIcESaIcEEEED4Ev.isra.26
	movl	$3, %edx
	movq	%r12, %rcx
	movb	$102, 64(%rsp)
	call	_ZN8string20ixEi
	movq	%rbx, 32(%rsp)
	leaq	.LC192(%rip), %r8
	movq	%rdi, %rcx
	leaq	.LC83(%rip), %rdx
	movq	%rax, %r9
	call	_ZN7testing8internal11CmpHelperEQIccEENS_15AssertionResultEPKcS4_RKT_RKT0_
	cmpb	$0, 72(%rsp)
	jne	.L186
	movq	%rbx, %rcx
	call	_ZN7testing7MessageC1Ev
	movq	64(%rsp), %rax
	leaq	.LC84(%rip), %rdx
	leaq	16(%rax), %rcx
	call	_ZStlsISt11char_traitsIcEERSt13basic_ostreamIcT_ES5_PKc
	movq	%rdi, %rcx
	call	_ZNK7testing15AssertionResult7messageEv
	movl	$146, %r9d
	movq	%rax, 32(%rsp)
.L188:
	leaq	.LC77(%rip), %r8
	movl	$2, %edx
	movq	%rsi, %rcx
	call	_ZN7testing8internal12AssertHelperC1ENS_14TestPartResult4TypeEPKciS5_
	movq	%rbx, %rdx
	movq	%rsi, %rcx
	call	_ZNK7testing8internal12AssertHelperaSERKNS_7MessageE
	movq	%rsi, %rcx
	call	_ZN7testing8internal12AssertHelperD1Ev
	movq	%rbx, %rcx
	call	_ZN7testing8internal10scoped_ptrINSt7__cxx1118basic_stringstreamIcSt11char_traitsIcESaIcEEEED4Ev.isra.15.constprop.50
.L186:
	movq	%rbp, %rcx
	call	_ZN7testing8internal10scoped_ptrINSt7__cxx1112basic_stringIcSt11char_traitsIcESaIcEEEED4Ev.isra.26
	nop
	addq	$112, %rsp
	popq	%rbx
	popq	%rsi
	popq	%rdi
	popq	%rbp
	popq	%r12
	ret
	.seh_endproc
	.section	.text.unlikely._ZN23Get_String20Length_Test8TestBodyEv,"x"
.LCOLDE193:
	.section	.text$_ZN23Get_String20Length_Test8TestBodyEv,"x"
.LHOTE193:
	.section	.text$_ZN27Get_String20valueConst_TestD4Ev,"x"
	.align 2
.LCOLDB194:
.LHOTB194:
	.align 2
	.def	_ZN27Get_String20valueConst_TestD4Ev;	.scl	3;	.type	32;	.endef
	.seh_proc	_ZN27Get_String20valueConst_TestD4Ev
_ZN27Get_String20valueConst_TestD4Ev:
	pushq	%rsi
	.seh_pushreg	%rsi
	pushq	%rbx
	.seh_pushreg	%rbx
	subq	$40, %rsp
	.seh_stackalloc	40
	.seh_endprologue
	leaq	16+_ZTV27Get_String20valueConst_Test(%rip), %rax
	movl	%edx, %esi
	movq	%rax, (%rcx)
	movq	%rcx, %rbx
	call	_ZN7testing4TestD2Ev
	andb	$1, %sil
	je	.L189
	movq	%rbx, %rcx
	addq	$40, %rsp
	popq	%rbx
	popq	%rsi
	jmp	_ZdlPv
.L189:
	addq	$40, %rsp
	popq	%rbx
	popq	%rsi
	ret
	.seh_endproc
.LCOLDE194:
.LHOTE194:
	.section	.text$_ZN27Get_String20valueConst_TestD1Ev,"x"
	.linkonce discard
	.align 2
.LCOLDB195:
.LHOTB195:
	.align 2
	.globl	_ZN27Get_String20valueConst_TestD1Ev
	.def	_ZN27Get_String20valueConst_TestD1Ev;	.scl	2;	.type	32;	.endef
	.seh_proc	_ZN27Get_String20valueConst_TestD1Ev
_ZN27Get_String20valueConst_TestD1Ev:
	.seh_endprologue
	movl	$2, %edx
	jmp	_ZN27Get_String20valueConst_TestD4Ev
	.seh_endproc
.LCOLDE195:
.LHOTE195:
	.section	.text$_ZN27Get_String20valueConst_TestD0Ev,"x"
	.linkonce discard
	.align 2
.LCOLDB196:
.LHOTB196:
	.align 2
	.globl	_ZN27Get_String20valueConst_TestD0Ev
	.def	_ZN27Get_String20valueConst_TestD0Ev;	.scl	2;	.type	32;	.endef
	.seh_proc	_ZN27Get_String20valueConst_TestD0Ev
_ZN27Get_String20valueConst_TestD0Ev:
	pushq	%rbx
	.seh_pushreg	%rbx
	subq	$32, %rsp
	.seh_stackalloc	32
	.seh_endprologue
	movq	%rcx, %rbx
	call	_ZN27Get_String20valueConst_TestD1Ev
	movq	%rbx, %rcx
	addq	$32, %rsp
	popq	%rbx
	jmp	_ZdlPv
	.seh_endproc
.LCOLDE196:
.LHOTE196:
	.section	.text$_ZN28Get_String20valueChange_TestD4Ev,"x"
	.align 2
.LCOLDB197:
.LHOTB197:
	.align 2
	.def	_ZN28Get_String20valueChange_TestD4Ev;	.scl	3;	.type	32;	.endef
	.seh_proc	_ZN28Get_String20valueChange_TestD4Ev
_ZN28Get_String20valueChange_TestD4Ev:
	pushq	%rsi
	.seh_pushreg	%rsi
	pushq	%rbx
	.seh_pushreg	%rbx
	subq	$40, %rsp
	.seh_stackalloc	40
	.seh_endprologue
	leaq	16+_ZTV28Get_String20valueChange_Test(%rip), %rax
	movl	%edx, %esi
	movq	%rax, (%rcx)
	movq	%rcx, %rbx
	call	_ZN7testing4TestD2Ev
	andb	$1, %sil
	je	.L193
	movq	%rbx, %rcx
	addq	$40, %rsp
	popq	%rbx
	popq	%rsi
	jmp	_ZdlPv
.L193:
	addq	$40, %rsp
	popq	%rbx
	popq	%rsi
	ret
	.seh_endproc
.LCOLDE197:
.LHOTE197:
	.section	.text$_ZN28Get_String20valueChange_TestD1Ev,"x"
	.linkonce discard
	.align 2
.LCOLDB198:
.LHOTB198:
	.align 2
	.globl	_ZN28Get_String20valueChange_TestD1Ev
	.def	_ZN28Get_String20valueChange_TestD1Ev;	.scl	2;	.type	32;	.endef
	.seh_proc	_ZN28Get_String20valueChange_TestD1Ev
_ZN28Get_String20valueChange_TestD1Ev:
	.seh_endprologue
	movl	$2, %edx
	jmp	_ZN28Get_String20valueChange_TestD4Ev
	.seh_endproc
.LCOLDE198:
.LHOTE198:
	.section	.text$_ZN28Get_String20valueChange_TestD0Ev,"x"
	.linkonce discard
	.align 2
.LCOLDB199:
.LHOTB199:
	.align 2
	.globl	_ZN28Get_String20valueChange_TestD0Ev
	.def	_ZN28Get_String20valueChange_TestD0Ev;	.scl	2;	.type	32;	.endef
	.seh_proc	_ZN28Get_String20valueChange_TestD0Ev
_ZN28Get_String20valueChange_TestD0Ev:
	pushq	%rbx
	.seh_pushreg	%rbx
	subq	$32, %rsp
	.seh_stackalloc	32
	.seh_endprologue
	movq	%rcx, %rbx
	call	_ZN28Get_String20valueChange_TestD1Ev
	movq	%rbx, %rcx
	addq	$32, %rsp
	popq	%rbx
	jmp	_ZdlPv
	.seh_endproc
.LCOLDE199:
.LHOTE199:
	.section	.text$_ZN23Get_String20Length_TestD4Ev,"x"
	.align 2
.LCOLDB200:
.LHOTB200:
	.align 2
	.def	_ZN23Get_String20Length_TestD4Ev;	.scl	3;	.type	32;	.endef
	.seh_proc	_ZN23Get_String20Length_TestD4Ev
_ZN23Get_String20Length_TestD4Ev:
	pushq	%rsi
	.seh_pushreg	%rsi
	pushq	%rbx
	.seh_pushreg	%rbx
	subq	$40, %rsp
	.seh_stackalloc	40
	.seh_endprologue
	leaq	16+_ZTV23Get_String20Length_Test(%rip), %rax
	movl	%edx, %esi
	movq	%rax, (%rcx)
	movq	%rcx, %rbx
	call	_ZN7testing4TestD2Ev
	andb	$1, %sil
	je	.L197
	movq	%rbx, %rcx
	addq	$40, %rsp
	popq	%rbx
	popq	%rsi
	jmp	_ZdlPv
.L197:
	addq	$40, %rsp
	popq	%rbx
	popq	%rsi
	ret
	.seh_endproc
.LCOLDE200:
.LHOTE200:
	.section	.text$_ZN23Get_String20Length_TestD1Ev,"x"
	.linkonce discard
	.align 2
.LCOLDB201:
.LHOTB201:
	.align 2
	.globl	_ZN23Get_String20Length_TestD1Ev
	.def	_ZN23Get_String20Length_TestD1Ev;	.scl	2;	.type	32;	.endef
	.seh_proc	_ZN23Get_String20Length_TestD1Ev
_ZN23Get_String20Length_TestD1Ev:
	.seh_endprologue
	movl	$2, %edx
	jmp	_ZN23Get_String20Length_TestD4Ev
	.seh_endproc
.LCOLDE201:
.LHOTE201:
	.section	.text$_ZN23Get_String20Length_TestD0Ev,"x"
	.linkonce discard
	.align 2
.LCOLDB202:
.LHOTB202:
	.align 2
	.globl	_ZN23Get_String20Length_TestD0Ev
	.def	_ZN23Get_String20Length_TestD0Ev;	.scl	2;	.type	32;	.endef
	.seh_proc	_ZN23Get_String20Length_TestD0Ev
_ZN23Get_String20Length_TestD0Ev:
	pushq	%rbx
	.seh_pushreg	%rbx
	subq	$32, %rsp
	.seh_stackalloc	32
	.seh_endprologue
	movq	%rcx, %rbx
	call	_ZN23Get_String20Length_TestD1Ev
	movq	%rbx, %rcx
	addq	$32, %rsp
	popq	%rbx
	jmp	_ZdlPv
	.seh_endproc
.LCOLDE202:
.LHOTE202:
	.section	.text$_ZN34Multiply_string20_int_reverse_TestD4Ev,"x"
	.align 2
.LCOLDB203:
.LHOTB203:
	.align 2
	.def	_ZN34Multiply_string20_int_reverse_TestD4Ev;	.scl	3;	.type	32;	.endef
	.seh_proc	_ZN34Multiply_string20_int_reverse_TestD4Ev
_ZN34Multiply_string20_int_reverse_TestD4Ev:
	pushq	%rsi
	.seh_pushreg	%rsi
	pushq	%rbx
	.seh_pushreg	%rbx
	subq	$40, %rsp
	.seh_stackalloc	40
	.seh_endprologue
	leaq	16+_ZTV34Multiply_string20_int_reverse_Test(%rip), %rax
	movl	%edx, %esi
	movq	%rax, (%rcx)
	movq	%rcx, %rbx
	call	_ZN7testing4TestD2Ev
	andb	$1, %sil
	je	.L201
	movq	%rbx, %rcx
	addq	$40, %rsp
	popq	%rbx
	popq	%rsi
	jmp	_ZdlPv
.L201:
	addq	$40, %rsp
	popq	%rbx
	popq	%rsi
	ret
	.seh_endproc
.LCOLDE203:
.LHOTE203:
	.section	.text$_ZN34Multiply_string20_int_reverse_TestD1Ev,"x"
	.linkonce discard
	.align 2
.LCOLDB204:
.LHOTB204:
	.align 2
	.globl	_ZN34Multiply_string20_int_reverse_TestD1Ev
	.def	_ZN34Multiply_string20_int_reverse_TestD1Ev;	.scl	2;	.type	32;	.endef
	.seh_proc	_ZN34Multiply_string20_int_reverse_TestD1Ev
_ZN34Multiply_string20_int_reverse_TestD1Ev:
	.seh_endprologue
	movl	$2, %edx
	jmp	_ZN34Multiply_string20_int_reverse_TestD4Ev
	.seh_endproc
.LCOLDE204:
.LHOTE204:
	.section	.text$_ZN34Multiply_string20_int_reverse_TestD0Ev,"x"
	.linkonce discard
	.align 2
.LCOLDB205:
.LHOTB205:
	.align 2
	.globl	_ZN34Multiply_string20_int_reverse_TestD0Ev
	.def	_ZN34Multiply_string20_int_reverse_TestD0Ev;	.scl	2;	.type	32;	.endef
	.seh_proc	_ZN34Multiply_string20_int_reverse_TestD0Ev
_ZN34Multiply_string20_int_reverse_TestD0Ev:
	pushq	%rbx
	.seh_pushreg	%rbx
	subq	$32, %rsp
	.seh_stackalloc	32
	.seh_endprologue
	movq	%rcx, %rbx
	call	_ZN34Multiply_string20_int_reverse_TestD1Ev
	movq	%rbx, %rcx
	addq	$32, %rsp
	popq	%rbx
	jmp	_ZdlPv
	.seh_endproc
.LCOLDE205:
.LHOTE205:
	.section	.text$_ZN26Multiply_string20_int_TestD4Ev,"x"
	.align 2
.LCOLDB206:
.LHOTB206:
	.align 2
	.def	_ZN26Multiply_string20_int_TestD4Ev;	.scl	3;	.type	32;	.endef
	.seh_proc	_ZN26Multiply_string20_int_TestD4Ev
_ZN26Multiply_string20_int_TestD4Ev:
	pushq	%rsi
	.seh_pushreg	%rsi
	pushq	%rbx
	.seh_pushreg	%rbx
	subq	$40, %rsp
	.seh_stackalloc	40
	.seh_endprologue
	leaq	16+_ZTV26Multiply_string20_int_Test(%rip), %rax
	movl	%edx, %esi
	movq	%rax, (%rcx)
	movq	%rcx, %rbx
	call	_ZN7testing4TestD2Ev
	andb	$1, %sil
	je	.L205
	movq	%rbx, %rcx
	addq	$40, %rsp
	popq	%rbx
	popq	%rsi
	jmp	_ZdlPv
.L205:
	addq	$40, %rsp
	popq	%rbx
	popq	%rsi
	ret
	.seh_endproc
.LCOLDE206:
.LHOTE206:
	.section	.text$_ZN26Multiply_string20_int_TestD1Ev,"x"
	.linkonce discard
	.align 2
.LCOLDB207:
.LHOTB207:
	.align 2
	.globl	_ZN26Multiply_string20_int_TestD1Ev
	.def	_ZN26Multiply_string20_int_TestD1Ev;	.scl	2;	.type	32;	.endef
	.seh_proc	_ZN26Multiply_string20_int_TestD1Ev
_ZN26Multiply_string20_int_TestD1Ev:
	.seh_endprologue
	movl	$2, %edx
	jmp	_ZN26Multiply_string20_int_TestD4Ev
	.seh_endproc
.LCOLDE207:
.LHOTE207:
	.section	.text$_ZN26Multiply_string20_int_TestD0Ev,"x"
	.linkonce discard
	.align 2
.LCOLDB208:
.LHOTB208:
	.align 2
	.globl	_ZN26Multiply_string20_int_TestD0Ev
	.def	_ZN26Multiply_string20_int_TestD0Ev;	.scl	2;	.type	32;	.endef
	.seh_proc	_ZN26Multiply_string20_int_TestD0Ev
_ZN26Multiply_string20_int_TestD0Ev:
	pushq	%rbx
	.seh_pushreg	%rbx
	subq	$32, %rsp
	.seh_stackalloc	32
	.seh_endprologue
	movq	%rcx, %rbx
	call	_ZN26Multiply_string20_int_TestD1Ev
	movq	%rbx, %rcx
	addq	$32, %rsp
	popq	%rbx
	jmp	_ZdlPv
	.seh_endproc
.LCOLDE208:
.LHOTE208:
	.section	.text$_ZN32Add_string_String20_reverse_TestD4Ev,"x"
	.align 2
.LCOLDB209:
.LHOTB209:
	.align 2
	.def	_ZN32Add_string_String20_reverse_TestD4Ev;	.scl	3;	.type	32;	.endef
	.seh_proc	_ZN32Add_string_String20_reverse_TestD4Ev
_ZN32Add_string_String20_reverse_TestD4Ev:
	pushq	%rsi
	.seh_pushreg	%rsi
	pushq	%rbx
	.seh_pushreg	%rbx
	subq	$40, %rsp
	.seh_stackalloc	40
	.seh_endprologue
	leaq	16+_ZTV32Add_string_String20_reverse_Test(%rip), %rax
	movl	%edx, %esi
	movq	%rax, (%rcx)
	movq	%rcx, %rbx
	call	_ZN7testing4TestD2Ev
	andb	$1, %sil
	je	.L209
	movq	%rbx, %rcx
	addq	$40, %rsp
	popq	%rbx
	popq	%rsi
	jmp	_ZdlPv
.L209:
	addq	$40, %rsp
	popq	%rbx
	popq	%rsi
	ret
	.seh_endproc
.LCOLDE209:
.LHOTE209:
	.section	.text$_ZN32Add_string_String20_reverse_TestD1Ev,"x"
	.linkonce discard
	.align 2
.LCOLDB210:
.LHOTB210:
	.align 2
	.globl	_ZN32Add_string_String20_reverse_TestD1Ev
	.def	_ZN32Add_string_String20_reverse_TestD1Ev;	.scl	2;	.type	32;	.endef
	.seh_proc	_ZN32Add_string_String20_reverse_TestD1Ev
_ZN32Add_string_String20_reverse_TestD1Ev:
	.seh_endprologue
	movl	$2, %edx
	jmp	_ZN32Add_string_String20_reverse_TestD4Ev
	.seh_endproc
.LCOLDE210:
.LHOTE210:
	.section	.text$_ZN32Add_string_String20_reverse_TestD0Ev,"x"
	.linkonce discard
	.align 2
.LCOLDB211:
.LHOTB211:
	.align 2
	.globl	_ZN32Add_string_String20_reverse_TestD0Ev
	.def	_ZN32Add_string_String20_reverse_TestD0Ev;	.scl	2;	.type	32;	.endef
	.seh_proc	_ZN32Add_string_String20_reverse_TestD0Ev
_ZN32Add_string_String20_reverse_TestD0Ev:
	pushq	%rbx
	.seh_pushreg	%rbx
	subq	$32, %rsp
	.seh_stackalloc	32
	.seh_endprologue
	movq	%rcx, %rbx
	call	_ZN32Add_string_String20_reverse_TestD1Ev
	movq	%rbx, %rcx
	addq	$32, %rsp
	popq	%rbx
	jmp	_ZdlPv
	.seh_endproc
.LCOLDE211:
.LHOTE211:
	.section	.text$_ZN30Add_Char_String20_reverse_TestD4Ev,"x"
	.align 2
.LCOLDB212:
.LHOTB212:
	.align 2
	.def	_ZN30Add_Char_String20_reverse_TestD4Ev;	.scl	3;	.type	32;	.endef
	.seh_proc	_ZN30Add_Char_String20_reverse_TestD4Ev
_ZN30Add_Char_String20_reverse_TestD4Ev:
	pushq	%rsi
	.seh_pushreg	%rsi
	pushq	%rbx
	.seh_pushreg	%rbx
	subq	$40, %rsp
	.seh_stackalloc	40
	.seh_endprologue
	leaq	16+_ZTV30Add_Char_String20_reverse_Test(%rip), %rax
	movl	%edx, %esi
	movq	%rax, (%rcx)
	movq	%rcx, %rbx
	call	_ZN7testing4TestD2Ev
	andb	$1, %sil
	je	.L213
	movq	%rbx, %rcx
	addq	$40, %rsp
	popq	%rbx
	popq	%rsi
	jmp	_ZdlPv
.L213:
	addq	$40, %rsp
	popq	%rbx
	popq	%rsi
	ret
	.seh_endproc
.LCOLDE212:
.LHOTE212:
	.section	.text$_ZN30Add_Char_String20_reverse_TestD1Ev,"x"
	.linkonce discard
	.align 2
.LCOLDB213:
.LHOTB213:
	.align 2
	.globl	_ZN30Add_Char_String20_reverse_TestD1Ev
	.def	_ZN30Add_Char_String20_reverse_TestD1Ev;	.scl	2;	.type	32;	.endef
	.seh_proc	_ZN30Add_Char_String20_reverse_TestD1Ev
_ZN30Add_Char_String20_reverse_TestD1Ev:
	.seh_endprologue
	movl	$2, %edx
	jmp	_ZN30Add_Char_String20_reverse_TestD4Ev
	.seh_endproc
.LCOLDE213:
.LHOTE213:
	.section	.text$_ZN30Add_Char_String20_reverse_TestD0Ev,"x"
	.linkonce discard
	.align 2
.LCOLDB214:
.LHOTB214:
	.align 2
	.globl	_ZN30Add_Char_String20_reverse_TestD0Ev
	.def	_ZN30Add_Char_String20_reverse_TestD0Ev;	.scl	2;	.type	32;	.endef
	.seh_proc	_ZN30Add_Char_String20_reverse_TestD0Ev
_ZN30Add_Char_String20_reverse_TestD0Ev:
	pushq	%rbx
	.seh_pushreg	%rbx
	subq	$32, %rsp
	.seh_stackalloc	32
	.seh_endprologue
	movq	%rcx, %rbx
	call	_ZN30Add_Char_String20_reverse_TestD1Ev
	movq	%rbx, %rcx
	addq	$32, %rsp
	popq	%rbx
	jmp	_ZdlPv
	.seh_endproc
.LCOLDE214:
.LHOTE214:
	.section	.text$_ZN15Add_string_TestD4Ev,"x"
	.align 2
.LCOLDB215:
.LHOTB215:
	.align 2
	.def	_ZN15Add_string_TestD4Ev;	.scl	3;	.type	32;	.endef
	.seh_proc	_ZN15Add_string_TestD4Ev
_ZN15Add_string_TestD4Ev:
	pushq	%rsi
	.seh_pushreg	%rsi
	pushq	%rbx
	.seh_pushreg	%rbx
	subq	$40, %rsp
	.seh_stackalloc	40
	.seh_endprologue
	leaq	16+_ZTV15Add_string_Test(%rip), %rax
	movl	%edx, %esi
	movq	%rax, (%rcx)
	movq	%rcx, %rbx
	call	_ZN7testing4TestD2Ev
	andb	$1, %sil
	je	.L217
	movq	%rbx, %rcx
	addq	$40, %rsp
	popq	%rbx
	popq	%rsi
	jmp	_ZdlPv
.L217:
	addq	$40, %rsp
	popq	%rbx
	popq	%rsi
	ret
	.seh_endproc
.LCOLDE215:
.LHOTE215:
	.section	.text$_ZN15Add_string_TestD1Ev,"x"
	.linkonce discard
	.align 2
.LCOLDB216:
.LHOTB216:
	.align 2
	.globl	_ZN15Add_string_TestD1Ev
	.def	_ZN15Add_string_TestD1Ev;	.scl	2;	.type	32;	.endef
	.seh_proc	_ZN15Add_string_TestD1Ev
_ZN15Add_string_TestD1Ev:
	.seh_endprologue
	movl	$2, %edx
	jmp	_ZN15Add_string_TestD4Ev
	.seh_endproc
.LCOLDE216:
.LHOTE216:
	.section	.text$_ZN15Add_string_TestD0Ev,"x"
	.linkonce discard
	.align 2
.LCOLDB217:
.LHOTB217:
	.align 2
	.globl	_ZN15Add_string_TestD0Ev
	.def	_ZN15Add_string_TestD0Ev;	.scl	2;	.type	32;	.endef
	.seh_proc	_ZN15Add_string_TestD0Ev
_ZN15Add_string_TestD0Ev:
	pushq	%rbx
	.seh_pushreg	%rbx
	subq	$32, %rsp
	.seh_stackalloc	32
	.seh_endprologue
	movq	%rcx, %rbx
	call	_ZN15Add_string_TestD1Ev
	movq	%rbx, %rcx
	addq	$32, %rsp
	popq	%rbx
	jmp	_ZdlPv
	.seh_endproc
.LCOLDE217:
.LHOTE217:
	.section	.text$_ZN13Add_Char_TestD4Ev,"x"
	.align 2
.LCOLDB218:
.LHOTB218:
	.align 2
	.def	_ZN13Add_Char_TestD4Ev;	.scl	3;	.type	32;	.endef
	.seh_proc	_ZN13Add_Char_TestD4Ev
_ZN13Add_Char_TestD4Ev:
	pushq	%rsi
	.seh_pushreg	%rsi
	pushq	%rbx
	.seh_pushreg	%rbx
	subq	$40, %rsp
	.seh_stackalloc	40
	.seh_endprologue
	leaq	16+_ZTV13Add_Char_Test(%rip), %rax
	movl	%edx, %esi
	movq	%rax, (%rcx)
	movq	%rcx, %rbx
	call	_ZN7testing4TestD2Ev
	andb	$1, %sil
	je	.L221
	movq	%rbx, %rcx
	addq	$40, %rsp
	popq	%rbx
	popq	%rsi
	jmp	_ZdlPv
.L221:
	addq	$40, %rsp
	popq	%rbx
	popq	%rsi
	ret
	.seh_endproc
.LCOLDE218:
.LHOTE218:
	.section	.text$_ZN13Add_Char_TestD1Ev,"x"
	.linkonce discard
	.align 2
.LCOLDB219:
.LHOTB219:
	.align 2
	.globl	_ZN13Add_Char_TestD1Ev
	.def	_ZN13Add_Char_TestD1Ev;	.scl	2;	.type	32;	.endef
	.seh_proc	_ZN13Add_Char_TestD1Ev
_ZN13Add_Char_TestD1Ev:
	.seh_endprologue
	movl	$2, %edx
	jmp	_ZN13Add_Char_TestD4Ev
	.seh_endproc
.LCOLDE219:
.LHOTE219:
	.section	.text$_ZN13Add_Char_TestD0Ev,"x"
	.linkonce discard
	.align 2
.LCOLDB220:
.LHOTB220:
	.align 2
	.globl	_ZN13Add_Char_TestD0Ev
	.def	_ZN13Add_Char_TestD0Ev;	.scl	2;	.type	32;	.endef
	.seh_proc	_ZN13Add_Char_TestD0Ev
_ZN13Add_Char_TestD0Ev:
	pushq	%rbx
	.seh_pushreg	%rbx
	subq	$32, %rsp
	.seh_stackalloc	32
	.seh_endprologue
	movq	%rcx, %rbx
	call	_ZN13Add_Char_TestD1Ev
	movq	%rbx, %rcx
	addq	$32, %rsp
	popq	%rbx
	jmp	_ZdlPv
	.seh_endproc
.LCOLDE220:
.LHOTE220:
	.section	.text$_ZN17Add_string20_TestD4Ev,"x"
	.align 2
.LCOLDB221:
.LHOTB221:
	.align 2
	.def	_ZN17Add_string20_TestD4Ev;	.scl	3;	.type	32;	.endef
	.seh_proc	_ZN17Add_string20_TestD4Ev
_ZN17Add_string20_TestD4Ev:
	pushq	%rsi
	.seh_pushreg	%rsi
	pushq	%rbx
	.seh_pushreg	%rbx
	subq	$40, %rsp
	.seh_stackalloc	40
	.seh_endprologue
	leaq	16+_ZTV17Add_string20_Test(%rip), %rax
	movl	%edx, %esi
	movq	%rax, (%rcx)
	movq	%rcx, %rbx
	call	_ZN7testing4TestD2Ev
	andb	$1, %sil
	je	.L225
	movq	%rbx, %rcx
	addq	$40, %rsp
	popq	%rbx
	popq	%rsi
	jmp	_ZdlPv
.L225:
	addq	$40, %rsp
	popq	%rbx
	popq	%rsi
	ret
	.seh_endproc
.LCOLDE221:
.LHOTE221:
	.section	.text$_ZN17Add_string20_TestD1Ev,"x"
	.linkonce discard
	.align 2
.LCOLDB222:
.LHOTB222:
	.align 2
	.globl	_ZN17Add_string20_TestD1Ev
	.def	_ZN17Add_string20_TestD1Ev;	.scl	2;	.type	32;	.endef
	.seh_proc	_ZN17Add_string20_TestD1Ev
_ZN17Add_string20_TestD1Ev:
	.seh_endprologue
	movl	$2, %edx
	jmp	_ZN17Add_string20_TestD4Ev
	.seh_endproc
.LCOLDE222:
.LHOTE222:
	.section	.text$_ZN17Add_string20_TestD0Ev,"x"
	.linkonce discard
	.align 2
.LCOLDB223:
.LHOTB223:
	.align 2
	.globl	_ZN17Add_string20_TestD0Ev
	.def	_ZN17Add_string20_TestD0Ev;	.scl	2;	.type	32;	.endef
	.seh_proc	_ZN17Add_string20_TestD0Ev
_ZN17Add_string20_TestD0Ev:
	pushq	%rbx
	.seh_pushreg	%rbx
	subq	$32, %rsp
	.seh_stackalloc	32
	.seh_endprologue
	movq	%rcx, %rbx
	call	_ZN17Add_string20_TestD1Ev
	movq	%rbx, %rcx
	addq	$32, %rsp
	popq	%rbx
	jmp	_ZdlPv
	.seh_endproc
.LCOLDE223:
.LHOTE223:
	.section	.text$_ZN18Append_string_TestD4Ev,"x"
	.align 2
.LCOLDB224:
.LHOTB224:
	.align 2
	.def	_ZN18Append_string_TestD4Ev;	.scl	3;	.type	32;	.endef
	.seh_proc	_ZN18Append_string_TestD4Ev
_ZN18Append_string_TestD4Ev:
	pushq	%rsi
	.seh_pushreg	%rsi
	pushq	%rbx
	.seh_pushreg	%rbx
	subq	$40, %rsp
	.seh_stackalloc	40
	.seh_endprologue
	leaq	16+_ZTV18Append_string_Test(%rip), %rax
	movl	%edx, %esi
	movq	%rax, (%rcx)
	movq	%rcx, %rbx
	call	_ZN7testing4TestD2Ev
	andb	$1, %sil
	je	.L229
	movq	%rbx, %rcx
	addq	$40, %rsp
	popq	%rbx
	popq	%rsi
	jmp	_ZdlPv
.L229:
	addq	$40, %rsp
	popq	%rbx
	popq	%rsi
	ret
	.seh_endproc
.LCOLDE224:
.LHOTE224:
	.section	.text$_ZN18Append_string_TestD1Ev,"x"
	.linkonce discard
	.align 2
.LCOLDB225:
.LHOTB225:
	.align 2
	.globl	_ZN18Append_string_TestD1Ev
	.def	_ZN18Append_string_TestD1Ev;	.scl	2;	.type	32;	.endef
	.seh_proc	_ZN18Append_string_TestD1Ev
_ZN18Append_string_TestD1Ev:
	.seh_endprologue
	movl	$2, %edx
	jmp	_ZN18Append_string_TestD4Ev
	.seh_endproc
.LCOLDE225:
.LHOTE225:
	.section	.text$_ZN18Append_string_TestD0Ev,"x"
	.linkonce discard
	.align 2
.LCOLDB226:
.LHOTB226:
	.align 2
	.globl	_ZN18Append_string_TestD0Ev
	.def	_ZN18Append_string_TestD0Ev;	.scl	2;	.type	32;	.endef
	.seh_proc	_ZN18Append_string_TestD0Ev
_ZN18Append_string_TestD0Ev:
	pushq	%rbx
	.seh_pushreg	%rbx
	subq	$32, %rsp
	.seh_stackalloc	32
	.seh_endprologue
	movq	%rcx, %rbx
	call	_ZN18Append_string_TestD1Ev
	movq	%rbx, %rcx
	addq	$32, %rsp
	popq	%rbx
	jmp	_ZdlPv
	.seh_endproc
.LCOLDE226:
.LHOTE226:
	.section	.text$_ZN16Append_Char_TestD4Ev,"x"
	.align 2
.LCOLDB227:
.LHOTB227:
	.align 2
	.def	_ZN16Append_Char_TestD4Ev;	.scl	3;	.type	32;	.endef
	.seh_proc	_ZN16Append_Char_TestD4Ev
_ZN16Append_Char_TestD4Ev:
	pushq	%rsi
	.seh_pushreg	%rsi
	pushq	%rbx
	.seh_pushreg	%rbx
	subq	$40, %rsp
	.seh_stackalloc	40
	.seh_endprologue
	leaq	16+_ZTV16Append_Char_Test(%rip), %rax
	movl	%edx, %esi
	movq	%rax, (%rcx)
	movq	%rcx, %rbx
	call	_ZN7testing4TestD2Ev
	andb	$1, %sil
	je	.L233
	movq	%rbx, %rcx
	addq	$40, %rsp
	popq	%rbx
	popq	%rsi
	jmp	_ZdlPv
.L233:
	addq	$40, %rsp
	popq	%rbx
	popq	%rsi
	ret
	.seh_endproc
.LCOLDE227:
.LHOTE227:
	.section	.text$_ZN16Append_Char_TestD1Ev,"x"
	.linkonce discard
	.align 2
.LCOLDB228:
.LHOTB228:
	.align 2
	.globl	_ZN16Append_Char_TestD1Ev
	.def	_ZN16Append_Char_TestD1Ev;	.scl	2;	.type	32;	.endef
	.seh_proc	_ZN16Append_Char_TestD1Ev
_ZN16Append_Char_TestD1Ev:
	.seh_endprologue
	movl	$2, %edx
	jmp	_ZN16Append_Char_TestD4Ev
	.seh_endproc
.LCOLDE228:
.LHOTE228:
	.section	.text$_ZN16Append_Char_TestD0Ev,"x"
	.linkonce discard
	.align 2
.LCOLDB229:
.LHOTB229:
	.align 2
	.globl	_ZN16Append_Char_TestD0Ev
	.def	_ZN16Append_Char_TestD0Ev;	.scl	2;	.type	32;	.endef
	.seh_proc	_ZN16Append_Char_TestD0Ev
_ZN16Append_Char_TestD0Ev:
	pushq	%rbx
	.seh_pushreg	%rbx
	subq	$32, %rsp
	.seh_stackalloc	32
	.seh_endprologue
	movq	%rcx, %rbx
	call	_ZN16Append_Char_TestD1Ev
	movq	%rbx, %rcx
	addq	$32, %rsp
	popq	%rbx
	jmp	_ZdlPv
	.seh_endproc
.LCOLDE229:
.LHOTE229:
	.section	.text$_ZN20Append_string20_TestD4Ev,"x"
	.align 2
.LCOLDB230:
.LHOTB230:
	.align 2
	.def	_ZN20Append_string20_TestD4Ev;	.scl	3;	.type	32;	.endef
	.seh_proc	_ZN20Append_string20_TestD4Ev
_ZN20Append_string20_TestD4Ev:
	pushq	%rsi
	.seh_pushreg	%rsi
	pushq	%rbx
	.seh_pushreg	%rbx
	subq	$40, %rsp
	.seh_stackalloc	40
	.seh_endprologue
	leaq	16+_ZTV20Append_string20_Test(%rip), %rax
	movl	%edx, %esi
	movq	%rax, (%rcx)
	movq	%rcx, %rbx
	call	_ZN7testing4TestD2Ev
	andb	$1, %sil
	je	.L237
	movq	%rbx, %rcx
	addq	$40, %rsp
	popq	%rbx
	popq	%rsi
	jmp	_ZdlPv
.L237:
	addq	$40, %rsp
	popq	%rbx
	popq	%rsi
	ret
	.seh_endproc
.LCOLDE230:
.LHOTE230:
	.section	.text$_ZN20Append_string20_TestD1Ev,"x"
	.linkonce discard
	.align 2
.LCOLDB231:
.LHOTB231:
	.align 2
	.globl	_ZN20Append_string20_TestD1Ev
	.def	_ZN20Append_string20_TestD1Ev;	.scl	2;	.type	32;	.endef
	.seh_proc	_ZN20Append_string20_TestD1Ev
_ZN20Append_string20_TestD1Ev:
	.seh_endprologue
	movl	$2, %edx
	jmp	_ZN20Append_string20_TestD4Ev
	.seh_endproc
.LCOLDE231:
.LHOTE231:
	.section	.text$_ZN20Append_string20_TestD0Ev,"x"
	.linkonce discard
	.align 2
.LCOLDB232:
.LHOTB232:
	.align 2
	.globl	_ZN20Append_string20_TestD0Ev
	.def	_ZN20Append_string20_TestD0Ev;	.scl	2;	.type	32;	.endef
	.seh_proc	_ZN20Append_string20_TestD0Ev
_ZN20Append_string20_TestD0Ev:
	pushq	%rbx
	.seh_pushreg	%rbx
	subq	$32, %rsp
	.seh_stackalloc	32
	.seh_endprologue
	movq	%rcx, %rbx
	call	_ZN20Append_string20_TestD1Ev
	movq	%rbx, %rcx
	addq	$32, %rsp
	popq	%rbx
	jmp	_ZdlPv
	.seh_endproc
.LCOLDE232:
.LHOTE232:
	.section	.text$_ZN16Assign_Char_TestD4Ev,"x"
	.align 2
.LCOLDB233:
.LHOTB233:
	.align 2
	.def	_ZN16Assign_Char_TestD4Ev;	.scl	3;	.type	32;	.endef
	.seh_proc	_ZN16Assign_Char_TestD4Ev
_ZN16Assign_Char_TestD4Ev:
	pushq	%rsi
	.seh_pushreg	%rsi
	pushq	%rbx
	.seh_pushreg	%rbx
	subq	$40, %rsp
	.seh_stackalloc	40
	.seh_endprologue
	leaq	16+_ZTV16Assign_Char_Test(%rip), %rax
	movl	%edx, %esi
	movq	%rax, (%rcx)
	movq	%rcx, %rbx
	call	_ZN7testing4TestD2Ev
	andb	$1, %sil
	je	.L241
	movq	%rbx, %rcx
	addq	$40, %rsp
	popq	%rbx
	popq	%rsi
	jmp	_ZdlPv
.L241:
	addq	$40, %rsp
	popq	%rbx
	popq	%rsi
	ret
	.seh_endproc
.LCOLDE233:
.LHOTE233:
	.section	.text$_ZN16Assign_Char_TestD1Ev,"x"
	.linkonce discard
	.align 2
.LCOLDB234:
.LHOTB234:
	.align 2
	.globl	_ZN16Assign_Char_TestD1Ev
	.def	_ZN16Assign_Char_TestD1Ev;	.scl	2;	.type	32;	.endef
	.seh_proc	_ZN16Assign_Char_TestD1Ev
_ZN16Assign_Char_TestD1Ev:
	.seh_endprologue
	movl	$2, %edx
	jmp	_ZN16Assign_Char_TestD4Ev
	.seh_endproc
.LCOLDE234:
.LHOTE234:
	.section	.text$_ZN16Assign_Char_TestD0Ev,"x"
	.linkonce discard
	.align 2
.LCOLDB235:
.LHOTB235:
	.align 2
	.globl	_ZN16Assign_Char_TestD0Ev
	.def	_ZN16Assign_Char_TestD0Ev;	.scl	2;	.type	32;	.endef
	.seh_proc	_ZN16Assign_Char_TestD0Ev
_ZN16Assign_Char_TestD0Ev:
	pushq	%rbx
	.seh_pushreg	%rbx
	subq	$32, %rsp
	.seh_stackalloc	32
	.seh_endprologue
	movq	%rcx, %rbx
	call	_ZN16Assign_Char_TestD1Ev
	movq	%rbx, %rcx
	addq	$32, %rsp
	popq	%rbx
	jmp	_ZdlPv
	.seh_endproc
.LCOLDE235:
.LHOTE235:
	.section	.text$_ZN20Assign_string20_TestD4Ev,"x"
	.align 2
.LCOLDB236:
.LHOTB236:
	.align 2
	.def	_ZN20Assign_string20_TestD4Ev;	.scl	3;	.type	32;	.endef
	.seh_proc	_ZN20Assign_string20_TestD4Ev
_ZN20Assign_string20_TestD4Ev:
	pushq	%rsi
	.seh_pushreg	%rsi
	pushq	%rbx
	.seh_pushreg	%rbx
	subq	$40, %rsp
	.seh_stackalloc	40
	.seh_endprologue
	leaq	16+_ZTV20Assign_string20_Test(%rip), %rax
	movl	%edx, %esi
	movq	%rax, (%rcx)
	movq	%rcx, %rbx
	call	_ZN7testing4TestD2Ev
	andb	$1, %sil
	je	.L245
	movq	%rbx, %rcx
	addq	$40, %rsp
	popq	%rbx
	popq	%rsi
	jmp	_ZdlPv
.L245:
	addq	$40, %rsp
	popq	%rbx
	popq	%rsi
	ret
	.seh_endproc
.LCOLDE236:
.LHOTE236:
	.section	.text$_ZN20Assign_string20_TestD1Ev,"x"
	.linkonce discard
	.align 2
.LCOLDB237:
.LHOTB237:
	.align 2
	.globl	_ZN20Assign_string20_TestD1Ev
	.def	_ZN20Assign_string20_TestD1Ev;	.scl	2;	.type	32;	.endef
	.seh_proc	_ZN20Assign_string20_TestD1Ev
_ZN20Assign_string20_TestD1Ev:
	.seh_endprologue
	movl	$2, %edx
	jmp	_ZN20Assign_string20_TestD4Ev
	.seh_endproc
.LCOLDE237:
.LHOTE237:
	.section	.text$_ZN20Assign_string20_TestD0Ev,"x"
	.linkonce discard
	.align 2
.LCOLDB238:
.LHOTB238:
	.align 2
	.globl	_ZN20Assign_string20_TestD0Ev
	.def	_ZN20Assign_string20_TestD0Ev;	.scl	2;	.type	32;	.endef
	.seh_proc	_ZN20Assign_string20_TestD0Ev
_ZN20Assign_string20_TestD0Ev:
	pushq	%rbx
	.seh_pushreg	%rbx
	subq	$32, %rsp
	.seh_stackalloc	32
	.seh_endprologue
	movq	%rcx, %rbx
	call	_ZN20Assign_string20_TestD1Ev
	movq	%rbx, %rcx
	addq	$32, %rsp
	popq	%rbx
	jmp	_ZdlPv
	.seh_endproc
.LCOLDE238:
.LHOTE238:
	.section	.text$_ZN18Assign_string_TestD4Ev,"x"
	.align 2
.LCOLDB239:
.LHOTB239:
	.align 2
	.def	_ZN18Assign_string_TestD4Ev;	.scl	3;	.type	32;	.endef
	.seh_proc	_ZN18Assign_string_TestD4Ev
_ZN18Assign_string_TestD4Ev:
	pushq	%rsi
	.seh_pushreg	%rsi
	pushq	%rbx
	.seh_pushreg	%rbx
	subq	$40, %rsp
	.seh_stackalloc	40
	.seh_endprologue
	leaq	16+_ZTV18Assign_string_Test(%rip), %rax
	movl	%edx, %esi
	movq	%rax, (%rcx)
	movq	%rcx, %rbx
	call	_ZN7testing4TestD2Ev
	andb	$1, %sil
	je	.L249
	movq	%rbx, %rcx
	addq	$40, %rsp
	popq	%rbx
	popq	%rsi
	jmp	_ZdlPv
.L249:
	addq	$40, %rsp
	popq	%rbx
	popq	%rsi
	ret
	.seh_endproc
.LCOLDE239:
.LHOTE239:
	.section	.text$_ZN18Assign_string_TestD1Ev,"x"
	.linkonce discard
	.align 2
.LCOLDB240:
.LHOTB240:
	.align 2
	.globl	_ZN18Assign_string_TestD1Ev
	.def	_ZN18Assign_string_TestD1Ev;	.scl	2;	.type	32;	.endef
	.seh_proc	_ZN18Assign_string_TestD1Ev
_ZN18Assign_string_TestD1Ev:
	.seh_endprologue
	movl	$2, %edx
	jmp	_ZN18Assign_string_TestD4Ev
	.seh_endproc
.LCOLDE240:
.LHOTE240:
	.section	.text$_ZN18Assign_string_TestD0Ev,"x"
	.linkonce discard
	.align 2
.LCOLDB241:
.LHOTB241:
	.align 2
	.globl	_ZN18Assign_string_TestD0Ev
	.def	_ZN18Assign_string_TestD0Ev;	.scl	2;	.type	32;	.endef
	.seh_proc	_ZN18Assign_string_TestD0Ev
_ZN18Assign_string_TestD0Ev:
	pushq	%rbx
	.seh_pushreg	%rbx
	subq	$32, %rsp
	.seh_stackalloc	32
	.seh_endprologue
	movq	%rcx, %rbx
	call	_ZN18Assign_string_TestD1Ev
	movq	%rbx, %rcx
	addq	$32, %rsp
	popq	%rbx
	jmp	_ZdlPv
	.seh_endproc
.LCOLDE241:
.LHOTE241:
	.section	.text$_ZN26Constructors_String20_TestD4Ev,"x"
	.align 2
.LCOLDB242:
.LHOTB242:
	.align 2
	.def	_ZN26Constructors_String20_TestD4Ev;	.scl	3;	.type	32;	.endef
	.seh_proc	_ZN26Constructors_String20_TestD4Ev
_ZN26Constructors_String20_TestD4Ev:
	pushq	%rsi
	.seh_pushreg	%rsi
	pushq	%rbx
	.seh_pushreg	%rbx
	subq	$40, %rsp
	.seh_stackalloc	40
	.seh_endprologue
	leaq	16+_ZTV26Constructors_String20_Test(%rip), %rax
	movl	%edx, %esi
	movq	%rax, (%rcx)
	movq	%rcx, %rbx
	call	_ZN7testing4TestD2Ev
	andb	$1, %sil
	je	.L253
	movq	%rbx, %rcx
	addq	$40, %rsp
	popq	%rbx
	popq	%rsi
	jmp	_ZdlPv
.L253:
	addq	$40, %rsp
	popq	%rbx
	popq	%rsi
	ret
	.seh_endproc
.LCOLDE242:
.LHOTE242:
	.section	.text$_ZN26Constructors_String20_TestD1Ev,"x"
	.linkonce discard
	.align 2
.LCOLDB243:
.LHOTB243:
	.align 2
	.globl	_ZN26Constructors_String20_TestD1Ev
	.def	_ZN26Constructors_String20_TestD1Ev;	.scl	2;	.type	32;	.endef
	.seh_proc	_ZN26Constructors_String20_TestD1Ev
_ZN26Constructors_String20_TestD1Ev:
	.seh_endprologue
	movl	$2, %edx
	jmp	_ZN26Constructors_String20_TestD4Ev
	.seh_endproc
.LCOLDE243:
.LHOTE243:
	.section	.text$_ZN26Constructors_String20_TestD0Ev,"x"
	.linkonce discard
	.align 2
.LCOLDB244:
.LHOTB244:
	.align 2
	.globl	_ZN26Constructors_String20_TestD0Ev
	.def	_ZN26Constructors_String20_TestD0Ev;	.scl	2;	.type	32;	.endef
	.seh_proc	_ZN26Constructors_String20_TestD0Ev
_ZN26Constructors_String20_TestD0Ev:
	pushq	%rbx
	.seh_pushreg	%rbx
	subq	$32, %rsp
	.seh_stackalloc	32
	.seh_endprologue
	movq	%rcx, %rbx
	call	_ZN26Constructors_String20_TestD1Ev
	movq	%rbx, %rcx
	addq	$32, %rsp
	popq	%rbx
	jmp	_ZdlPv
	.seh_endproc
.LCOLDE244:
.LHOTE244:
	.section	.text$_ZN24Constructors_string_TestD4Ev,"x"
	.align 2
.LCOLDB245:
.LHOTB245:
	.align 2
	.def	_ZN24Constructors_string_TestD4Ev;	.scl	3;	.type	32;	.endef
	.seh_proc	_ZN24Constructors_string_TestD4Ev
_ZN24Constructors_string_TestD4Ev:
	pushq	%rsi
	.seh_pushreg	%rsi
	pushq	%rbx
	.seh_pushreg	%rbx
	subq	$40, %rsp
	.seh_stackalloc	40
	.seh_endprologue
	leaq	16+_ZTV24Constructors_string_Test(%rip), %rax
	movl	%edx, %esi
	movq	%rax, (%rcx)
	movq	%rcx, %rbx
	call	_ZN7testing4TestD2Ev
	andb	$1, %sil
	je	.L257
	movq	%rbx, %rcx
	addq	$40, %rsp
	popq	%rbx
	popq	%rsi
	jmp	_ZdlPv
.L257:
	addq	$40, %rsp
	popq	%rbx
	popq	%rsi
	ret
	.seh_endproc
.LCOLDE245:
.LHOTE245:
	.section	.text$_ZN24Constructors_string_TestD1Ev,"x"
	.linkonce discard
	.align 2
.LCOLDB246:
.LHOTB246:
	.align 2
	.globl	_ZN24Constructors_string_TestD1Ev
	.def	_ZN24Constructors_string_TestD1Ev;	.scl	2;	.type	32;	.endef
	.seh_proc	_ZN24Constructors_string_TestD1Ev
_ZN24Constructors_string_TestD1Ev:
	.seh_endprologue
	movl	$2, %edx
	jmp	_ZN24Constructors_string_TestD4Ev
	.seh_endproc
.LCOLDE246:
.LHOTE246:
	.section	.text$_ZN24Constructors_string_TestD0Ev,"x"
	.linkonce discard
	.align 2
.LCOLDB247:
.LHOTB247:
	.align 2
	.globl	_ZN24Constructors_string_TestD0Ev
	.def	_ZN24Constructors_string_TestD0Ev;	.scl	2;	.type	32;	.endef
	.seh_proc	_ZN24Constructors_string_TestD0Ev
_ZN24Constructors_string_TestD0Ev:
	pushq	%rbx
	.seh_pushreg	%rbx
	subq	$32, %rsp
	.seh_stackalloc	32
	.seh_endprologue
	movq	%rcx, %rbx
	call	_ZN24Constructors_string_TestD1Ev
	movq	%rbx, %rcx
	addq	$32, %rsp
	popq	%rbx
	jmp	_ZdlPv
	.seh_endproc
.LCOLDE247:
.LHOTE247:
	.section	.text$_ZN22Constructors_Char_TestD4Ev,"x"
	.align 2
.LCOLDB248:
.LHOTB248:
	.align 2
	.def	_ZN22Constructors_Char_TestD4Ev;	.scl	3;	.type	32;	.endef
	.seh_proc	_ZN22Constructors_Char_TestD4Ev
_ZN22Constructors_Char_TestD4Ev:
	pushq	%rsi
	.seh_pushreg	%rsi
	pushq	%rbx
	.seh_pushreg	%rbx
	subq	$40, %rsp
	.seh_stackalloc	40
	.seh_endprologue
	leaq	16+_ZTV22Constructors_Char_Test(%rip), %rax
	movl	%edx, %esi
	movq	%rax, (%rcx)
	movq	%rcx, %rbx
	call	_ZN7testing4TestD2Ev
	andb	$1, %sil
	je	.L261
	movq	%rbx, %rcx
	addq	$40, %rsp
	popq	%rbx
	popq	%rsi
	jmp	_ZdlPv
.L261:
	addq	$40, %rsp
	popq	%rbx
	popq	%rsi
	ret
	.seh_endproc
.LCOLDE248:
.LHOTE248:
	.section	.text$_ZN22Constructors_Char_TestD1Ev,"x"
	.linkonce discard
	.align 2
.LCOLDB249:
.LHOTB249:
	.align 2
	.globl	_ZN22Constructors_Char_TestD1Ev
	.def	_ZN22Constructors_Char_TestD1Ev;	.scl	2;	.type	32;	.endef
	.seh_proc	_ZN22Constructors_Char_TestD1Ev
_ZN22Constructors_Char_TestD1Ev:
	.seh_endprologue
	movl	$2, %edx
	jmp	_ZN22Constructors_Char_TestD4Ev
	.seh_endproc
.LCOLDE249:
.LHOTE249:
	.section	.text$_ZN22Constructors_Char_TestD0Ev,"x"
	.linkonce discard
	.align 2
.LCOLDB250:
.LHOTB250:
	.align 2
	.globl	_ZN22Constructors_Char_TestD0Ev
	.def	_ZN22Constructors_Char_TestD0Ev;	.scl	2;	.type	32;	.endef
	.seh_proc	_ZN22Constructors_Char_TestD0Ev
_ZN22Constructors_Char_TestD0Ev:
	pushq	%rbx
	.seh_pushreg	%rbx
	subq	$32, %rsp
	.seh_stackalloc	32
	.seh_endprologue
	movq	%rcx, %rbx
	call	_ZN22Constructors_Char_TestD1Ev
	movq	%rbx, %rcx
	addq	$32, %rsp
	popq	%rbx
	jmp	_ZdlPv
	.seh_endproc
.LCOLDE250:
.LHOTE250:
	.section	.text$_ZN25Constructors_Default_TestD4Ev,"x"
	.align 2
.LCOLDB251:
.LHOTB251:
	.align 2
	.def	_ZN25Constructors_Default_TestD4Ev;	.scl	3;	.type	32;	.endef
	.seh_proc	_ZN25Constructors_Default_TestD4Ev
_ZN25Constructors_Default_TestD4Ev:
	pushq	%rsi
	.seh_pushreg	%rsi
	pushq	%rbx
	.seh_pushreg	%rbx
	subq	$40, %rsp
	.seh_stackalloc	40
	.seh_endprologue
	leaq	16+_ZTV25Constructors_Default_Test(%rip), %rax
	movl	%edx, %esi
	movq	%rax, (%rcx)
	movq	%rcx, %rbx
	call	_ZN7testing4TestD2Ev
	andb	$1, %sil
	je	.L265
	movq	%rbx, %rcx
	addq	$40, %rsp
	popq	%rbx
	popq	%rsi
	jmp	_ZdlPv
.L265:
	addq	$40, %rsp
	popq	%rbx
	popq	%rsi
	ret
	.seh_endproc
.LCOLDE251:
.LHOTE251:
	.section	.text$_ZN25Constructors_Default_TestD1Ev,"x"
	.linkonce discard
	.align 2
.LCOLDB252:
.LHOTB252:
	.align 2
	.globl	_ZN25Constructors_Default_TestD1Ev
	.def	_ZN25Constructors_Default_TestD1Ev;	.scl	2;	.type	32;	.endef
	.seh_proc	_ZN25Constructors_Default_TestD1Ev
_ZN25Constructors_Default_TestD1Ev:
	.seh_endprologue
	movl	$2, %edx
	jmp	_ZN25Constructors_Default_TestD4Ev
	.seh_endproc
.LCOLDE252:
.LHOTE252:
	.section	.text$_ZN25Constructors_Default_TestD0Ev,"x"
	.linkonce discard
	.align 2
.LCOLDB253:
.LHOTB253:
	.align 2
	.globl	_ZN25Constructors_Default_TestD0Ev
	.def	_ZN25Constructors_Default_TestD0Ev;	.scl	2;	.type	32;	.endef
	.seh_proc	_ZN25Constructors_Default_TestD0Ev
_ZN25Constructors_Default_TestD0Ev:
	pushq	%rbx
	.seh_pushreg	%rbx
	subq	$32, %rsp
	.seh_stackalloc	32
	.seh_endprologue
	movq	%rcx, %rbx
	call	_ZN25Constructors_Default_TestD1Ev
	movq	%rbx, %rcx
	addq	$32, %rsp
	popq	%rbx
	jmp	_ZdlPv
	.seh_endproc
.LCOLDE253:
.LHOTE253:
	.section .rdata,"dr"
.LC254:
	.ascii "Default\0"
.LC255:
	.ascii "Constructors\0"
.LC256:
	.ascii "Char\0"
.LC257:
	.ascii "string\0"
.LC258:
	.ascii "String20\0"
.LC259:
	.ascii "Assign\0"
.LC260:
	.ascii "string20\0"
.LC261:
	.ascii "Append\0"
.LC262:
	.ascii "Add\0"
.LC263:
	.ascii "Char_String20_reverse\0"
.LC264:
	.ascii "string_String20_reverse\0"
.LC265:
	.ascii "string20_int\0"
.LC266:
	.ascii "Multiply\0"
.LC267:
	.ascii "string20_int_reverse\0"
.LC268:
	.ascii "String20Length\0"
.LC269:
	.ascii "Get\0"
.LC270:
	.ascii "String20valueChange\0"
.LC271:
	.ascii "String20valueConst\0"
	.section	.text.unlikely._GLOBAL__sub_I__Z3lenPKc,"x"
.LCOLDB272:
	.section	.text.startup._GLOBAL__sub_I__Z3lenPKc,"x"
.LHOTB272:
	.def	_GLOBAL__sub_I__Z3lenPKc;	.scl	3;	.type	32;	.endef
	.seh_proc	_GLOBAL__sub_I__Z3lenPKc
_GLOBAL__sub_I__Z3lenPKc:
	pushq	%rdi
	.seh_pushreg	%rdi
	pushq	%rsi
	.seh_pushreg	%rsi
	pushq	%rbx
	.seh_pushreg	%rbx
	subq	$64, %rsp
	.seh_stackalloc	64
	.seh_endprologue
	leaq	_ZStL8__ioinit(%rip), %rcx
	leaq	_ZN7testing4Test16TearDownTestCaseEv(%rip), %rsi
	call	_ZNSt8ios_base4InitC1Ev
	leaq	__tcf_0(%rip), %rcx
	call	atexit
	movl	$8, %ecx
	call	_Znwy
	movq	%rax, %rbx
	leaq	16+_ZTVN7testing8internal15TestFactoryImplI25Constructors_Default_TestEE(%rip), %rax
	movq	%rax, (%rbx)
	call	_ZN7testing8internal13GetTestTypeIdEv
	movq	%rbx, 56(%rsp)
	xorl	%r9d, %r9d
	xorl	%r8d, %r8d
	leaq	_ZN7testing4Test13SetUpTestCaseEv(%rip), %rbx
	movq	%rsi, 48(%rsp)
	leaq	.LC254(%rip), %rdx
	movq	%rbx, 40(%rsp)
	movq	%rax, 32(%rsp)
	leaq	.LC255(%rip), %rcx
	call	_ZN7testing8internal23MakeAndRegisterTestInfoEPKcS2_S2_S2_PKvPFvvES6_PNS0_15TestFactoryBaseE
	movl	$8, %ecx
	movq	%rax, _ZN25Constructors_Default_Test10test_info_E(%rip)
	call	_Znwy
	movq	%rax, %rdi
	leaq	16+_ZTVN7testing8internal15TestFactoryImplI22Constructors_Char_TestEE(%rip), %rax
	movq	%rax, (%rdi)
	call	_ZN7testing8internal13GetTestTypeIdEv
	xorl	%r9d, %r9d
	xorl	%r8d, %r8d
	movq	%rdi, 56(%rsp)
	leaq	.LC256(%rip), %rdx
	movq	%rsi, 48(%rsp)
	movq	%rbx, 40(%rsp)
	leaq	.LC255(%rip), %rcx
	movq	%rax, 32(%rsp)
	call	_ZN7testing8internal23MakeAndRegisterTestInfoEPKcS2_S2_S2_PKvPFvvES6_PNS0_15TestFactoryBaseE
	movl	$8, %ecx
	movq	%rax, _ZN22Constructors_Char_Test10test_info_E(%rip)
	call	_Znwy
	movq	%rax, %rdi
	leaq	16+_ZTVN7testing8internal15TestFactoryImplI24Constructors_string_TestEE(%rip), %rax
	movq	%rax, (%rdi)
	call	_ZN7testing8internal13GetTestTypeIdEv
	xorl	%r9d, %r9d
	xorl	%r8d, %r8d
	movq	%rdi, 56(%rsp)
	leaq	.LC257(%rip), %rdx
	movq	%rsi, 48(%rsp)
	movq	%rbx, 40(%rsp)
	leaq	.LC255(%rip), %rcx
	movq	%rax, 32(%rsp)
	call	_ZN7testing8internal23MakeAndRegisterTestInfoEPKcS2_S2_S2_PKvPFvvES6_PNS0_15TestFactoryBaseE
	movl	$8, %ecx
	movq	%rax, _ZN24Constructors_string_Test10test_info_E(%rip)
	call	_Znwy
	movq	%rax, %rdi
	leaq	16+_ZTVN7testing8internal15TestFactoryImplI26Constructors_String20_TestEE(%rip), %rax
	movq	%rax, (%rdi)
	call	_ZN7testing8internal13GetTestTypeIdEv
	xorl	%r9d, %r9d
	xorl	%r8d, %r8d
	movq	%rdi, 56(%rsp)
	leaq	.LC258(%rip), %rdx
	movq	%rsi, 48(%rsp)
	movq	%rbx, 40(%rsp)
	leaq	.LC255(%rip), %rcx
	movq	%rax, 32(%rsp)
	call	_ZN7testing8internal23MakeAndRegisterTestInfoEPKcS2_S2_S2_PKvPFvvES6_PNS0_15TestFactoryBaseE
	movl	$8, %ecx
	movq	%rax, _ZN26Constructors_String20_Test10test_info_E(%rip)
	call	_Znwy
	movq	%rax, %rdi
	leaq	16+_ZTVN7testing8internal15TestFactoryImplI18Assign_string_TestEE(%rip), %rax
	movq	%rax, (%rdi)
	call	_ZN7testing8internal13GetTestTypeIdEv
	xorl	%r9d, %r9d
	xorl	%r8d, %r8d
	movq	%rdi, 56(%rsp)
	leaq	.LC257(%rip), %rdx
	movq	%rsi, 48(%rsp)
	movq	%rbx, 40(%rsp)
	leaq	.LC259(%rip), %rcx
	movq	%rax, 32(%rsp)
	call	_ZN7testing8internal23MakeAndRegisterTestInfoEPKcS2_S2_S2_PKvPFvvES6_PNS0_15TestFactoryBaseE
	movl	$8, %ecx
	movq	%rax, _ZN18Assign_string_Test10test_info_E(%rip)
	call	_Znwy
	movq	%rax, %rdi
	leaq	16+_ZTVN7testing8internal15TestFactoryImplI20Assign_string20_TestEE(%rip), %rax
	movq	%rax, (%rdi)
	call	_ZN7testing8internal13GetTestTypeIdEv
	xorl	%r9d, %r9d
	xorl	%r8d, %r8d
	movq	%rdi, 56(%rsp)
	leaq	.LC260(%rip), %rdx
	movq	%rsi, 48(%rsp)
	movq	%rbx, 40(%rsp)
	leaq	.LC259(%rip), %rcx
	movq	%rax, 32(%rsp)
	call	_ZN7testing8internal23MakeAndRegisterTestInfoEPKcS2_S2_S2_PKvPFvvES6_PNS0_15TestFactoryBaseE
	movl	$8, %ecx
	movq	%rax, _ZN20Assign_string20_Test10test_info_E(%rip)
	call	_Znwy
	movq	%rax, %rdi
	leaq	16+_ZTVN7testing8internal15TestFactoryImplI16Assign_Char_TestEE(%rip), %rax
	movq	%rax, (%rdi)
	call	_ZN7testing8internal13GetTestTypeIdEv
	xorl	%r9d, %r9d
	xorl	%r8d, %r8d
	movq	%rdi, 56(%rsp)
	leaq	.LC256(%rip), %rdx
	movq	%rsi, 48(%rsp)
	movq	%rbx, 40(%rsp)
	leaq	.LC259(%rip), %rcx
	movq	%rax, 32(%rsp)
	call	_ZN7testing8internal23MakeAndRegisterTestInfoEPKcS2_S2_S2_PKvPFvvES6_PNS0_15TestFactoryBaseE
	movl	$8, %ecx
	movq	%rax, _ZN16Assign_Char_Test10test_info_E(%rip)
	call	_Znwy
	movq	%rax, %rdi
	leaq	16+_ZTVN7testing8internal15TestFactoryImplI20Append_string20_TestEE(%rip), %rax
	movq	%rax, (%rdi)
	call	_ZN7testing8internal13GetTestTypeIdEv
	xorl	%r9d, %r9d
	xorl	%r8d, %r8d
	movq	%rdi, 56(%rsp)
	leaq	.LC260(%rip), %rdx
	movq	%rsi, 48(%rsp)
	movq	%rbx, 40(%rsp)
	leaq	.LC261(%rip), %rcx
	movq	%rax, 32(%rsp)
	call	_ZN7testing8internal23MakeAndRegisterTestInfoEPKcS2_S2_S2_PKvPFvvES6_PNS0_15TestFactoryBaseE
	movl	$8, %ecx
	movq	%rax, _ZN20Append_string20_Test10test_info_E(%rip)
	call	_Znwy
	movq	%rax, %rdi
	leaq	16+_ZTVN7testing8internal15TestFactoryImplI16Append_Char_TestEE(%rip), %rax
	movq	%rax, (%rdi)
	call	_ZN7testing8internal13GetTestTypeIdEv
	xorl	%r9d, %r9d
	xorl	%r8d, %r8d
	movq	%rdi, 56(%rsp)
	leaq	.LC256(%rip), %rdx
	movq	%rsi, 48(%rsp)
	movq	%rbx, 40(%rsp)
	leaq	.LC261(%rip), %rcx
	movq	%rax, 32(%rsp)
	call	_ZN7testing8internal23MakeAndRegisterTestInfoEPKcS2_S2_S2_PKvPFvvES6_PNS0_15TestFactoryBaseE
	movl	$8, %ecx
	movq	%rax, _ZN16Append_Char_Test10test_info_E(%rip)
	call	_Znwy
	movq	%rax, %rdi
	leaq	16+_ZTVN7testing8internal15TestFactoryImplI18Append_string_TestEE(%rip), %rax
	movq	%rax, (%rdi)
	call	_ZN7testing8internal13GetTestTypeIdEv
	xorl	%r9d, %r9d
	xorl	%r8d, %r8d
	movq	%rdi, 56(%rsp)
	leaq	.LC257(%rip), %rdx
	movq	%rsi, 48(%rsp)
	movq	%rbx, 40(%rsp)
	leaq	.LC261(%rip), %rcx
	movq	%rax, 32(%rsp)
	call	_ZN7testing8internal23MakeAndRegisterTestInfoEPKcS2_S2_S2_PKvPFvvES6_PNS0_15TestFactoryBaseE
	movl	$8, %ecx
	movq	%rax, _ZN18Append_string_Test10test_info_E(%rip)
	call	_Znwy
	movq	%rax, %rdi
	leaq	16+_ZTVN7testing8internal15TestFactoryImplI17Add_string20_TestEE(%rip), %rax
	movq	%rax, (%rdi)
	call	_ZN7testing8internal13GetTestTypeIdEv
	xorl	%r9d, %r9d
	xorl	%r8d, %r8d
	movq	%rdi, 56(%rsp)
	leaq	.LC260(%rip), %rdx
	movq	%rsi, 48(%rsp)
	movq	%rbx, 40(%rsp)
	leaq	.LC262(%rip), %rcx
	movq	%rax, 32(%rsp)
	call	_ZN7testing8internal23MakeAndRegisterTestInfoEPKcS2_S2_S2_PKvPFvvES6_PNS0_15TestFactoryBaseE
	movl	$8, %ecx
	movq	%rax, _ZN17Add_string20_Test10test_info_E(%rip)
	call	_Znwy
	movq	%rax, %rdi
	leaq	16+_ZTVN7testing8internal15TestFactoryImplI13Add_Char_TestEE(%rip), %rax
	movq	%rax, (%rdi)
	call	_ZN7testing8internal13GetTestTypeIdEv
	xorl	%r8d, %r8d
	xorl	%r9d, %r9d
	movq	%rdi, 56(%rsp)
	leaq	.LC256(%rip), %rdx
	movq	%rsi, 48(%rsp)
	movq	%rbx, 40(%rsp)
	leaq	.LC262(%rip), %rcx
	movq	%rax, 32(%rsp)
	call	_ZN7testing8internal23MakeAndRegisterTestInfoEPKcS2_S2_S2_PKvPFvvES6_PNS0_15TestFactoryBaseE
	movl	$8, %ecx
	movq	%rax, _ZN13Add_Char_Test10test_info_E(%rip)
	call	_Znwy
	movq	%rax, %rdi
	leaq	16+_ZTVN7testing8internal15TestFactoryImplI15Add_string_TestEE(%rip), %rax
	movq	%rax, (%rdi)
	call	_ZN7testing8internal13GetTestTypeIdEv
	xorl	%r9d, %r9d
	movq	%rdi, 56(%rsp)
	xorl	%r8d, %r8d
	leaq	.LC257(%rip), %rdx
	movq	%rsi, 48(%rsp)
	movq	%rbx, 40(%rsp)
	leaq	.LC262(%rip), %rcx
	movq	%rax, 32(%rsp)
	call	_ZN7testing8internal23MakeAndRegisterTestInfoEPKcS2_S2_S2_PKvPFvvES6_PNS0_15TestFactoryBaseE
	movl	$8, %ecx
	movq	%rax, _ZN15Add_string_Test10test_info_E(%rip)
	call	_Znwy
	movq	%rax, %rdi
	leaq	16+_ZTVN7testing8internal15TestFactoryImplI30Add_Char_String20_reverse_TestEE(%rip), %rax
	movq	%rax, (%rdi)
	call	_ZN7testing8internal13GetTestTypeIdEv
	xorl	%r9d, %r9d
	xorl	%r8d, %r8d
	movq	%rdi, 56(%rsp)
	leaq	.LC263(%rip), %rdx
	movq	%rsi, 48(%rsp)
	movq	%rbx, 40(%rsp)
	leaq	.LC262(%rip), %rcx
	movq	%rax, 32(%rsp)
	call	_ZN7testing8internal23MakeAndRegisterTestInfoEPKcS2_S2_S2_PKvPFvvES6_PNS0_15TestFactoryBaseE
	movl	$8, %ecx
	movq	%rax, _ZN30Add_Char_String20_reverse_Test10test_info_E(%rip)
	call	_Znwy
	movq	%rax, %rdi
	leaq	16+_ZTVN7testing8internal15TestFactoryImplI32Add_string_String20_reverse_TestEE(%rip), %rax
	movq	%rax, (%rdi)
	call	_ZN7testing8internal13GetTestTypeIdEv
	xorl	%r9d, %r9d
	xorl	%r8d, %r8d
	movq	%rdi, 56(%rsp)
	leaq	.LC264(%rip), %rdx
	movq	%rsi, 48(%rsp)
	movq	%rbx, 40(%rsp)
	leaq	.LC262(%rip), %rcx
	movq	%rax, 32(%rsp)
	call	_ZN7testing8internal23MakeAndRegisterTestInfoEPKcS2_S2_S2_PKvPFvvES6_PNS0_15TestFactoryBaseE
	movl	$8, %ecx
	movq	%rax, _ZN32Add_string_String20_reverse_Test10test_info_E(%rip)
	call	_Znwy
	movq	%rax, %rdi
	leaq	16+_ZTVN7testing8internal15TestFactoryImplI26Multiply_string20_int_TestEE(%rip), %rax
	movq	%rax, (%rdi)
	call	_ZN7testing8internal13GetTestTypeIdEv
	xorl	%r9d, %r9d
	xorl	%r8d, %r8d
	movq	%rdi, 56(%rsp)
	leaq	.LC265(%rip), %rdx
	movq	%rsi, 48(%rsp)
	movq	%rbx, 40(%rsp)
	leaq	.LC266(%rip), %rcx
	movq	%rax, 32(%rsp)
	call	_ZN7testing8internal23MakeAndRegisterTestInfoEPKcS2_S2_S2_PKvPFvvES6_PNS0_15TestFactoryBaseE
	movl	$8, %ecx
	movq	%rax, _ZN26Multiply_string20_int_Test10test_info_E(%rip)
	call	_Znwy
	movq	%rax, %rdi
	leaq	16+_ZTVN7testing8internal15TestFactoryImplI34Multiply_string20_int_reverse_TestEE(%rip), %rax
	movq	%rax, (%rdi)
	call	_ZN7testing8internal13GetTestTypeIdEv
	xorl	%r9d, %r9d
	xorl	%r8d, %r8d
	movq	%rdi, 56(%rsp)
	leaq	.LC267(%rip), %rdx
	movq	%rsi, 48(%rsp)
	movq	%rbx, 40(%rsp)
	leaq	.LC266(%rip), %rcx
	movq	%rax, 32(%rsp)
	call	_ZN7testing8internal23MakeAndRegisterTestInfoEPKcS2_S2_S2_PKvPFvvES6_PNS0_15TestFactoryBaseE
	movl	$8, %ecx
	movq	%rax, _ZN34Multiply_string20_int_reverse_Test10test_info_E(%rip)
	call	_Znwy
	movq	%rax, %rdi
	leaq	16+_ZTVN7testing8internal15TestFactoryImplI23Get_String20Length_TestEE(%rip), %rax
	movq	%rax, (%rdi)
	call	_ZN7testing8internal13GetTestTypeIdEv
	xorl	%r9d, %r9d
	xorl	%r8d, %r8d
	movq	%rdi, 56(%rsp)
	leaq	.LC268(%rip), %rdx
	movq	%rsi, 48(%rsp)
	movq	%rbx, 40(%rsp)
	leaq	.LC269(%rip), %rcx
	movq	%rax, 32(%rsp)
	call	_ZN7testing8internal23MakeAndRegisterTestInfoEPKcS2_S2_S2_PKvPFvvES6_PNS0_15TestFactoryBaseE
	movl	$8, %ecx
	movq	%rax, _ZN23Get_String20Length_Test10test_info_E(%rip)
	call	_Znwy
	movq	%rax, %rdi
	leaq	16+_ZTVN7testing8internal15TestFactoryImplI28Get_String20valueChange_TestEE(%rip), %rax
	movq	%rax, (%rdi)
	call	_ZN7testing8internal13GetTestTypeIdEv
	xorl	%r9d, %r9d
	xorl	%r8d, %r8d
	movq	%rdi, 56(%rsp)
	leaq	.LC270(%rip), %rdx
	movq	%rsi, 48(%rsp)
	movq	%rbx, 40(%rsp)
	leaq	.LC269(%rip), %rcx
	movq	%rax, 32(%rsp)
	call	_ZN7testing8internal23MakeAndRegisterTestInfoEPKcS2_S2_S2_PKvPFvvES6_PNS0_15TestFactoryBaseE
	movl	$8, %ecx
	movq	%rax, _ZN28Get_String20valueChange_Test10test_info_E(%rip)
	call	_Znwy
	movq	%rax, %rdi
	leaq	16+_ZTVN7testing8internal15TestFactoryImplI27Get_String20valueConst_TestEE(%rip), %rax
	movq	%rax, (%rdi)
	call	_ZN7testing8internal13GetTestTypeIdEv
	movq	%rdi, 56(%rsp)
	xorl	%r9d, %r9d
	xorl	%r8d, %r8d
	movq	%rsi, 48(%rsp)
	leaq	.LC271(%rip), %rdx
	movq	%rbx, 40(%rsp)
	leaq	.LC269(%rip), %rcx
	movq	%rax, 32(%rsp)
	call	_ZN7testing8internal23MakeAndRegisterTestInfoEPKcS2_S2_S2_PKvPFvvES6_PNS0_15TestFactoryBaseE
	movq	%rax, _ZN27Get_String20valueConst_Test10test_info_E(%rip)
	addq	$64, %rsp
	popq	%rbx
	popq	%rsi
	popq	%rdi
	ret
	.seh_endproc
	.section	.text.unlikely._GLOBAL__sub_I__Z3lenPKc,"x"
.LCOLDE272:
	.section	.text.startup._GLOBAL__sub_I__Z3lenPKc,"x"
.LHOTE272:
	.section	.ctors,"w"
	.align 8
	.quad	_GLOBAL__sub_I__Z3lenPKc
	.globl	_ZTSN7testing8internal15TestFactoryBaseE
	.section	.rdata$_ZTSN7testing8internal15TestFactoryBaseE,"dr"
	.linkonce same_size
	.align 32
_ZTSN7testing8internal15TestFactoryBaseE:
	.ascii "N7testing8internal15TestFactoryBaseE\0"
	.globl	_ZTIN7testing8internal15TestFactoryBaseE
	.section	.rdata$_ZTIN7testing8internal15TestFactoryBaseE,"dr"
	.linkonce same_size
	.align 8
_ZTIN7testing8internal15TestFactoryBaseE:
	.quad	_ZTVN10__cxxabiv117__class_type_infoE+16
	.quad	_ZTSN7testing8internal15TestFactoryBaseE
	.globl	_ZTSN7testing4TestE
	.section	.rdata$_ZTSN7testing4TestE,"dr"
	.linkonce same_size
	.align 16
_ZTSN7testing4TestE:
	.ascii "N7testing4TestE\0"
	.globl	_ZTIN7testing4TestE
	.section	.rdata$_ZTIN7testing4TestE,"dr"
	.linkonce same_size
	.align 8
_ZTIN7testing4TestE:
	.quad	_ZTVN10__cxxabiv117__class_type_infoE+16
	.quad	_ZTSN7testing4TestE
	.globl	_ZTS25Constructors_Default_Test
	.section	.rdata$_ZTS25Constructors_Default_Test,"dr"
	.linkonce same_size
	.align 16
_ZTS25Constructors_Default_Test:
	.ascii "25Constructors_Default_Test\0"
	.globl	_ZTI25Constructors_Default_Test
	.section	.rdata$_ZTI25Constructors_Default_Test,"dr"
	.linkonce same_size
	.align 8
_ZTI25Constructors_Default_Test:
	.quad	_ZTVN10__cxxabiv120__si_class_type_infoE+16
	.quad	_ZTS25Constructors_Default_Test
	.quad	_ZTIN7testing4TestE
	.globl	_ZTSN7testing8internal15TestFactoryImplI25Constructors_Default_TestEE
	.section	.rdata$_ZTSN7testing8internal15TestFactoryImplI25Constructors_Default_TestEE,"dr"
	.linkonce same_size
	.align 32
_ZTSN7testing8internal15TestFactoryImplI25Constructors_Default_TestEE:
	.ascii "N7testing8internal15TestFactoryImplI25Constructors_Default_TestEE\0"
	.globl	_ZTIN7testing8internal15TestFactoryImplI25Constructors_Default_TestEE
	.section	.rdata$_ZTIN7testing8internal15TestFactoryImplI25Constructors_Default_TestEE,"dr"
	.linkonce same_size
	.align 8
_ZTIN7testing8internal15TestFactoryImplI25Constructors_Default_TestEE:
	.quad	_ZTVN10__cxxabiv120__si_class_type_infoE+16
	.quad	_ZTSN7testing8internal15TestFactoryImplI25Constructors_Default_TestEE
	.quad	_ZTIN7testing8internal15TestFactoryBaseE
	.globl	_ZTS22Constructors_Char_Test
	.section	.rdata$_ZTS22Constructors_Char_Test,"dr"
	.linkonce same_size
	.align 16
_ZTS22Constructors_Char_Test:
	.ascii "22Constructors_Char_Test\0"
	.globl	_ZTI22Constructors_Char_Test
	.section	.rdata$_ZTI22Constructors_Char_Test,"dr"
	.linkonce same_size
	.align 8
_ZTI22Constructors_Char_Test:
	.quad	_ZTVN10__cxxabiv120__si_class_type_infoE+16
	.quad	_ZTS22Constructors_Char_Test
	.quad	_ZTIN7testing4TestE
	.globl	_ZTSN7testing8internal15TestFactoryImplI22Constructors_Char_TestEE
	.section	.rdata$_ZTSN7testing8internal15TestFactoryImplI22Constructors_Char_TestEE,"dr"
	.linkonce same_size
	.align 32
_ZTSN7testing8internal15TestFactoryImplI22Constructors_Char_TestEE:
	.ascii "N7testing8internal15TestFactoryImplI22Constructors_Char_TestEE\0"
	.globl	_ZTIN7testing8internal15TestFactoryImplI22Constructors_Char_TestEE
	.section	.rdata$_ZTIN7testing8internal15TestFactoryImplI22Constructors_Char_TestEE,"dr"
	.linkonce same_size
	.align 8
_ZTIN7testing8internal15TestFactoryImplI22Constructors_Char_TestEE:
	.quad	_ZTVN10__cxxabiv120__si_class_type_infoE+16
	.quad	_ZTSN7testing8internal15TestFactoryImplI22Constructors_Char_TestEE
	.quad	_ZTIN7testing8internal15TestFactoryBaseE
	.globl	_ZTS24Constructors_string_Test
	.section	.rdata$_ZTS24Constructors_string_Test,"dr"
	.linkonce same_size
	.align 16
_ZTS24Constructors_string_Test:
	.ascii "24Constructors_string_Test\0"
	.globl	_ZTI24Constructors_string_Test
	.section	.rdata$_ZTI24Constructors_string_Test,"dr"
	.linkonce same_size
	.align 8
_ZTI24Constructors_string_Test:
	.quad	_ZTVN10__cxxabiv120__si_class_type_infoE+16
	.quad	_ZTS24Constructors_string_Test
	.quad	_ZTIN7testing4TestE
	.globl	_ZTSN7testing8internal15TestFactoryImplI24Constructors_string_TestEE
	.section	.rdata$_ZTSN7testing8internal15TestFactoryImplI24Constructors_string_TestEE,"dr"
	.linkonce same_size
	.align 32
_ZTSN7testing8internal15TestFactoryImplI24Constructors_string_TestEE:
	.ascii "N7testing8internal15TestFactoryImplI24Constructors_string_TestEE\0"
	.globl	_ZTIN7testing8internal15TestFactoryImplI24Constructors_string_TestEE
	.section	.rdata$_ZTIN7testing8internal15TestFactoryImplI24Constructors_string_TestEE,"dr"
	.linkonce same_size
	.align 8
_ZTIN7testing8internal15TestFactoryImplI24Constructors_string_TestEE:
	.quad	_ZTVN10__cxxabiv120__si_class_type_infoE+16
	.quad	_ZTSN7testing8internal15TestFactoryImplI24Constructors_string_TestEE
	.quad	_ZTIN7testing8internal15TestFactoryBaseE
	.globl	_ZTS26Constructors_String20_Test
	.section	.rdata$_ZTS26Constructors_String20_Test,"dr"
	.linkonce same_size
	.align 16
_ZTS26Constructors_String20_Test:
	.ascii "26Constructors_String20_Test\0"
	.globl	_ZTI26Constructors_String20_Test
	.section	.rdata$_ZTI26Constructors_String20_Test,"dr"
	.linkonce same_size
	.align 8
_ZTI26Constructors_String20_Test:
	.quad	_ZTVN10__cxxabiv120__si_class_type_infoE+16
	.quad	_ZTS26Constructors_String20_Test
	.quad	_ZTIN7testing4TestE
	.globl	_ZTSN7testing8internal15TestFactoryImplI26Constructors_String20_TestEE
	.section	.rdata$_ZTSN7testing8internal15TestFactoryImplI26Constructors_String20_TestEE,"dr"
	.linkonce same_size
	.align 32
_ZTSN7testing8internal15TestFactoryImplI26Constructors_String20_TestEE:
	.ascii "N7testing8internal15TestFactoryImplI26Constructors_String20_TestEE\0"
	.globl	_ZTIN7testing8internal15TestFactoryImplI26Constructors_String20_TestEE
	.section	.rdata$_ZTIN7testing8internal15TestFactoryImplI26Constructors_String20_TestEE,"dr"
	.linkonce same_size
	.align 8
_ZTIN7testing8internal15TestFactoryImplI26Constructors_String20_TestEE:
	.quad	_ZTVN10__cxxabiv120__si_class_type_infoE+16
	.quad	_ZTSN7testing8internal15TestFactoryImplI26Constructors_String20_TestEE
	.quad	_ZTIN7testing8internal15TestFactoryBaseE
	.globl	_ZTS18Assign_string_Test
	.section	.rdata$_ZTS18Assign_string_Test,"dr"
	.linkonce same_size
	.align 16
_ZTS18Assign_string_Test:
	.ascii "18Assign_string_Test\0"
	.globl	_ZTI18Assign_string_Test
	.section	.rdata$_ZTI18Assign_string_Test,"dr"
	.linkonce same_size
	.align 8
_ZTI18Assign_string_Test:
	.quad	_ZTVN10__cxxabiv120__si_class_type_infoE+16
	.quad	_ZTS18Assign_string_Test
	.quad	_ZTIN7testing4TestE
	.globl	_ZTSN7testing8internal15TestFactoryImplI18Assign_string_TestEE
	.section	.rdata$_ZTSN7testing8internal15TestFactoryImplI18Assign_string_TestEE,"dr"
	.linkonce same_size
	.align 32
_ZTSN7testing8internal15TestFactoryImplI18Assign_string_TestEE:
	.ascii "N7testing8internal15TestFactoryImplI18Assign_string_TestEE\0"
	.globl	_ZTIN7testing8internal15TestFactoryImplI18Assign_string_TestEE
	.section	.rdata$_ZTIN7testing8internal15TestFactoryImplI18Assign_string_TestEE,"dr"
	.linkonce same_size
	.align 8
_ZTIN7testing8internal15TestFactoryImplI18Assign_string_TestEE:
	.quad	_ZTVN10__cxxabiv120__si_class_type_infoE+16
	.quad	_ZTSN7testing8internal15TestFactoryImplI18Assign_string_TestEE
	.quad	_ZTIN7testing8internal15TestFactoryBaseE
	.globl	_ZTS20Assign_string20_Test
	.section	.rdata$_ZTS20Assign_string20_Test,"dr"
	.linkonce same_size
	.align 16
_ZTS20Assign_string20_Test:
	.ascii "20Assign_string20_Test\0"
	.globl	_ZTI20Assign_string20_Test
	.section	.rdata$_ZTI20Assign_string20_Test,"dr"
	.linkonce same_size
	.align 8
_ZTI20Assign_string20_Test:
	.quad	_ZTVN10__cxxabiv120__si_class_type_infoE+16
	.quad	_ZTS20Assign_string20_Test
	.quad	_ZTIN7testing4TestE
	.globl	_ZTSN7testing8internal15TestFactoryImplI20Assign_string20_TestEE
	.section	.rdata$_ZTSN7testing8internal15TestFactoryImplI20Assign_string20_TestEE,"dr"
	.linkonce same_size
	.align 32
_ZTSN7testing8internal15TestFactoryImplI20Assign_string20_TestEE:
	.ascii "N7testing8internal15TestFactoryImplI20Assign_string20_TestEE\0"
	.globl	_ZTIN7testing8internal15TestFactoryImplI20Assign_string20_TestEE
	.section	.rdata$_ZTIN7testing8internal15TestFactoryImplI20Assign_string20_TestEE,"dr"
	.linkonce same_size
	.align 8
_ZTIN7testing8internal15TestFactoryImplI20Assign_string20_TestEE:
	.quad	_ZTVN10__cxxabiv120__si_class_type_infoE+16
	.quad	_ZTSN7testing8internal15TestFactoryImplI20Assign_string20_TestEE
	.quad	_ZTIN7testing8internal15TestFactoryBaseE
	.globl	_ZTS16Assign_Char_Test
	.section	.rdata$_ZTS16Assign_Char_Test,"dr"
	.linkonce same_size
	.align 16
_ZTS16Assign_Char_Test:
	.ascii "16Assign_Char_Test\0"
	.globl	_ZTI16Assign_Char_Test
	.section	.rdata$_ZTI16Assign_Char_Test,"dr"
	.linkonce same_size
	.align 8
_ZTI16Assign_Char_Test:
	.quad	_ZTVN10__cxxabiv120__si_class_type_infoE+16
	.quad	_ZTS16Assign_Char_Test
	.quad	_ZTIN7testing4TestE
	.globl	_ZTSN7testing8internal15TestFactoryImplI16Assign_Char_TestEE
	.section	.rdata$_ZTSN7testing8internal15TestFactoryImplI16Assign_Char_TestEE,"dr"
	.linkonce same_size
	.align 32
_ZTSN7testing8internal15TestFactoryImplI16Assign_Char_TestEE:
	.ascii "N7testing8internal15TestFactoryImplI16Assign_Char_TestEE\0"
	.globl	_ZTIN7testing8internal15TestFactoryImplI16Assign_Char_TestEE
	.section	.rdata$_ZTIN7testing8internal15TestFactoryImplI16Assign_Char_TestEE,"dr"
	.linkonce same_size
	.align 8
_ZTIN7testing8internal15TestFactoryImplI16Assign_Char_TestEE:
	.quad	_ZTVN10__cxxabiv120__si_class_type_infoE+16
	.quad	_ZTSN7testing8internal15TestFactoryImplI16Assign_Char_TestEE
	.quad	_ZTIN7testing8internal15TestFactoryBaseE
	.globl	_ZTS20Append_string20_Test
	.section	.rdata$_ZTS20Append_string20_Test,"dr"
	.linkonce same_size
	.align 16
_ZTS20Append_string20_Test:
	.ascii "20Append_string20_Test\0"
	.globl	_ZTI20Append_string20_Test
	.section	.rdata$_ZTI20Append_string20_Test,"dr"
	.linkonce same_size
	.align 8
_ZTI20Append_string20_Test:
	.quad	_ZTVN10__cxxabiv120__si_class_type_infoE+16
	.quad	_ZTS20Append_string20_Test
	.quad	_ZTIN7testing4TestE
	.globl	_ZTSN7testing8internal15TestFactoryImplI20Append_string20_TestEE
	.section	.rdata$_ZTSN7testing8internal15TestFactoryImplI20Append_string20_TestEE,"dr"
	.linkonce same_size
	.align 32
_ZTSN7testing8internal15TestFactoryImplI20Append_string20_TestEE:
	.ascii "N7testing8internal15TestFactoryImplI20Append_string20_TestEE\0"
	.globl	_ZTIN7testing8internal15TestFactoryImplI20Append_string20_TestEE
	.section	.rdata$_ZTIN7testing8internal15TestFactoryImplI20Append_string20_TestEE,"dr"
	.linkonce same_size
	.align 8
_ZTIN7testing8internal15TestFactoryImplI20Append_string20_TestEE:
	.quad	_ZTVN10__cxxabiv120__si_class_type_infoE+16
	.quad	_ZTSN7testing8internal15TestFactoryImplI20Append_string20_TestEE
	.quad	_ZTIN7testing8internal15TestFactoryBaseE
	.globl	_ZTS16Append_Char_Test
	.section	.rdata$_ZTS16Append_Char_Test,"dr"
	.linkonce same_size
	.align 16
_ZTS16Append_Char_Test:
	.ascii "16Append_Char_Test\0"
	.globl	_ZTI16Append_Char_Test
	.section	.rdata$_ZTI16Append_Char_Test,"dr"
	.linkonce same_size
	.align 8
_ZTI16Append_Char_Test:
	.quad	_ZTVN10__cxxabiv120__si_class_type_infoE+16
	.quad	_ZTS16Append_Char_Test
	.quad	_ZTIN7testing4TestE
	.globl	_ZTSN7testing8internal15TestFactoryImplI16Append_Char_TestEE
	.section	.rdata$_ZTSN7testing8internal15TestFactoryImplI16Append_Char_TestEE,"dr"
	.linkonce same_size
	.align 32
_ZTSN7testing8internal15TestFactoryImplI16Append_Char_TestEE:
	.ascii "N7testing8internal15TestFactoryImplI16Append_Char_TestEE\0"
	.globl	_ZTIN7testing8internal15TestFactoryImplI16Append_Char_TestEE
	.section	.rdata$_ZTIN7testing8internal15TestFactoryImplI16Append_Char_TestEE,"dr"
	.linkonce same_size
	.align 8
_ZTIN7testing8internal15TestFactoryImplI16Append_Char_TestEE:
	.quad	_ZTVN10__cxxabiv120__si_class_type_infoE+16
	.quad	_ZTSN7testing8internal15TestFactoryImplI16Append_Char_TestEE
	.quad	_ZTIN7testing8internal15TestFactoryBaseE
	.globl	_ZTS18Append_string_Test
	.section	.rdata$_ZTS18Append_string_Test,"dr"
	.linkonce same_size
	.align 16
_ZTS18Append_string_Test:
	.ascii "18Append_string_Test\0"
	.globl	_ZTI18Append_string_Test
	.section	.rdata$_ZTI18Append_string_Test,"dr"
	.linkonce same_size
	.align 8
_ZTI18Append_string_Test:
	.quad	_ZTVN10__cxxabiv120__si_class_type_infoE+16
	.quad	_ZTS18Append_string_Test
	.quad	_ZTIN7testing4TestE
	.globl	_ZTSN7testing8internal15TestFactoryImplI18Append_string_TestEE
	.section	.rdata$_ZTSN7testing8internal15TestFactoryImplI18Append_string_TestEE,"dr"
	.linkonce same_size
	.align 32
_ZTSN7testing8internal15TestFactoryImplI18Append_string_TestEE:
	.ascii "N7testing8internal15TestFactoryImplI18Append_string_TestEE\0"
	.globl	_ZTIN7testing8internal15TestFactoryImplI18Append_string_TestEE
	.section	.rdata$_ZTIN7testing8internal15TestFactoryImplI18Append_string_TestEE,"dr"
	.linkonce same_size
	.align 8
_ZTIN7testing8internal15TestFactoryImplI18Append_string_TestEE:
	.quad	_ZTVN10__cxxabiv120__si_class_type_infoE+16
	.quad	_ZTSN7testing8internal15TestFactoryImplI18Append_string_TestEE
	.quad	_ZTIN7testing8internal15TestFactoryBaseE
	.globl	_ZTS17Add_string20_Test
	.section	.rdata$_ZTS17Add_string20_Test,"dr"
	.linkonce same_size
	.align 16
_ZTS17Add_string20_Test:
	.ascii "17Add_string20_Test\0"
	.globl	_ZTI17Add_string20_Test
	.section	.rdata$_ZTI17Add_string20_Test,"dr"
	.linkonce same_size
	.align 8
_ZTI17Add_string20_Test:
	.quad	_ZTVN10__cxxabiv120__si_class_type_infoE+16
	.quad	_ZTS17Add_string20_Test
	.quad	_ZTIN7testing4TestE
	.globl	_ZTSN7testing8internal15TestFactoryImplI17Add_string20_TestEE
	.section	.rdata$_ZTSN7testing8internal15TestFactoryImplI17Add_string20_TestEE,"dr"
	.linkonce same_size
	.align 32
_ZTSN7testing8internal15TestFactoryImplI17Add_string20_TestEE:
	.ascii "N7testing8internal15TestFactoryImplI17Add_string20_TestEE\0"
	.globl	_ZTIN7testing8internal15TestFactoryImplI17Add_string20_TestEE
	.section	.rdata$_ZTIN7testing8internal15TestFactoryImplI17Add_string20_TestEE,"dr"
	.linkonce same_size
	.align 8
_ZTIN7testing8internal15TestFactoryImplI17Add_string20_TestEE:
	.quad	_ZTVN10__cxxabiv120__si_class_type_infoE+16
	.quad	_ZTSN7testing8internal15TestFactoryImplI17Add_string20_TestEE
	.quad	_ZTIN7testing8internal15TestFactoryBaseE
	.globl	_ZTS13Add_Char_Test
	.section	.rdata$_ZTS13Add_Char_Test,"dr"
	.linkonce same_size
	.align 16
_ZTS13Add_Char_Test:
	.ascii "13Add_Char_Test\0"
	.globl	_ZTI13Add_Char_Test
	.section	.rdata$_ZTI13Add_Char_Test,"dr"
	.linkonce same_size
	.align 8
_ZTI13Add_Char_Test:
	.quad	_ZTVN10__cxxabiv120__si_class_type_infoE+16
	.quad	_ZTS13Add_Char_Test
	.quad	_ZTIN7testing4TestE
	.globl	_ZTSN7testing8internal15TestFactoryImplI13Add_Char_TestEE
	.section	.rdata$_ZTSN7testing8internal15TestFactoryImplI13Add_Char_TestEE,"dr"
	.linkonce same_size
	.align 32
_ZTSN7testing8internal15TestFactoryImplI13Add_Char_TestEE:
	.ascii "N7testing8internal15TestFactoryImplI13Add_Char_TestEE\0"
	.globl	_ZTIN7testing8internal15TestFactoryImplI13Add_Char_TestEE
	.section	.rdata$_ZTIN7testing8internal15TestFactoryImplI13Add_Char_TestEE,"dr"
	.linkonce same_size
	.align 8
_ZTIN7testing8internal15TestFactoryImplI13Add_Char_TestEE:
	.quad	_ZTVN10__cxxabiv120__si_class_type_infoE+16
	.quad	_ZTSN7testing8internal15TestFactoryImplI13Add_Char_TestEE
	.quad	_ZTIN7testing8internal15TestFactoryBaseE
	.globl	_ZTS15Add_string_Test
	.section	.rdata$_ZTS15Add_string_Test,"dr"
	.linkonce same_size
	.align 16
_ZTS15Add_string_Test:
	.ascii "15Add_string_Test\0"
	.globl	_ZTI15Add_string_Test
	.section	.rdata$_ZTI15Add_string_Test,"dr"
	.linkonce same_size
	.align 8
_ZTI15Add_string_Test:
	.quad	_ZTVN10__cxxabiv120__si_class_type_infoE+16
	.quad	_ZTS15Add_string_Test
	.quad	_ZTIN7testing4TestE
	.globl	_ZTSN7testing8internal15TestFactoryImplI15Add_string_TestEE
	.section	.rdata$_ZTSN7testing8internal15TestFactoryImplI15Add_string_TestEE,"dr"
	.linkonce same_size
	.align 32
_ZTSN7testing8internal15TestFactoryImplI15Add_string_TestEE:
	.ascii "N7testing8internal15TestFactoryImplI15Add_string_TestEE\0"
	.globl	_ZTIN7testing8internal15TestFactoryImplI15Add_string_TestEE
	.section	.rdata$_ZTIN7testing8internal15TestFactoryImplI15Add_string_TestEE,"dr"
	.linkonce same_size
	.align 8
_ZTIN7testing8internal15TestFactoryImplI15Add_string_TestEE:
	.quad	_ZTVN10__cxxabiv120__si_class_type_infoE+16
	.quad	_ZTSN7testing8internal15TestFactoryImplI15Add_string_TestEE
	.quad	_ZTIN7testing8internal15TestFactoryBaseE
	.globl	_ZTS30Add_Char_String20_reverse_Test
	.section	.rdata$_ZTS30Add_Char_String20_reverse_Test,"dr"
	.linkonce same_size
	.align 32
_ZTS30Add_Char_String20_reverse_Test:
	.ascii "30Add_Char_String20_reverse_Test\0"
	.globl	_ZTI30Add_Char_String20_reverse_Test
	.section	.rdata$_ZTI30Add_Char_String20_reverse_Test,"dr"
	.linkonce same_size
	.align 8
_ZTI30Add_Char_String20_reverse_Test:
	.quad	_ZTVN10__cxxabiv120__si_class_type_infoE+16
	.quad	_ZTS30Add_Char_String20_reverse_Test
	.quad	_ZTIN7testing4TestE
	.globl	_ZTSN7testing8internal15TestFactoryImplI30Add_Char_String20_reverse_TestEE
	.section	.rdata$_ZTSN7testing8internal15TestFactoryImplI30Add_Char_String20_reverse_TestEE,"dr"
	.linkonce same_size
	.align 32
_ZTSN7testing8internal15TestFactoryImplI30Add_Char_String20_reverse_TestEE:
	.ascii "N7testing8internal15TestFactoryImplI30Add_Char_String20_reverse_TestEE\0"
	.globl	_ZTIN7testing8internal15TestFactoryImplI30Add_Char_String20_reverse_TestEE
	.section	.rdata$_ZTIN7testing8internal15TestFactoryImplI30Add_Char_String20_reverse_TestEE,"dr"
	.linkonce same_size
	.align 8
_ZTIN7testing8internal15TestFactoryImplI30Add_Char_String20_reverse_TestEE:
	.quad	_ZTVN10__cxxabiv120__si_class_type_infoE+16
	.quad	_ZTSN7testing8internal15TestFactoryImplI30Add_Char_String20_reverse_TestEE
	.quad	_ZTIN7testing8internal15TestFactoryBaseE
	.globl	_ZTS32Add_string_String20_reverse_Test
	.section	.rdata$_ZTS32Add_string_String20_reverse_Test,"dr"
	.linkonce same_size
	.align 32
_ZTS32Add_string_String20_reverse_Test:
	.ascii "32Add_string_String20_reverse_Test\0"
	.globl	_ZTI32Add_string_String20_reverse_Test
	.section	.rdata$_ZTI32Add_string_String20_reverse_Test,"dr"
	.linkonce same_size
	.align 8
_ZTI32Add_string_String20_reverse_Test:
	.quad	_ZTVN10__cxxabiv120__si_class_type_infoE+16
	.quad	_ZTS32Add_string_String20_reverse_Test
	.quad	_ZTIN7testing4TestE
	.globl	_ZTSN7testing8internal15TestFactoryImplI32Add_string_String20_reverse_TestEE
	.section	.rdata$_ZTSN7testing8internal15TestFactoryImplI32Add_string_String20_reverse_TestEE,"dr"
	.linkonce same_size
	.align 32
_ZTSN7testing8internal15TestFactoryImplI32Add_string_String20_reverse_TestEE:
	.ascii "N7testing8internal15TestFactoryImplI32Add_string_String20_reverse_TestEE\0"
	.globl	_ZTIN7testing8internal15TestFactoryImplI32Add_string_String20_reverse_TestEE
	.section	.rdata$_ZTIN7testing8internal15TestFactoryImplI32Add_string_String20_reverse_TestEE,"dr"
	.linkonce same_size
	.align 8
_ZTIN7testing8internal15TestFactoryImplI32Add_string_String20_reverse_TestEE:
	.quad	_ZTVN10__cxxabiv120__si_class_type_infoE+16
	.quad	_ZTSN7testing8internal15TestFactoryImplI32Add_string_String20_reverse_TestEE
	.quad	_ZTIN7testing8internal15TestFactoryBaseE
	.globl	_ZTS26Multiply_string20_int_Test
	.section	.rdata$_ZTS26Multiply_string20_int_Test,"dr"
	.linkonce same_size
	.align 16
_ZTS26Multiply_string20_int_Test:
	.ascii "26Multiply_string20_int_Test\0"
	.globl	_ZTI26Multiply_string20_int_Test
	.section	.rdata$_ZTI26Multiply_string20_int_Test,"dr"
	.linkonce same_size
	.align 8
_ZTI26Multiply_string20_int_Test:
	.quad	_ZTVN10__cxxabiv120__si_class_type_infoE+16
	.quad	_ZTS26Multiply_string20_int_Test
	.quad	_ZTIN7testing4TestE
	.globl	_ZTSN7testing8internal15TestFactoryImplI26Multiply_string20_int_TestEE
	.section	.rdata$_ZTSN7testing8internal15TestFactoryImplI26Multiply_string20_int_TestEE,"dr"
	.linkonce same_size
	.align 32
_ZTSN7testing8internal15TestFactoryImplI26Multiply_string20_int_TestEE:
	.ascii "N7testing8internal15TestFactoryImplI26Multiply_string20_int_TestEE\0"
	.globl	_ZTIN7testing8internal15TestFactoryImplI26Multiply_string20_int_TestEE
	.section	.rdata$_ZTIN7testing8internal15TestFactoryImplI26Multiply_string20_int_TestEE,"dr"
	.linkonce same_size
	.align 8
_ZTIN7testing8internal15TestFactoryImplI26Multiply_string20_int_TestEE:
	.quad	_ZTVN10__cxxabiv120__si_class_type_infoE+16
	.quad	_ZTSN7testing8internal15TestFactoryImplI26Multiply_string20_int_TestEE
	.quad	_ZTIN7testing8internal15TestFactoryBaseE
	.globl	_ZTS34Multiply_string20_int_reverse_Test
	.section	.rdata$_ZTS34Multiply_string20_int_reverse_Test,"dr"
	.linkonce same_size
	.align 32
_ZTS34Multiply_string20_int_reverse_Test:
	.ascii "34Multiply_string20_int_reverse_Test\0"
	.globl	_ZTI34Multiply_string20_int_reverse_Test
	.section	.rdata$_ZTI34Multiply_string20_int_reverse_Test,"dr"
	.linkonce same_size
	.align 8
_ZTI34Multiply_string20_int_reverse_Test:
	.quad	_ZTVN10__cxxabiv120__si_class_type_infoE+16
	.quad	_ZTS34Multiply_string20_int_reverse_Test
	.quad	_ZTIN7testing4TestE
	.globl	_ZTSN7testing8internal15TestFactoryImplI34Multiply_string20_int_reverse_TestEE
	.section	.rdata$_ZTSN7testing8internal15TestFactoryImplI34Multiply_string20_int_reverse_TestEE,"dr"
	.linkonce same_size
	.align 32
_ZTSN7testing8internal15TestFactoryImplI34Multiply_string20_int_reverse_TestEE:
	.ascii "N7testing8internal15TestFactoryImplI34Multiply_string20_int_reverse_TestEE\0"
	.globl	_ZTIN7testing8internal15TestFactoryImplI34Multiply_string20_int_reverse_TestEE
	.section	.rdata$_ZTIN7testing8internal15TestFactoryImplI34Multiply_string20_int_reverse_TestEE,"dr"
	.linkonce same_size
	.align 8
_ZTIN7testing8internal15TestFactoryImplI34Multiply_string20_int_reverse_TestEE:
	.quad	_ZTVN10__cxxabiv120__si_class_type_infoE+16
	.quad	_ZTSN7testing8internal15TestFactoryImplI34Multiply_string20_int_reverse_TestEE
	.quad	_ZTIN7testing8internal15TestFactoryBaseE
	.globl	_ZTS23Get_String20Length_Test
	.section	.rdata$_ZTS23Get_String20Length_Test,"dr"
	.linkonce same_size
	.align 16
_ZTS23Get_String20Length_Test:
	.ascii "23Get_String20Length_Test\0"
	.globl	_ZTI23Get_String20Length_Test
	.section	.rdata$_ZTI23Get_String20Length_Test,"dr"
	.linkonce same_size
	.align 8
_ZTI23Get_String20Length_Test:
	.quad	_ZTVN10__cxxabiv120__si_class_type_infoE+16
	.quad	_ZTS23Get_String20Length_Test
	.quad	_ZTIN7testing4TestE
	.globl	_ZTSN7testing8internal15TestFactoryImplI23Get_String20Length_TestEE
	.section	.rdata$_ZTSN7testing8internal15TestFactoryImplI23Get_String20Length_TestEE,"dr"
	.linkonce same_size
	.align 32
_ZTSN7testing8internal15TestFactoryImplI23Get_String20Length_TestEE:
	.ascii "N7testing8internal15TestFactoryImplI23Get_String20Length_TestEE\0"
	.globl	_ZTIN7testing8internal15TestFactoryImplI23Get_String20Length_TestEE
	.section	.rdata$_ZTIN7testing8internal15TestFactoryImplI23Get_String20Length_TestEE,"dr"
	.linkonce same_size
	.align 8
_ZTIN7testing8internal15TestFactoryImplI23Get_String20Length_TestEE:
	.quad	_ZTVN10__cxxabiv120__si_class_type_infoE+16
	.quad	_ZTSN7testing8internal15TestFactoryImplI23Get_String20Length_TestEE
	.quad	_ZTIN7testing8internal15TestFactoryBaseE
	.globl	_ZTS28Get_String20valueChange_Test
	.section	.rdata$_ZTS28Get_String20valueChange_Test,"dr"
	.linkonce same_size
	.align 16
_ZTS28Get_String20valueChange_Test:
	.ascii "28Get_String20valueChange_Test\0"
	.globl	_ZTI28Get_String20valueChange_Test
	.section	.rdata$_ZTI28Get_String20valueChange_Test,"dr"
	.linkonce same_size
	.align 8
_ZTI28Get_String20valueChange_Test:
	.quad	_ZTVN10__cxxabiv120__si_class_type_infoE+16
	.quad	_ZTS28Get_String20valueChange_Test
	.quad	_ZTIN7testing4TestE
	.globl	_ZTSN7testing8internal15TestFactoryImplI28Get_String20valueChange_TestEE
	.section	.rdata$_ZTSN7testing8internal15TestFactoryImplI28Get_String20valueChange_TestEE,"dr"
	.linkonce same_size
	.align 32
_ZTSN7testing8internal15TestFactoryImplI28Get_String20valueChange_TestEE:
	.ascii "N7testing8internal15TestFactoryImplI28Get_String20valueChange_TestEE\0"
	.globl	_ZTIN7testing8internal15TestFactoryImplI28Get_String20valueChange_TestEE
	.section	.rdata$_ZTIN7testing8internal15TestFactoryImplI28Get_String20valueChange_TestEE,"dr"
	.linkonce same_size
	.align 8
_ZTIN7testing8internal15TestFactoryImplI28Get_String20valueChange_TestEE:
	.quad	_ZTVN10__cxxabiv120__si_class_type_infoE+16
	.quad	_ZTSN7testing8internal15TestFactoryImplI28Get_String20valueChange_TestEE
	.quad	_ZTIN7testing8internal15TestFactoryBaseE
	.globl	_ZTS27Get_String20valueConst_Test
	.section	.rdata$_ZTS27Get_String20valueConst_Test,"dr"
	.linkonce same_size
	.align 16
_ZTS27Get_String20valueConst_Test:
	.ascii "27Get_String20valueConst_Test\0"
	.globl	_ZTI27Get_String20valueConst_Test
	.section	.rdata$_ZTI27Get_String20valueConst_Test,"dr"
	.linkonce same_size
	.align 8
_ZTI27Get_String20valueConst_Test:
	.quad	_ZTVN10__cxxabiv120__si_class_type_infoE+16
	.quad	_ZTS27Get_String20valueConst_Test
	.quad	_ZTIN7testing4TestE
	.globl	_ZTSN7testing8internal15TestFactoryImplI27Get_String20valueConst_TestEE
	.section	.rdata$_ZTSN7testing8internal15TestFactoryImplI27Get_String20valueConst_TestEE,"dr"
	.linkonce same_size
	.align 32
_ZTSN7testing8internal15TestFactoryImplI27Get_String20valueConst_TestEE:
	.ascii "N7testing8internal15TestFactoryImplI27Get_String20valueConst_TestEE\0"
	.globl	_ZTIN7testing8internal15TestFactoryImplI27Get_String20valueConst_TestEE
	.section	.rdata$_ZTIN7testing8internal15TestFactoryImplI27Get_String20valueConst_TestEE,"dr"
	.linkonce same_size
	.align 8
_ZTIN7testing8internal15TestFactoryImplI27Get_String20valueConst_TestEE:
	.quad	_ZTVN10__cxxabiv120__si_class_type_infoE+16
	.quad	_ZTSN7testing8internal15TestFactoryImplI27Get_String20valueConst_TestEE
	.quad	_ZTIN7testing8internal15TestFactoryBaseE
	.globl	_ZTVN7testing8internal15TestFactoryImplI25Constructors_Default_TestEE
	.section	.rdata$_ZTVN7testing8internal15TestFactoryImplI25Constructors_Default_TestEE,"dr"
	.linkonce same_size
	.align 8
_ZTVN7testing8internal15TestFactoryImplI25Constructors_Default_TestEE:
	.quad	0
	.quad	_ZTIN7testing8internal15TestFactoryImplI25Constructors_Default_TestEE
	.quad	_ZN7testing8internal15TestFactoryImplI25Constructors_Default_TestED1Ev
	.quad	_ZN7testing8internal15TestFactoryImplI25Constructors_Default_TestED0Ev
	.quad	_ZN7testing8internal15TestFactoryImplI25Constructors_Default_TestE10CreateTestEv
	.globl	_ZTV25Constructors_Default_Test
	.section	.rdata$_ZTV25Constructors_Default_Test,"dr"
	.linkonce same_size
	.align 8
_ZTV25Constructors_Default_Test:
	.quad	0
	.quad	_ZTI25Constructors_Default_Test
	.quad	_ZN25Constructors_Default_TestD1Ev
	.quad	_ZN25Constructors_Default_TestD0Ev
	.quad	_ZN7testing4Test5SetUpEv
	.quad	_ZN7testing4Test8TearDownEv
	.quad	_ZN25Constructors_Default_Test8TestBodyEv
	.quad	_ZN7testing4Test5SetupEv
	.globl	_ZTVN7testing8internal15TestFactoryImplI22Constructors_Char_TestEE
	.section	.rdata$_ZTVN7testing8internal15TestFactoryImplI22Constructors_Char_TestEE,"dr"
	.linkonce same_size
	.align 8
_ZTVN7testing8internal15TestFactoryImplI22Constructors_Char_TestEE:
	.quad	0
	.quad	_ZTIN7testing8internal15TestFactoryImplI22Constructors_Char_TestEE
	.quad	_ZN7testing8internal15TestFactoryImplI22Constructors_Char_TestED1Ev
	.quad	_ZN7testing8internal15TestFactoryImplI22Constructors_Char_TestED0Ev
	.quad	_ZN7testing8internal15TestFactoryImplI22Constructors_Char_TestE10CreateTestEv
	.globl	_ZTV22Constructors_Char_Test
	.section	.rdata$_ZTV22Constructors_Char_Test,"dr"
	.linkonce same_size
	.align 8
_ZTV22Constructors_Char_Test:
	.quad	0
	.quad	_ZTI22Constructors_Char_Test
	.quad	_ZN22Constructors_Char_TestD1Ev
	.quad	_ZN22Constructors_Char_TestD0Ev
	.quad	_ZN7testing4Test5SetUpEv
	.quad	_ZN7testing4Test8TearDownEv
	.quad	_ZN22Constructors_Char_Test8TestBodyEv
	.quad	_ZN7testing4Test5SetupEv
	.globl	_ZTVN7testing8internal15TestFactoryImplI24Constructors_string_TestEE
	.section	.rdata$_ZTVN7testing8internal15TestFactoryImplI24Constructors_string_TestEE,"dr"
	.linkonce same_size
	.align 8
_ZTVN7testing8internal15TestFactoryImplI24Constructors_string_TestEE:
	.quad	0
	.quad	_ZTIN7testing8internal15TestFactoryImplI24Constructors_string_TestEE
	.quad	_ZN7testing8internal15TestFactoryImplI24Constructors_string_TestED1Ev
	.quad	_ZN7testing8internal15TestFactoryImplI24Constructors_string_TestED0Ev
	.quad	_ZN7testing8internal15TestFactoryImplI24Constructors_string_TestE10CreateTestEv
	.globl	_ZTV24Constructors_string_Test
	.section	.rdata$_ZTV24Constructors_string_Test,"dr"
	.linkonce same_size
	.align 8
_ZTV24Constructors_string_Test:
	.quad	0
	.quad	_ZTI24Constructors_string_Test
	.quad	_ZN24Constructors_string_TestD1Ev
	.quad	_ZN24Constructors_string_TestD0Ev
	.quad	_ZN7testing4Test5SetUpEv
	.quad	_ZN7testing4Test8TearDownEv
	.quad	_ZN24Constructors_string_Test8TestBodyEv
	.quad	_ZN7testing4Test5SetupEv
	.globl	_ZTVN7testing8internal15TestFactoryImplI26Constructors_String20_TestEE
	.section	.rdata$_ZTVN7testing8internal15TestFactoryImplI26Constructors_String20_TestEE,"dr"
	.linkonce same_size
	.align 8
_ZTVN7testing8internal15TestFactoryImplI26Constructors_String20_TestEE:
	.quad	0
	.quad	_ZTIN7testing8internal15TestFactoryImplI26Constructors_String20_TestEE
	.quad	_ZN7testing8internal15TestFactoryImplI26Constructors_String20_TestED1Ev
	.quad	_ZN7testing8internal15TestFactoryImplI26Constructors_String20_TestED0Ev
	.quad	_ZN7testing8internal15TestFactoryImplI26Constructors_String20_TestE10CreateTestEv
	.globl	_ZTV26Constructors_String20_Test
	.section	.rdata$_ZTV26Constructors_String20_Test,"dr"
	.linkonce same_size
	.align 8
_ZTV26Constructors_String20_Test:
	.quad	0
	.quad	_ZTI26Constructors_String20_Test
	.quad	_ZN26Constructors_String20_TestD1Ev
	.quad	_ZN26Constructors_String20_TestD0Ev
	.quad	_ZN7testing4Test5SetUpEv
	.quad	_ZN7testing4Test8TearDownEv
	.quad	_ZN26Constructors_String20_Test8TestBodyEv
	.quad	_ZN7testing4Test5SetupEv
	.globl	_ZTVN7testing8internal15TestFactoryImplI18Assign_string_TestEE
	.section	.rdata$_ZTVN7testing8internal15TestFactoryImplI18Assign_string_TestEE,"dr"
	.linkonce same_size
	.align 8
_ZTVN7testing8internal15TestFactoryImplI18Assign_string_TestEE:
	.quad	0
	.quad	_ZTIN7testing8internal15TestFactoryImplI18Assign_string_TestEE
	.quad	_ZN7testing8internal15TestFactoryImplI18Assign_string_TestED1Ev
	.quad	_ZN7testing8internal15TestFactoryImplI18Assign_string_TestED0Ev
	.quad	_ZN7testing8internal15TestFactoryImplI18Assign_string_TestE10CreateTestEv
	.globl	_ZTV18Assign_string_Test
	.section	.rdata$_ZTV18Assign_string_Test,"dr"
	.linkonce same_size
	.align 8
_ZTV18Assign_string_Test:
	.quad	0
	.quad	_ZTI18Assign_string_Test
	.quad	_ZN18Assign_string_TestD1Ev
	.quad	_ZN18Assign_string_TestD0Ev
	.quad	_ZN7testing4Test5SetUpEv
	.quad	_ZN7testing4Test8TearDownEv
	.quad	_ZN18Assign_string_Test8TestBodyEv
	.quad	_ZN7testing4Test5SetupEv
	.globl	_ZTVN7testing8internal15TestFactoryImplI20Assign_string20_TestEE
	.section	.rdata$_ZTVN7testing8internal15TestFactoryImplI20Assign_string20_TestEE,"dr"
	.linkonce same_size
	.align 8
_ZTVN7testing8internal15TestFactoryImplI20Assign_string20_TestEE:
	.quad	0
	.quad	_ZTIN7testing8internal15TestFactoryImplI20Assign_string20_TestEE
	.quad	_ZN7testing8internal15TestFactoryImplI20Assign_string20_TestED1Ev
	.quad	_ZN7testing8internal15TestFactoryImplI20Assign_string20_TestED0Ev
	.quad	_ZN7testing8internal15TestFactoryImplI20Assign_string20_TestE10CreateTestEv
	.globl	_ZTV20Assign_string20_Test
	.section	.rdata$_ZTV20Assign_string20_Test,"dr"
	.linkonce same_size
	.align 8
_ZTV20Assign_string20_Test:
	.quad	0
	.quad	_ZTI20Assign_string20_Test
	.quad	_ZN20Assign_string20_TestD1Ev
	.quad	_ZN20Assign_string20_TestD0Ev
	.quad	_ZN7testing4Test5SetUpEv
	.quad	_ZN7testing4Test8TearDownEv
	.quad	_ZN20Assign_string20_Test8TestBodyEv
	.quad	_ZN7testing4Test5SetupEv
	.globl	_ZTVN7testing8internal15TestFactoryImplI16Assign_Char_TestEE
	.section	.rdata$_ZTVN7testing8internal15TestFactoryImplI16Assign_Char_TestEE,"dr"
	.linkonce same_size
	.align 8
_ZTVN7testing8internal15TestFactoryImplI16Assign_Char_TestEE:
	.quad	0
	.quad	_ZTIN7testing8internal15TestFactoryImplI16Assign_Char_TestEE
	.quad	_ZN7testing8internal15TestFactoryImplI16Assign_Char_TestED1Ev
	.quad	_ZN7testing8internal15TestFactoryImplI16Assign_Char_TestED0Ev
	.quad	_ZN7testing8internal15TestFactoryImplI16Assign_Char_TestE10CreateTestEv
	.globl	_ZTV16Assign_Char_Test
	.section	.rdata$_ZTV16Assign_Char_Test,"dr"
	.linkonce same_size
	.align 8
_ZTV16Assign_Char_Test:
	.quad	0
	.quad	_ZTI16Assign_Char_Test
	.quad	_ZN16Assign_Char_TestD1Ev
	.quad	_ZN16Assign_Char_TestD0Ev
	.quad	_ZN7testing4Test5SetUpEv
	.quad	_ZN7testing4Test8TearDownEv
	.quad	_ZN16Assign_Char_Test8TestBodyEv
	.quad	_ZN7testing4Test5SetupEv
	.globl	_ZTVN7testing8internal15TestFactoryImplI20Append_string20_TestEE
	.section	.rdata$_ZTVN7testing8internal15TestFactoryImplI20Append_string20_TestEE,"dr"
	.linkonce same_size
	.align 8
_ZTVN7testing8internal15TestFactoryImplI20Append_string20_TestEE:
	.quad	0
	.quad	_ZTIN7testing8internal15TestFactoryImplI20Append_string20_TestEE
	.quad	_ZN7testing8internal15TestFactoryImplI20Append_string20_TestED1Ev
	.quad	_ZN7testing8internal15TestFactoryImplI20Append_string20_TestED0Ev
	.quad	_ZN7testing8internal15TestFactoryImplI20Append_string20_TestE10CreateTestEv
	.globl	_ZTV20Append_string20_Test
	.section	.rdata$_ZTV20Append_string20_Test,"dr"
	.linkonce same_size
	.align 8
_ZTV20Append_string20_Test:
	.quad	0
	.quad	_ZTI20Append_string20_Test
	.quad	_ZN20Append_string20_TestD1Ev
	.quad	_ZN20Append_string20_TestD0Ev
	.quad	_ZN7testing4Test5SetUpEv
	.quad	_ZN7testing4Test8TearDownEv
	.quad	_ZN20Append_string20_Test8TestBodyEv
	.quad	_ZN7testing4Test5SetupEv
	.globl	_ZTVN7testing8internal15TestFactoryImplI16Append_Char_TestEE
	.section	.rdata$_ZTVN7testing8internal15TestFactoryImplI16Append_Char_TestEE,"dr"
	.linkonce same_size
	.align 8
_ZTVN7testing8internal15TestFactoryImplI16Append_Char_TestEE:
	.quad	0
	.quad	_ZTIN7testing8internal15TestFactoryImplI16Append_Char_TestEE
	.quad	_ZN7testing8internal15TestFactoryImplI16Append_Char_TestED1Ev
	.quad	_ZN7testing8internal15TestFactoryImplI16Append_Char_TestED0Ev
	.quad	_ZN7testing8internal15TestFactoryImplI16Append_Char_TestE10CreateTestEv
	.globl	_ZTV16Append_Char_Test
	.section	.rdata$_ZTV16Append_Char_Test,"dr"
	.linkonce same_size
	.align 8
_ZTV16Append_Char_Test:
	.quad	0
	.quad	_ZTI16Append_Char_Test
	.quad	_ZN16Append_Char_TestD1Ev
	.quad	_ZN16Append_Char_TestD0Ev
	.quad	_ZN7testing4Test5SetUpEv
	.quad	_ZN7testing4Test8TearDownEv
	.quad	_ZN16Append_Char_Test8TestBodyEv
	.quad	_ZN7testing4Test5SetupEv
	.globl	_ZTVN7testing8internal15TestFactoryImplI18Append_string_TestEE
	.section	.rdata$_ZTVN7testing8internal15TestFactoryImplI18Append_string_TestEE,"dr"
	.linkonce same_size
	.align 8
_ZTVN7testing8internal15TestFactoryImplI18Append_string_TestEE:
	.quad	0
	.quad	_ZTIN7testing8internal15TestFactoryImplI18Append_string_TestEE
	.quad	_ZN7testing8internal15TestFactoryImplI18Append_string_TestED1Ev
	.quad	_ZN7testing8internal15TestFactoryImplI18Append_string_TestED0Ev
	.quad	_ZN7testing8internal15TestFactoryImplI18Append_string_TestE10CreateTestEv
	.globl	_ZTV18Append_string_Test
	.section	.rdata$_ZTV18Append_string_Test,"dr"
	.linkonce same_size
	.align 8
_ZTV18Append_string_Test:
	.quad	0
	.quad	_ZTI18Append_string_Test
	.quad	_ZN18Append_string_TestD1Ev
	.quad	_ZN18Append_string_TestD0Ev
	.quad	_ZN7testing4Test5SetUpEv
	.quad	_ZN7testing4Test8TearDownEv
	.quad	_ZN18Append_string_Test8TestBodyEv
	.quad	_ZN7testing4Test5SetupEv
	.globl	_ZTVN7testing8internal15TestFactoryImplI17Add_string20_TestEE
	.section	.rdata$_ZTVN7testing8internal15TestFactoryImplI17Add_string20_TestEE,"dr"
	.linkonce same_size
	.align 8
_ZTVN7testing8internal15TestFactoryImplI17Add_string20_TestEE:
	.quad	0
	.quad	_ZTIN7testing8internal15TestFactoryImplI17Add_string20_TestEE
	.quad	_ZN7testing8internal15TestFactoryImplI17Add_string20_TestED1Ev
	.quad	_ZN7testing8internal15TestFactoryImplI17Add_string20_TestED0Ev
	.quad	_ZN7testing8internal15TestFactoryImplI17Add_string20_TestE10CreateTestEv
	.globl	_ZTV17Add_string20_Test
	.section	.rdata$_ZTV17Add_string20_Test,"dr"
	.linkonce same_size
	.align 8
_ZTV17Add_string20_Test:
	.quad	0
	.quad	_ZTI17Add_string20_Test
	.quad	_ZN17Add_string20_TestD1Ev
	.quad	_ZN17Add_string20_TestD0Ev
	.quad	_ZN7testing4Test5SetUpEv
	.quad	_ZN7testing4Test8TearDownEv
	.quad	_ZN17Add_string20_Test8TestBodyEv
	.quad	_ZN7testing4Test5SetupEv
	.globl	_ZTVN7testing8internal15TestFactoryImplI13Add_Char_TestEE
	.section	.rdata$_ZTVN7testing8internal15TestFactoryImplI13Add_Char_TestEE,"dr"
	.linkonce same_size
	.align 8
_ZTVN7testing8internal15TestFactoryImplI13Add_Char_TestEE:
	.quad	0
	.quad	_ZTIN7testing8internal15TestFactoryImplI13Add_Char_TestEE
	.quad	_ZN7testing8internal15TestFactoryImplI13Add_Char_TestED1Ev
	.quad	_ZN7testing8internal15TestFactoryImplI13Add_Char_TestED0Ev
	.quad	_ZN7testing8internal15TestFactoryImplI13Add_Char_TestE10CreateTestEv
	.globl	_ZTV13Add_Char_Test
	.section	.rdata$_ZTV13Add_Char_Test,"dr"
	.linkonce same_size
	.align 8
_ZTV13Add_Char_Test:
	.quad	0
	.quad	_ZTI13Add_Char_Test
	.quad	_ZN13Add_Char_TestD1Ev
	.quad	_ZN13Add_Char_TestD0Ev
	.quad	_ZN7testing4Test5SetUpEv
	.quad	_ZN7testing4Test8TearDownEv
	.quad	_ZN13Add_Char_Test8TestBodyEv
	.quad	_ZN7testing4Test5SetupEv
	.globl	_ZTVN7testing8internal15TestFactoryImplI15Add_string_TestEE
	.section	.rdata$_ZTVN7testing8internal15TestFactoryImplI15Add_string_TestEE,"dr"
	.linkonce same_size
	.align 8
_ZTVN7testing8internal15TestFactoryImplI15Add_string_TestEE:
	.quad	0
	.quad	_ZTIN7testing8internal15TestFactoryImplI15Add_string_TestEE
	.quad	_ZN7testing8internal15TestFactoryImplI15Add_string_TestED1Ev
	.quad	_ZN7testing8internal15TestFactoryImplI15Add_string_TestED0Ev
	.quad	_ZN7testing8internal15TestFactoryImplI15Add_string_TestE10CreateTestEv
	.globl	_ZTV15Add_string_Test
	.section	.rdata$_ZTV15Add_string_Test,"dr"
	.linkonce same_size
	.align 8
_ZTV15Add_string_Test:
	.quad	0
	.quad	_ZTI15Add_string_Test
	.quad	_ZN15Add_string_TestD1Ev
	.quad	_ZN15Add_string_TestD0Ev
	.quad	_ZN7testing4Test5SetUpEv
	.quad	_ZN7testing4Test8TearDownEv
	.quad	_ZN15Add_string_Test8TestBodyEv
	.quad	_ZN7testing4Test5SetupEv
	.globl	_ZTVN7testing8internal15TestFactoryImplI30Add_Char_String20_reverse_TestEE
	.section	.rdata$_ZTVN7testing8internal15TestFactoryImplI30Add_Char_String20_reverse_TestEE,"dr"
	.linkonce same_size
	.align 8
_ZTVN7testing8internal15TestFactoryImplI30Add_Char_String20_reverse_TestEE:
	.quad	0
	.quad	_ZTIN7testing8internal15TestFactoryImplI30Add_Char_String20_reverse_TestEE
	.quad	_ZN7testing8internal15TestFactoryImplI30Add_Char_String20_reverse_TestED1Ev
	.quad	_ZN7testing8internal15TestFactoryImplI30Add_Char_String20_reverse_TestED0Ev
	.quad	_ZN7testing8internal15TestFactoryImplI30Add_Char_String20_reverse_TestE10CreateTestEv
	.globl	_ZTV30Add_Char_String20_reverse_Test
	.section	.rdata$_ZTV30Add_Char_String20_reverse_Test,"dr"
	.linkonce same_size
	.align 8
_ZTV30Add_Char_String20_reverse_Test:
	.quad	0
	.quad	_ZTI30Add_Char_String20_reverse_Test
	.quad	_ZN30Add_Char_String20_reverse_TestD1Ev
	.quad	_ZN30Add_Char_String20_reverse_TestD0Ev
	.quad	_ZN7testing4Test5SetUpEv
	.quad	_ZN7testing4Test8TearDownEv
	.quad	_ZN30Add_Char_String20_reverse_Test8TestBodyEv
	.quad	_ZN7testing4Test5SetupEv
	.globl	_ZTVN7testing8internal15TestFactoryImplI32Add_string_String20_reverse_TestEE
	.section	.rdata$_ZTVN7testing8internal15TestFactoryImplI32Add_string_String20_reverse_TestEE,"dr"
	.linkonce same_size
	.align 8
_ZTVN7testing8internal15TestFactoryImplI32Add_string_String20_reverse_TestEE:
	.quad	0
	.quad	_ZTIN7testing8internal15TestFactoryImplI32Add_string_String20_reverse_TestEE
	.quad	_ZN7testing8internal15TestFactoryImplI32Add_string_String20_reverse_TestED1Ev
	.quad	_ZN7testing8internal15TestFactoryImplI32Add_string_String20_reverse_TestED0Ev
	.quad	_ZN7testing8internal15TestFactoryImplI32Add_string_String20_reverse_TestE10CreateTestEv
	.globl	_ZTV32Add_string_String20_reverse_Test
	.section	.rdata$_ZTV32Add_string_String20_reverse_Test,"dr"
	.linkonce same_size
	.align 8
_ZTV32Add_string_String20_reverse_Test:
	.quad	0
	.quad	_ZTI32Add_string_String20_reverse_Test
	.quad	_ZN32Add_string_String20_reverse_TestD1Ev
	.quad	_ZN32Add_string_String20_reverse_TestD0Ev
	.quad	_ZN7testing4Test5SetUpEv
	.quad	_ZN7testing4Test8TearDownEv
	.quad	_ZN32Add_string_String20_reverse_Test8TestBodyEv
	.quad	_ZN7testing4Test5SetupEv
	.globl	_ZTVN7testing8internal15TestFactoryImplI26Multiply_string20_int_TestEE
	.section	.rdata$_ZTVN7testing8internal15TestFactoryImplI26Multiply_string20_int_TestEE,"dr"
	.linkonce same_size
	.align 8
_ZTVN7testing8internal15TestFactoryImplI26Multiply_string20_int_TestEE:
	.quad	0
	.quad	_ZTIN7testing8internal15TestFactoryImplI26Multiply_string20_int_TestEE
	.quad	_ZN7testing8internal15TestFactoryImplI26Multiply_string20_int_TestED1Ev
	.quad	_ZN7testing8internal15TestFactoryImplI26Multiply_string20_int_TestED0Ev
	.quad	_ZN7testing8internal15TestFactoryImplI26Multiply_string20_int_TestE10CreateTestEv
	.globl	_ZTV26Multiply_string20_int_Test
	.section	.rdata$_ZTV26Multiply_string20_int_Test,"dr"
	.linkonce same_size
	.align 8
_ZTV26Multiply_string20_int_Test:
	.quad	0
	.quad	_ZTI26Multiply_string20_int_Test
	.quad	_ZN26Multiply_string20_int_TestD1Ev
	.quad	_ZN26Multiply_string20_int_TestD0Ev
	.quad	_ZN7testing4Test5SetUpEv
	.quad	_ZN7testing4Test8TearDownEv
	.quad	_ZN26Multiply_string20_int_Test8TestBodyEv
	.quad	_ZN7testing4Test5SetupEv
	.globl	_ZTVN7testing8internal15TestFactoryImplI34Multiply_string20_int_reverse_TestEE
	.section	.rdata$_ZTVN7testing8internal15TestFactoryImplI34Multiply_string20_int_reverse_TestEE,"dr"
	.linkonce same_size
	.align 8
_ZTVN7testing8internal15TestFactoryImplI34Multiply_string20_int_reverse_TestEE:
	.quad	0
	.quad	_ZTIN7testing8internal15TestFactoryImplI34Multiply_string20_int_reverse_TestEE
	.quad	_ZN7testing8internal15TestFactoryImplI34Multiply_string20_int_reverse_TestED1Ev
	.quad	_ZN7testing8internal15TestFactoryImplI34Multiply_string20_int_reverse_TestED0Ev
	.quad	_ZN7testing8internal15TestFactoryImplI34Multiply_string20_int_reverse_TestE10CreateTestEv
	.globl	_ZTV34Multiply_string20_int_reverse_Test
	.section	.rdata$_ZTV34Multiply_string20_int_reverse_Test,"dr"
	.linkonce same_size
	.align 8
_ZTV34Multiply_string20_int_reverse_Test:
	.quad	0
	.quad	_ZTI34Multiply_string20_int_reverse_Test
	.quad	_ZN34Multiply_string20_int_reverse_TestD1Ev
	.quad	_ZN34Multiply_string20_int_reverse_TestD0Ev
	.quad	_ZN7testing4Test5SetUpEv
	.quad	_ZN7testing4Test8TearDownEv
	.quad	_ZN34Multiply_string20_int_reverse_Test8TestBodyEv
	.quad	_ZN7testing4Test5SetupEv
	.globl	_ZTVN7testing8internal15TestFactoryImplI23Get_String20Length_TestEE
	.section	.rdata$_ZTVN7testing8internal15TestFactoryImplI23Get_String20Length_TestEE,"dr"
	.linkonce same_size
	.align 8
_ZTVN7testing8internal15TestFactoryImplI23Get_String20Length_TestEE:
	.quad	0
	.quad	_ZTIN7testing8internal15TestFactoryImplI23Get_String20Length_TestEE
	.quad	_ZN7testing8internal15TestFactoryImplI23Get_String20Length_TestED1Ev
	.quad	_ZN7testing8internal15TestFactoryImplI23Get_String20Length_TestED0Ev
	.quad	_ZN7testing8internal15TestFactoryImplI23Get_String20Length_TestE10CreateTestEv
	.globl	_ZTV23Get_String20Length_Test
	.section	.rdata$_ZTV23Get_String20Length_Test,"dr"
	.linkonce same_size
	.align 8
_ZTV23Get_String20Length_Test:
	.quad	0
	.quad	_ZTI23Get_String20Length_Test
	.quad	_ZN23Get_String20Length_TestD1Ev
	.quad	_ZN23Get_String20Length_TestD0Ev
	.quad	_ZN7testing4Test5SetUpEv
	.quad	_ZN7testing4Test8TearDownEv
	.quad	_ZN23Get_String20Length_Test8TestBodyEv
	.quad	_ZN7testing4Test5SetupEv
	.globl	_ZTVN7testing8internal15TestFactoryImplI28Get_String20valueChange_TestEE
	.section	.rdata$_ZTVN7testing8internal15TestFactoryImplI28Get_String20valueChange_TestEE,"dr"
	.linkonce same_size
	.align 8
_ZTVN7testing8internal15TestFactoryImplI28Get_String20valueChange_TestEE:
	.quad	0
	.quad	_ZTIN7testing8internal15TestFactoryImplI28Get_String20valueChange_TestEE
	.quad	_ZN7testing8internal15TestFactoryImplI28Get_String20valueChange_TestED1Ev
	.quad	_ZN7testing8internal15TestFactoryImplI28Get_String20valueChange_TestED0Ev
	.quad	_ZN7testing8internal15TestFactoryImplI28Get_String20valueChange_TestE10CreateTestEv
	.globl	_ZTV28Get_String20valueChange_Test
	.section	.rdata$_ZTV28Get_String20valueChange_Test,"dr"
	.linkonce same_size
	.align 8
_ZTV28Get_String20valueChange_Test:
	.quad	0
	.quad	_ZTI28Get_String20valueChange_Test
	.quad	_ZN28Get_String20valueChange_TestD1Ev
	.quad	_ZN28Get_String20valueChange_TestD0Ev
	.quad	_ZN7testing4Test5SetUpEv
	.quad	_ZN7testing4Test8TearDownEv
	.quad	_ZN28Get_String20valueChange_Test8TestBodyEv
	.quad	_ZN7testing4Test5SetupEv
	.globl	_ZTVN7testing8internal15TestFactoryImplI27Get_String20valueConst_TestEE
	.section	.rdata$_ZTVN7testing8internal15TestFactoryImplI27Get_String20valueConst_TestEE,"dr"
	.linkonce same_size
	.align 8
_ZTVN7testing8internal15TestFactoryImplI27Get_String20valueConst_TestEE:
	.quad	0
	.quad	_ZTIN7testing8internal15TestFactoryImplI27Get_String20valueConst_TestEE
	.quad	_ZN7testing8internal15TestFactoryImplI27Get_String20valueConst_TestED1Ev
	.quad	_ZN7testing8internal15TestFactoryImplI27Get_String20valueConst_TestED0Ev
	.quad	_ZN7testing8internal15TestFactoryImplI27Get_String20valueConst_TestE10CreateTestEv
	.globl	_ZTV27Get_String20valueConst_Test
	.section	.rdata$_ZTV27Get_String20valueConst_Test,"dr"
	.linkonce same_size
	.align 8
_ZTV27Get_String20valueConst_Test:
	.quad	0
	.quad	_ZTI27Get_String20valueConst_Test
	.quad	_ZN27Get_String20valueConst_TestD1Ev
	.quad	_ZN27Get_String20valueConst_TestD0Ev
	.quad	_ZN7testing4Test5SetUpEv
	.quad	_ZN7testing4Test8TearDownEv
	.quad	_ZN27Get_String20valueConst_Test8TestBodyEv
	.quad	_ZN7testing4Test5SetupEv
	.globl	_ZN27Get_String20valueConst_Test10test_info_E
	.section	.data$_ZN27Get_String20valueConst_Test10test_info_E,"w"
	.align 8
_ZN27Get_String20valueConst_Test10test_info_E:
	.space 8
	.globl	_ZN28Get_String20valueChange_Test10test_info_E
	.section	.data$_ZN28Get_String20valueChange_Test10test_info_E,"w"
	.align 8
_ZN28Get_String20valueChange_Test10test_info_E:
	.space 8
	.globl	_ZN23Get_String20Length_Test10test_info_E
	.section	.data$_ZN23Get_String20Length_Test10test_info_E,"w"
	.align 8
_ZN23Get_String20Length_Test10test_info_E:
	.space 8
	.globl	_ZN34Multiply_string20_int_reverse_Test10test_info_E
	.section	.data$_ZN34Multiply_string20_int_reverse_Test10test_info_E,"w"
	.align 8
_ZN34Multiply_string20_int_reverse_Test10test_info_E:
	.space 8
	.globl	_ZN26Multiply_string20_int_Test10test_info_E
	.section	.data$_ZN26Multiply_string20_int_Test10test_info_E,"w"
	.align 8
_ZN26Multiply_string20_int_Test10test_info_E:
	.space 8
	.globl	_ZN32Add_string_String20_reverse_Test10test_info_E
	.section	.data$_ZN32Add_string_String20_reverse_Test10test_info_E,"w"
	.align 8
_ZN32Add_string_String20_reverse_Test10test_info_E:
	.space 8
	.globl	_ZN30Add_Char_String20_reverse_Test10test_info_E
	.section	.data$_ZN30Add_Char_String20_reverse_Test10test_info_E,"w"
	.align 8
_ZN30Add_Char_String20_reverse_Test10test_info_E:
	.space 8
	.globl	_ZN15Add_string_Test10test_info_E
	.section	.data$_ZN15Add_string_Test10test_info_E,"w"
	.align 8
_ZN15Add_string_Test10test_info_E:
	.space 8
	.globl	_ZN13Add_Char_Test10test_info_E
	.section	.data$_ZN13Add_Char_Test10test_info_E,"w"
	.align 8
_ZN13Add_Char_Test10test_info_E:
	.space 8
	.globl	_ZN17Add_string20_Test10test_info_E
	.section	.data$_ZN17Add_string20_Test10test_info_E,"w"
	.align 8
_ZN17Add_string20_Test10test_info_E:
	.space 8
	.globl	_ZN18Append_string_Test10test_info_E
	.section	.data$_ZN18Append_string_Test10test_info_E,"w"
	.align 8
_ZN18Append_string_Test10test_info_E:
	.space 8
	.globl	_ZN16Append_Char_Test10test_info_E
	.section	.data$_ZN16Append_Char_Test10test_info_E,"w"
	.align 8
_ZN16Append_Char_Test10test_info_E:
	.space 8
	.globl	_ZN20Append_string20_Test10test_info_E
	.section	.data$_ZN20Append_string20_Test10test_info_E,"w"
	.align 8
_ZN20Append_string20_Test10test_info_E:
	.space 8
	.globl	_ZN16Assign_Char_Test10test_info_E
	.section	.data$_ZN16Assign_Char_Test10test_info_E,"w"
	.align 8
_ZN16Assign_Char_Test10test_info_E:
	.space 8
	.globl	_ZN20Assign_string20_Test10test_info_E
	.section	.data$_ZN20Assign_string20_Test10test_info_E,"w"
	.align 8
_ZN20Assign_string20_Test10test_info_E:
	.space 8
	.globl	_ZN18Assign_string_Test10test_info_E
	.section	.data$_ZN18Assign_string_Test10test_info_E,"w"
	.align 8
_ZN18Assign_string_Test10test_info_E:
	.space 8
	.globl	_ZN26Constructors_String20_Test10test_info_E
	.section	.data$_ZN26Constructors_String20_Test10test_info_E,"w"
	.align 8
_ZN26Constructors_String20_Test10test_info_E:
	.space 8
	.globl	_ZN24Constructors_string_Test10test_info_E
	.section	.data$_ZN24Constructors_string_Test10test_info_E,"w"
	.align 8
_ZN24Constructors_string_Test10test_info_E:
	.space 8
	.globl	_ZN22Constructors_Char_Test10test_info_E
	.section	.data$_ZN22Constructors_Char_Test10test_info_E,"w"
	.align 8
_ZN22Constructors_Char_Test10test_info_E:
	.space 8
	.globl	_ZN25Constructors_Default_Test10test_info_E
	.section	.data$_ZN25Constructors_Default_Test10test_info_E,"w"
	.align 8
_ZN25Constructors_Default_Test10test_info_E:
	.space 8
	.section	.data$_ZStL8__ioinit,"w"
_ZStL8__ioinit:
	.space 1
	.ident	"GCC: (GNU) 5.2.0"
	.def	_ZdlPv;	.scl	2;	.type	32;	.endef
	.def	_ZNSt8ios_base4InitD1Ev;	.scl	2;	.type	32;	.endef
	.def	_Znwy;	.scl	2;	.type	32;	.endef
	.def	_ZN7testing4TestC2Ev;	.scl	2;	.type	32;	.endef
	.def	_ZN7testing8internal6IsTrueEb;	.scl	2;	.type	32;	.endef
	.def	_ZNSt7__cxx1112basic_stringIcSt11char_traitsIcESaIcEE10_M_disposeEv;	.scl	2;	.type	32;	.endef
	.def	_ZStlsISt11char_traitsIcEERSt13basic_ostreamIcT_ES5_PKc;	.scl	2;	.type	32;	.endef
	.def	_ZNSolsEi;	.scl	2;	.type	32;	.endef
	.def	_ZN7testing14InitGoogleTestEPiPPc;	.scl	2;	.type	32;	.endef
	.def	_ZN7testing8UnitTest11GetInstanceEv;	.scl	2;	.type	32;	.endef
	.def	_ZN7testing8UnitTest3RunEv;	.scl	2;	.type	32;	.endef
	.def	_ZN5bmptk4waitEx;	.scl	2;	.type	32;	.endef
	.def	_ZNSt7__cxx1118basic_stringstreamIcSt11char_traitsIcESaIcEEC1ESt13_Ios_Openmode;	.scl	2;	.type	32;	.endef
	.def	_ZNKSt7__cxx1115basic_stringbufIcSt11char_traitsIcESaIcEE3strEv;	.scl	2;	.type	32;	.endef
	.def	_ZNSt7__cxx1118basic_stringstreamIcSt11char_traitsIcESaIcEED1Ev;	.scl	2;	.type	32;	.endef
	.def	_ZN7testing16AssertionSuccessEv;	.scl	2;	.type	32;	.endef
	.def	_ZN7testing8internal9EqFailureEPKcS2_RKNSt7__cxx1112basic_stringIcSt11char_traitsIcESaIcEEESA_b;	.scl	2;	.type	32;	.endef
	.def	_ZN8string20C1Ev;	.scl	2;	.type	32;	.endef
	.def	_ZNK8string206lengthEv;	.scl	2;	.type	32;	.endef
	.def	_ZN7testing7MessageC1Ev;	.scl	2;	.type	32;	.endef
	.def	_ZN7testing8internal12AssertHelperC1ENS_14TestPartResult4TypeEPKciS5_;	.scl	2;	.type	32;	.endef
	.def	_ZNK7testing8internal12AssertHelperaSERKNS_7MessageE;	.scl	2;	.type	32;	.endef
	.def	_ZN7testing8internal12AssertHelperD1Ev;	.scl	2;	.type	32;	.endef
	.def	_ZN7testing8internal7PrintToEhPSo;	.scl	2;	.type	32;	.endef
	.def	_ZN8string20C1EPKc;	.scl	2;	.type	32;	.endef
	.def	_ZNK8string20ixEi;	.scl	2;	.type	32;	.endef
	.def	_ZN8string20aSEPKc;	.scl	2;	.type	32;	.endef
	.def	_ZN7testing8internal30GetBoolAssertionFailureMessageB5cxx11ERKNS_15AssertionResultEPKcS5_S5_;	.scl	2;	.type	32;	.endef
	.def	_ZN8string20C1Ec;	.scl	2;	.type	32;	.endef
	.def	_ZN8string20aSERKS_;	.scl	2;	.type	32;	.endef
	.def	_ZN8string20aSEc;	.scl	2;	.type	32;	.endef
	.def	_ZN8string20pLERKS_;	.scl	2;	.type	32;	.endef
	.def	_ZN8string20pLEc;	.scl	2;	.type	32;	.endef
	.def	_ZN8string20pLEPKc;	.scl	2;	.type	32;	.endef
	.def	_ZNK8string20plERKS_;	.scl	2;	.type	32;	.endef
	.def	_ZNK8string20plEc;	.scl	2;	.type	32;	.endef
	.def	_ZNK8string20plEPKc;	.scl	2;	.type	32;	.endef
	.def	_ZplcRK8string20;	.scl	2;	.type	32;	.endef
	.def	_ZplPKcRK8string20;	.scl	2;	.type	32;	.endef
	.def	_ZNK8string20mlEi;	.scl	2;	.type	32;	.endef
	.def	_ZmliRK8string20;	.scl	2;	.type	32;	.endef
	.def	_ZN8string20ixEi;	.scl	2;	.type	32;	.endef
	.def	_ZN8string20C1ERKS_;	.scl	2;	.type	32;	.endef
	.def	_ZN7testing4TestD2Ev;	.scl	2;	.type	32;	.endef
	.def	_ZNSt8ios_base4InitC1Ev;	.scl	2;	.type	32;	.endef
	.def	atexit;	.scl	2;	.type	32;	.endef
	.def	_ZN7testing8internal13GetTestTypeIdEv;	.scl	2;	.type	32;	.endef
	.def	_ZN7testing8internal23MakeAndRegisterTestInfoEPKcS2_S2_S2_PKvPFvvES6_PNS0_15TestFactoryBaseE;	.scl	2;	.type	32;	.endef
	.def	_ZN7testing4Test5SetUpEv;	.scl	2;	.type	32;	.endef
	.def	_ZN7testing4Test8TearDownEv;	.scl	2;	.type	32;	.endef
	.section	.rdata$.refptr._ZSt4cout, "dr"
	.globl	.refptr._ZSt4cout
	.linkonce	discard
.refptr._ZSt4cout:
	.quad	_ZSt4cout
	.section	.rdata$.refptr.string20bug, "dr"
	.globl	.refptr.string20bug
	.linkonce	discard
.refptr.string20bug:
	.quad	string20bug
